
Dual_Core__High_Level_Arch_CM4.elf:     file format elf32-littlearm

Sections:
Idx Name          Size      VMA       LMA       File off  Algn
  0 .isr_vector   00000298  08100000  08100000  00010000  2**0
                  CONTENTS, ALLOC, LOAD, READONLY, DATA
  1 .text         00009aec  081002a0  081002a0  000102a0  2**4
                  CONTENTS, ALLOC, LOAD, READONLY, CODE
  2 .rodata       00000098  08109d8c  08109d8c  00019d8c  2**2
                  CONTENTS, ALLOC, LOAD, READONLY, DATA
  3 .ARM          00000008  08109e24  08109e24  00019e24  2**2
                  CONTENTS, ALLOC, LOAD, READONLY, DATA
  4 .init_array   00000004  08109e2c  08109e2c  00019e2c  2**2
                  CONTENTS, ALLOC, LOAD, DATA
  5 .fini_array   00000004  08109e30  08109e30  00019e30  2**2
                  CONTENTS, ALLOC, LOAD, DATA
  6 .data         00000078  10000000  08109e34  00020000  2**2
                  CONTENTS, ALLOC, LOAD, DATA
  7 .bss          000002d8  10000078  08109eac  00020078  2**3
                  ALLOC
  8 ._user_heap_stack 00000600  10000350  08109eac  00020350  2**0
                  ALLOC
  9 .ARM.attributes 00000030  00000000  00000000  00020078  2**0
                  CONTENTS, READONLY
 10 .debug_info   0001d07b  00000000  00000000  000200a8  2**0
                  CONTENTS, READONLY, DEBUGGING, OCTETS
 11 .debug_abbrev 000037bf  00000000  00000000  0003d123  2**0
                  CONTENTS, READONLY, DEBUGGING, OCTETS
 12 .debug_aranges 000017a0  00000000  00000000  000408e8  2**3
                  CONTENTS, READONLY, DEBUGGING, OCTETS
 13 .debug_ranges 00001628  00000000  00000000  00042088  2**3
                  CONTENTS, READONLY, DEBUGGING, OCTETS
 14 .debug_macro  0003f7a3  00000000  00000000  000436b0  2**0
                  CONTENTS, READONLY, DEBUGGING, OCTETS
 15 .debug_line   0001fdb2  00000000  00000000  00082e53  2**0
                  CONTENTS, READONLY, DEBUGGING, OCTETS
 16 .debug_str    001a0eff  00000000  00000000  000a2c05  2**0
                  CONTENTS, READONLY, DEBUGGING, OCTETS
 17 .comment      00000050  00000000  00000000  00243b04  2**0
                  CONTENTS, READONLY
 18 .debug_frame  00006804  00000000  00000000  00243b54  2**2
                  CONTENTS, READONLY, DEBUGGING, OCTETS

Disassembly of section .text:

081002a0 <__do_global_dtors_aux>:
 81002a0:	b510      	push	{r4, lr}
 81002a2:	4c05      	ldr	r4, [pc, #20]	; (81002b8 <__do_global_dtors_aux+0x18>)
 81002a4:	7823      	ldrb	r3, [r4, #0]
 81002a6:	b933      	cbnz	r3, 81002b6 <__do_global_dtors_aux+0x16>
 81002a8:	4b04      	ldr	r3, [pc, #16]	; (81002bc <__do_global_dtors_aux+0x1c>)
 81002aa:	b113      	cbz	r3, 81002b2 <__do_global_dtors_aux+0x12>
 81002ac:	4804      	ldr	r0, [pc, #16]	; (81002c0 <__do_global_dtors_aux+0x20>)
 81002ae:	f3af 8000 	nop.w
 81002b2:	2301      	movs	r3, #1
 81002b4:	7023      	strb	r3, [r4, #0]
 81002b6:	bd10      	pop	{r4, pc}
 81002b8:	10000078 	.word	0x10000078
 81002bc:	00000000 	.word	0x00000000
 81002c0:	08109d74 	.word	0x08109d74

081002c4 <frame_dummy>:
 81002c4:	b508      	push	{r3, lr}
 81002c6:	4b03      	ldr	r3, [pc, #12]	; (81002d4 <frame_dummy+0x10>)
 81002c8:	b11b      	cbz	r3, 81002d2 <frame_dummy+0xe>
 81002ca:	4903      	ldr	r1, [pc, #12]	; (81002d8 <frame_dummy+0x14>)
 81002cc:	4803      	ldr	r0, [pc, #12]	; (81002dc <frame_dummy+0x18>)
 81002ce:	f3af 8000 	nop.w
 81002d2:	bd08      	pop	{r3, pc}
 81002d4:	00000000 	.word	0x00000000
 81002d8:	1000007c 	.word	0x1000007c
 81002dc:	08109d74 	.word	0x08109d74

081002e0 <memchr>:
 81002e0:	f001 01ff 	and.w	r1, r1, #255	; 0xff
 81002e4:	2a10      	cmp	r2, #16
 81002e6:	db2b      	blt.n	8100340 <memchr+0x60>
 81002e8:	f010 0f07 	tst.w	r0, #7
 81002ec:	d008      	beq.n	8100300 <memchr+0x20>
 81002ee:	f810 3b01 	ldrb.w	r3, [r0], #1
 81002f2:	3a01      	subs	r2, #1
 81002f4:	428b      	cmp	r3, r1
 81002f6:	d02d      	beq.n	8100354 <memchr+0x74>
 81002f8:	f010 0f07 	tst.w	r0, #7
 81002fc:	b342      	cbz	r2, 8100350 <memchr+0x70>
 81002fe:	d1f6      	bne.n	81002ee <memchr+0xe>
 8100300:	b4f0      	push	{r4, r5, r6, r7}
 8100302:	ea41 2101 	orr.w	r1, r1, r1, lsl #8
 8100306:	ea41 4101 	orr.w	r1, r1, r1, lsl #16
 810030a:	f022 0407 	bic.w	r4, r2, #7
 810030e:	f07f 0700 	mvns.w	r7, #0
 8100312:	2300      	movs	r3, #0
 8100314:	e8f0 5602 	ldrd	r5, r6, [r0], #8
 8100318:	3c08      	subs	r4, #8
 810031a:	ea85 0501 	eor.w	r5, r5, r1
 810031e:	ea86 0601 	eor.w	r6, r6, r1
 8100322:	fa85 f547 	uadd8	r5, r5, r7
 8100326:	faa3 f587 	sel	r5, r3, r7
 810032a:	fa86 f647 	uadd8	r6, r6, r7
 810032e:	faa5 f687 	sel	r6, r5, r7
 8100332:	b98e      	cbnz	r6, 8100358 <memchr+0x78>
 8100334:	d1ee      	bne.n	8100314 <memchr+0x34>
 8100336:	bcf0      	pop	{r4, r5, r6, r7}
 8100338:	f001 01ff 	and.w	r1, r1, #255	; 0xff
 810033c:	f002 0207 	and.w	r2, r2, #7
 8100340:	b132      	cbz	r2, 8100350 <memchr+0x70>
 8100342:	f810 3b01 	ldrb.w	r3, [r0], #1
 8100346:	3a01      	subs	r2, #1
 8100348:	ea83 0301 	eor.w	r3, r3, r1
 810034c:	b113      	cbz	r3, 8100354 <memchr+0x74>
 810034e:	d1f8      	bne.n	8100342 <memchr+0x62>
 8100350:	2000      	movs	r0, #0
 8100352:	4770      	bx	lr
 8100354:	3801      	subs	r0, #1
 8100356:	4770      	bx	lr
 8100358:	2d00      	cmp	r5, #0
 810035a:	bf06      	itte	eq
 810035c:	4635      	moveq	r5, r6
 810035e:	3803      	subeq	r0, #3
 8100360:	3807      	subne	r0, #7
 8100362:	f015 0f01 	tst.w	r5, #1
 8100366:	d107      	bne.n	8100378 <memchr+0x98>
 8100368:	3001      	adds	r0, #1
 810036a:	f415 7f80 	tst.w	r5, #256	; 0x100
 810036e:	bf02      	ittt	eq
 8100370:	3001      	addeq	r0, #1
 8100372:	f415 3fc0 	tsteq.w	r5, #98304	; 0x18000
 8100376:	3001      	addeq	r0, #1
 8100378:	bcf0      	pop	{r4, r5, r6, r7}
 810037a:	3801      	subs	r0, #1
 810037c:	4770      	bx	lr
 810037e:	bf00      	nop

08100380 <__aeabi_drsub>:
 8100380:	f081 4100 	eor.w	r1, r1, #2147483648	; 0x80000000
 8100384:	e002      	b.n	810038c <__adddf3>
 8100386:	bf00      	nop

08100388 <__aeabi_dsub>:
 8100388:	f083 4300 	eor.w	r3, r3, #2147483648	; 0x80000000

0810038c <__adddf3>:
 810038c:	b530      	push	{r4, r5, lr}
 810038e:	ea4f 0441 	mov.w	r4, r1, lsl #1
 8100392:	ea4f 0543 	mov.w	r5, r3, lsl #1
 8100396:	ea94 0f05 	teq	r4, r5
 810039a:	bf08      	it	eq
 810039c:	ea90 0f02 	teqeq	r0, r2
 81003a0:	bf1f      	itttt	ne
 81003a2:	ea54 0c00 	orrsne.w	ip, r4, r0
 81003a6:	ea55 0c02 	orrsne.w	ip, r5, r2
 81003aa:	ea7f 5c64 	mvnsne.w	ip, r4, asr #21
 81003ae:	ea7f 5c65 	mvnsne.w	ip, r5, asr #21
 81003b2:	f000 80e2 	beq.w	810057a <__adddf3+0x1ee>
 81003b6:	ea4f 5454 	mov.w	r4, r4, lsr #21
 81003ba:	ebd4 5555 	rsbs	r5, r4, r5, lsr #21
 81003be:	bfb8      	it	lt
 81003c0:	426d      	neglt	r5, r5
 81003c2:	dd0c      	ble.n	81003de <__adddf3+0x52>
 81003c4:	442c      	add	r4, r5
 81003c6:	ea80 0202 	eor.w	r2, r0, r2
 81003ca:	ea81 0303 	eor.w	r3, r1, r3
 81003ce:	ea82 0000 	eor.w	r0, r2, r0
 81003d2:	ea83 0101 	eor.w	r1, r3, r1
 81003d6:	ea80 0202 	eor.w	r2, r0, r2
 81003da:	ea81 0303 	eor.w	r3, r1, r3
 81003de:	2d36      	cmp	r5, #54	; 0x36
 81003e0:	bf88      	it	hi
 81003e2:	bd30      	pophi	{r4, r5, pc}
 81003e4:	f011 4f00 	tst.w	r1, #2147483648	; 0x80000000
 81003e8:	ea4f 3101 	mov.w	r1, r1, lsl #12
 81003ec:	f44f 1c80 	mov.w	ip, #1048576	; 0x100000
 81003f0:	ea4c 3111 	orr.w	r1, ip, r1, lsr #12
 81003f4:	d002      	beq.n	81003fc <__adddf3+0x70>
 81003f6:	4240      	negs	r0, r0
 81003f8:	eb61 0141 	sbc.w	r1, r1, r1, lsl #1
 81003fc:	f013 4f00 	tst.w	r3, #2147483648	; 0x80000000
 8100400:	ea4f 3303 	mov.w	r3, r3, lsl #12
 8100404:	ea4c 3313 	orr.w	r3, ip, r3, lsr #12
 8100408:	d002      	beq.n	8100410 <__adddf3+0x84>
 810040a:	4252      	negs	r2, r2
 810040c:	eb63 0343 	sbc.w	r3, r3, r3, lsl #1
 8100410:	ea94 0f05 	teq	r4, r5
 8100414:	f000 80a7 	beq.w	8100566 <__adddf3+0x1da>
 8100418:	f1a4 0401 	sub.w	r4, r4, #1
 810041c:	f1d5 0e20 	rsbs	lr, r5, #32
 8100420:	db0d      	blt.n	810043e <__adddf3+0xb2>
 8100422:	fa02 fc0e 	lsl.w	ip, r2, lr
 8100426:	fa22 f205 	lsr.w	r2, r2, r5
 810042a:	1880      	adds	r0, r0, r2
 810042c:	f141 0100 	adc.w	r1, r1, #0
 8100430:	fa03 f20e 	lsl.w	r2, r3, lr
 8100434:	1880      	adds	r0, r0, r2
 8100436:	fa43 f305 	asr.w	r3, r3, r5
 810043a:	4159      	adcs	r1, r3
 810043c:	e00e      	b.n	810045c <__adddf3+0xd0>
 810043e:	f1a5 0520 	sub.w	r5, r5, #32
 8100442:	f10e 0e20 	add.w	lr, lr, #32
 8100446:	2a01      	cmp	r2, #1
 8100448:	fa03 fc0e 	lsl.w	ip, r3, lr
 810044c:	bf28      	it	cs
 810044e:	f04c 0c02 	orrcs.w	ip, ip, #2
 8100452:	fa43 f305 	asr.w	r3, r3, r5
 8100456:	18c0      	adds	r0, r0, r3
 8100458:	eb51 71e3 	adcs.w	r1, r1, r3, asr #31
 810045c:	f001 4500 	and.w	r5, r1, #2147483648	; 0x80000000
 8100460:	d507      	bpl.n	8100472 <__adddf3+0xe6>
 8100462:	f04f 0e00 	mov.w	lr, #0
 8100466:	f1dc 0c00 	rsbs	ip, ip, #0
 810046a:	eb7e 0000 	sbcs.w	r0, lr, r0
 810046e:	eb6e 0101 	sbc.w	r1, lr, r1
 8100472:	f5b1 1f80 	cmp.w	r1, #1048576	; 0x100000
 8100476:	d31b      	bcc.n	81004b0 <__adddf3+0x124>
 8100478:	f5b1 1f00 	cmp.w	r1, #2097152	; 0x200000
 810047c:	d30c      	bcc.n	8100498 <__adddf3+0x10c>
 810047e:	0849      	lsrs	r1, r1, #1
 8100480:	ea5f 0030 	movs.w	r0, r0, rrx
 8100484:	ea4f 0c3c 	mov.w	ip, ip, rrx
 8100488:	f104 0401 	add.w	r4, r4, #1
 810048c:	ea4f 5244 	mov.w	r2, r4, lsl #21
 8100490:	f512 0f80 	cmn.w	r2, #4194304	; 0x400000
 8100494:	f080 809a 	bcs.w	81005cc <__adddf3+0x240>
 8100498:	f1bc 4f00 	cmp.w	ip, #2147483648	; 0x80000000
 810049c:	bf08      	it	eq
 810049e:	ea5f 0c50 	movseq.w	ip, r0, lsr #1
 81004a2:	f150 0000 	adcs.w	r0, r0, #0
 81004a6:	eb41 5104 	adc.w	r1, r1, r4, lsl #20
 81004aa:	ea41 0105 	orr.w	r1, r1, r5
 81004ae:	bd30      	pop	{r4, r5, pc}
 81004b0:	ea5f 0c4c 	movs.w	ip, ip, lsl #1
 81004b4:	4140      	adcs	r0, r0
 81004b6:	eb41 0101 	adc.w	r1, r1, r1
 81004ba:	3c01      	subs	r4, #1
 81004bc:	bf28      	it	cs
 81004be:	f5b1 1f80 	cmpcs.w	r1, #1048576	; 0x100000
 81004c2:	d2e9      	bcs.n	8100498 <__adddf3+0x10c>
 81004c4:	f091 0f00 	teq	r1, #0
 81004c8:	bf04      	itt	eq
 81004ca:	4601      	moveq	r1, r0
 81004cc:	2000      	moveq	r0, #0
 81004ce:	fab1 f381 	clz	r3, r1
 81004d2:	bf08      	it	eq
 81004d4:	3320      	addeq	r3, #32
 81004d6:	f1a3 030b 	sub.w	r3, r3, #11
 81004da:	f1b3 0220 	subs.w	r2, r3, #32
 81004de:	da0c      	bge.n	81004fa <__adddf3+0x16e>
 81004e0:	320c      	adds	r2, #12
 81004e2:	dd08      	ble.n	81004f6 <__adddf3+0x16a>
 81004e4:	f102 0c14 	add.w	ip, r2, #20
 81004e8:	f1c2 020c 	rsb	r2, r2, #12
 81004ec:	fa01 f00c 	lsl.w	r0, r1, ip
 81004f0:	fa21 f102 	lsr.w	r1, r1, r2
 81004f4:	e00c      	b.n	8100510 <__adddf3+0x184>
 81004f6:	f102 0214 	add.w	r2, r2, #20
 81004fa:	bfd8      	it	le
 81004fc:	f1c2 0c20 	rsble	ip, r2, #32
 8100500:	fa01 f102 	lsl.w	r1, r1, r2
 8100504:	fa20 fc0c 	lsr.w	ip, r0, ip
 8100508:	bfdc      	itt	le
 810050a:	ea41 010c 	orrle.w	r1, r1, ip
 810050e:	4090      	lslle	r0, r2
 8100510:	1ae4      	subs	r4, r4, r3
 8100512:	bfa2      	ittt	ge
 8100514:	eb01 5104 	addge.w	r1, r1, r4, lsl #20
 8100518:	4329      	orrge	r1, r5
 810051a:	bd30      	popge	{r4, r5, pc}
 810051c:	ea6f 0404 	mvn.w	r4, r4
 8100520:	3c1f      	subs	r4, #31
 8100522:	da1c      	bge.n	810055e <__adddf3+0x1d2>
 8100524:	340c      	adds	r4, #12
 8100526:	dc0e      	bgt.n	8100546 <__adddf3+0x1ba>
 8100528:	f104 0414 	add.w	r4, r4, #20
 810052c:	f1c4 0220 	rsb	r2, r4, #32
 8100530:	fa20 f004 	lsr.w	r0, r0, r4
 8100534:	fa01 f302 	lsl.w	r3, r1, r2
 8100538:	ea40 0003 	orr.w	r0, r0, r3
 810053c:	fa21 f304 	lsr.w	r3, r1, r4
 8100540:	ea45 0103 	orr.w	r1, r5, r3
 8100544:	bd30      	pop	{r4, r5, pc}
 8100546:	f1c4 040c 	rsb	r4, r4, #12
 810054a:	f1c4 0220 	rsb	r2, r4, #32
 810054e:	fa20 f002 	lsr.w	r0, r0, r2
 8100552:	fa01 f304 	lsl.w	r3, r1, r4
 8100556:	ea40 0003 	orr.w	r0, r0, r3
 810055a:	4629      	mov	r1, r5
 810055c:	bd30      	pop	{r4, r5, pc}
 810055e:	fa21 f004 	lsr.w	r0, r1, r4
 8100562:	4629      	mov	r1, r5
 8100564:	bd30      	pop	{r4, r5, pc}
 8100566:	f094 0f00 	teq	r4, #0
 810056a:	f483 1380 	eor.w	r3, r3, #1048576	; 0x100000
 810056e:	bf06      	itte	eq
 8100570:	f481 1180 	eoreq.w	r1, r1, #1048576	; 0x100000
 8100574:	3401      	addeq	r4, #1
 8100576:	3d01      	subne	r5, #1
 8100578:	e74e      	b.n	8100418 <__adddf3+0x8c>
 810057a:	ea7f 5c64 	mvns.w	ip, r4, asr #21
 810057e:	bf18      	it	ne
 8100580:	ea7f 5c65 	mvnsne.w	ip, r5, asr #21
 8100584:	d029      	beq.n	81005da <__adddf3+0x24e>
 8100586:	ea94 0f05 	teq	r4, r5
 810058a:	bf08      	it	eq
 810058c:	ea90 0f02 	teqeq	r0, r2
 8100590:	d005      	beq.n	810059e <__adddf3+0x212>
 8100592:	ea54 0c00 	orrs.w	ip, r4, r0
 8100596:	bf04      	itt	eq
 8100598:	4619      	moveq	r1, r3
 810059a:	4610      	moveq	r0, r2
 810059c:	bd30      	pop	{r4, r5, pc}
 810059e:	ea91 0f03 	teq	r1, r3
 81005a2:	bf1e      	ittt	ne
 81005a4:	2100      	movne	r1, #0
 81005a6:	2000      	movne	r0, #0
 81005a8:	bd30      	popne	{r4, r5, pc}
 81005aa:	ea5f 5c54 	movs.w	ip, r4, lsr #21
 81005ae:	d105      	bne.n	81005bc <__adddf3+0x230>
 81005b0:	0040      	lsls	r0, r0, #1
 81005b2:	4149      	adcs	r1, r1
 81005b4:	bf28      	it	cs
 81005b6:	f041 4100 	orrcs.w	r1, r1, #2147483648	; 0x80000000
 81005ba:	bd30      	pop	{r4, r5, pc}
 81005bc:	f514 0480 	adds.w	r4, r4, #4194304	; 0x400000
 81005c0:	bf3c      	itt	cc
 81005c2:	f501 1180 	addcc.w	r1, r1, #1048576	; 0x100000
 81005c6:	bd30      	popcc	{r4, r5, pc}
 81005c8:	f001 4500 	and.w	r5, r1, #2147483648	; 0x80000000
 81005cc:	f045 41fe 	orr.w	r1, r5, #2130706432	; 0x7f000000
 81005d0:	f441 0170 	orr.w	r1, r1, #15728640	; 0xf00000
 81005d4:	f04f 0000 	mov.w	r0, #0
 81005d8:	bd30      	pop	{r4, r5, pc}
 81005da:	ea7f 5c64 	mvns.w	ip, r4, asr #21
 81005de:	bf1a      	itte	ne
 81005e0:	4619      	movne	r1, r3
 81005e2:	4610      	movne	r0, r2
 81005e4:	ea7f 5c65 	mvnseq.w	ip, r5, asr #21
 81005e8:	bf1c      	itt	ne
 81005ea:	460b      	movne	r3, r1
 81005ec:	4602      	movne	r2, r0
 81005ee:	ea50 3401 	orrs.w	r4, r0, r1, lsl #12
 81005f2:	bf06      	itte	eq
 81005f4:	ea52 3503 	orrseq.w	r5, r2, r3, lsl #12
 81005f8:	ea91 0f03 	teqeq	r1, r3
 81005fc:	f441 2100 	orrne.w	r1, r1, #524288	; 0x80000
 8100600:	bd30      	pop	{r4, r5, pc}
 8100602:	bf00      	nop

08100604 <__aeabi_ui2d>:
 8100604:	f090 0f00 	teq	r0, #0
 8100608:	bf04      	itt	eq
 810060a:	2100      	moveq	r1, #0
 810060c:	4770      	bxeq	lr
 810060e:	b530      	push	{r4, r5, lr}
 8100610:	f44f 6480 	mov.w	r4, #1024	; 0x400
 8100614:	f104 0432 	add.w	r4, r4, #50	; 0x32
 8100618:	f04f 0500 	mov.w	r5, #0
 810061c:	f04f 0100 	mov.w	r1, #0
 8100620:	e750      	b.n	81004c4 <__adddf3+0x138>
 8100622:	bf00      	nop

08100624 <__aeabi_i2d>:
 8100624:	f090 0f00 	teq	r0, #0
 8100628:	bf04      	itt	eq
 810062a:	2100      	moveq	r1, #0
 810062c:	4770      	bxeq	lr
 810062e:	b530      	push	{r4, r5, lr}
 8100630:	f44f 6480 	mov.w	r4, #1024	; 0x400
 8100634:	f104 0432 	add.w	r4, r4, #50	; 0x32
 8100638:	f010 4500 	ands.w	r5, r0, #2147483648	; 0x80000000
 810063c:	bf48      	it	mi
 810063e:	4240      	negmi	r0, r0
 8100640:	f04f 0100 	mov.w	r1, #0
 8100644:	e73e      	b.n	81004c4 <__adddf3+0x138>
 8100646:	bf00      	nop

08100648 <__aeabi_f2d>:
 8100648:	0042      	lsls	r2, r0, #1
 810064a:	ea4f 01e2 	mov.w	r1, r2, asr #3
 810064e:	ea4f 0131 	mov.w	r1, r1, rrx
 8100652:	ea4f 7002 	mov.w	r0, r2, lsl #28
 8100656:	bf1f      	itttt	ne
 8100658:	f012 437f 	andsne.w	r3, r2, #4278190080	; 0xff000000
 810065c:	f093 4f7f 	teqne	r3, #4278190080	; 0xff000000
 8100660:	f081 5160 	eorne.w	r1, r1, #939524096	; 0x38000000
 8100664:	4770      	bxne	lr
 8100666:	f032 427f 	bics.w	r2, r2, #4278190080	; 0xff000000
 810066a:	bf08      	it	eq
 810066c:	4770      	bxeq	lr
 810066e:	f093 4f7f 	teq	r3, #4278190080	; 0xff000000
 8100672:	bf04      	itt	eq
 8100674:	f441 2100 	orreq.w	r1, r1, #524288	; 0x80000
 8100678:	4770      	bxeq	lr
 810067a:	b530      	push	{r4, r5, lr}
 810067c:	f44f 7460 	mov.w	r4, #896	; 0x380
 8100680:	f001 4500 	and.w	r5, r1, #2147483648	; 0x80000000
 8100684:	f021 4100 	bic.w	r1, r1, #2147483648	; 0x80000000
 8100688:	e71c      	b.n	81004c4 <__adddf3+0x138>
 810068a:	bf00      	nop

0810068c <__aeabi_ul2d>:
 810068c:	ea50 0201 	orrs.w	r2, r0, r1
 8100690:	bf08      	it	eq
 8100692:	4770      	bxeq	lr
 8100694:	b530      	push	{r4, r5, lr}
 8100696:	f04f 0500 	mov.w	r5, #0
 810069a:	e00a      	b.n	81006b2 <__aeabi_l2d+0x16>

0810069c <__aeabi_l2d>:
 810069c:	ea50 0201 	orrs.w	r2, r0, r1
 81006a0:	bf08      	it	eq
 81006a2:	4770      	bxeq	lr
 81006a4:	b530      	push	{r4, r5, lr}
 81006a6:	f011 4500 	ands.w	r5, r1, #2147483648	; 0x80000000
 81006aa:	d502      	bpl.n	81006b2 <__aeabi_l2d+0x16>
 81006ac:	4240      	negs	r0, r0
 81006ae:	eb61 0141 	sbc.w	r1, r1, r1, lsl #1
 81006b2:	f44f 6480 	mov.w	r4, #1024	; 0x400
 81006b6:	f104 0432 	add.w	r4, r4, #50	; 0x32
 81006ba:	ea5f 5c91 	movs.w	ip, r1, lsr #22
 81006be:	f43f aed8 	beq.w	8100472 <__adddf3+0xe6>
 81006c2:	f04f 0203 	mov.w	r2, #3
 81006c6:	ea5f 0cdc 	movs.w	ip, ip, lsr #3
 81006ca:	bf18      	it	ne
 81006cc:	3203      	addne	r2, #3
 81006ce:	ea5f 0cdc 	movs.w	ip, ip, lsr #3
 81006d2:	bf18      	it	ne
 81006d4:	3203      	addne	r2, #3
 81006d6:	eb02 02dc 	add.w	r2, r2, ip, lsr #3
 81006da:	f1c2 0320 	rsb	r3, r2, #32
 81006de:	fa00 fc03 	lsl.w	ip, r0, r3
 81006e2:	fa20 f002 	lsr.w	r0, r0, r2
 81006e6:	fa01 fe03 	lsl.w	lr, r1, r3
 81006ea:	ea40 000e 	orr.w	r0, r0, lr
 81006ee:	fa21 f102 	lsr.w	r1, r1, r2
 81006f2:	4414      	add	r4, r2
 81006f4:	e6bd      	b.n	8100472 <__adddf3+0xe6>
 81006f6:	bf00      	nop

081006f8 <__gedf2>:
 81006f8:	f04f 3cff 	mov.w	ip, #4294967295
 81006fc:	e006      	b.n	810070c <__cmpdf2+0x4>
 81006fe:	bf00      	nop

08100700 <__ledf2>:
 8100700:	f04f 0c01 	mov.w	ip, #1
 8100704:	e002      	b.n	810070c <__cmpdf2+0x4>
 8100706:	bf00      	nop

08100708 <__cmpdf2>:
 8100708:	f04f 0c01 	mov.w	ip, #1
 810070c:	f84d cd04 	str.w	ip, [sp, #-4]!
 8100710:	ea4f 0c41 	mov.w	ip, r1, lsl #1
 8100714:	ea7f 5c6c 	mvns.w	ip, ip, asr #21
 8100718:	ea4f 0c43 	mov.w	ip, r3, lsl #1
 810071c:	bf18      	it	ne
 810071e:	ea7f 5c6c 	mvnsne.w	ip, ip, asr #21
 8100722:	d01b      	beq.n	810075c <__cmpdf2+0x54>
 8100724:	b001      	add	sp, #4
 8100726:	ea50 0c41 	orrs.w	ip, r0, r1, lsl #1
 810072a:	bf0c      	ite	eq
 810072c:	ea52 0c43 	orrseq.w	ip, r2, r3, lsl #1
 8100730:	ea91 0f03 	teqne	r1, r3
 8100734:	bf02      	ittt	eq
 8100736:	ea90 0f02 	teqeq	r0, r2
 810073a:	2000      	moveq	r0, #0
 810073c:	4770      	bxeq	lr
 810073e:	f110 0f00 	cmn.w	r0, #0
 8100742:	ea91 0f03 	teq	r1, r3
 8100746:	bf58      	it	pl
 8100748:	4299      	cmppl	r1, r3
 810074a:	bf08      	it	eq
 810074c:	4290      	cmpeq	r0, r2
 810074e:	bf2c      	ite	cs
 8100750:	17d8      	asrcs	r0, r3, #31
 8100752:	ea6f 70e3 	mvncc.w	r0, r3, asr #31
 8100756:	f040 0001 	orr.w	r0, r0, #1
 810075a:	4770      	bx	lr
 810075c:	ea4f 0c41 	mov.w	ip, r1, lsl #1
 8100760:	ea7f 5c6c 	mvns.w	ip, ip, asr #21
 8100764:	d102      	bne.n	810076c <__cmpdf2+0x64>
 8100766:	ea50 3c01 	orrs.w	ip, r0, r1, lsl #12
 810076a:	d107      	bne.n	810077c <__cmpdf2+0x74>
 810076c:	ea4f 0c43 	mov.w	ip, r3, lsl #1
 8100770:	ea7f 5c6c 	mvns.w	ip, ip, asr #21
 8100774:	d1d6      	bne.n	8100724 <__cmpdf2+0x1c>
 8100776:	ea52 3c03 	orrs.w	ip, r2, r3, lsl #12
 810077a:	d0d3      	beq.n	8100724 <__cmpdf2+0x1c>
 810077c:	f85d 0b04 	ldr.w	r0, [sp], #4
 8100780:	4770      	bx	lr
 8100782:	bf00      	nop

08100784 <__aeabi_cdrcmple>:
 8100784:	4684      	mov	ip, r0
 8100786:	4610      	mov	r0, r2
 8100788:	4662      	mov	r2, ip
 810078a:	468c      	mov	ip, r1
 810078c:	4619      	mov	r1, r3
 810078e:	4663      	mov	r3, ip
 8100790:	e000      	b.n	8100794 <__aeabi_cdcmpeq>
 8100792:	bf00      	nop

08100794 <__aeabi_cdcmpeq>:
 8100794:	b501      	push	{r0, lr}
 8100796:	f7ff ffb7 	bl	8100708 <__cmpdf2>
 810079a:	2800      	cmp	r0, #0
 810079c:	bf48      	it	mi
 810079e:	f110 0f00 	cmnmi.w	r0, #0
 81007a2:	bd01      	pop	{r0, pc}

081007a4 <__aeabi_dcmpeq>:
 81007a4:	f84d ed08 	str.w	lr, [sp, #-8]!
 81007a8:	f7ff fff4 	bl	8100794 <__aeabi_cdcmpeq>
 81007ac:	bf0c      	ite	eq
 81007ae:	2001      	moveq	r0, #1
 81007b0:	2000      	movne	r0, #0
 81007b2:	f85d fb08 	ldr.w	pc, [sp], #8
 81007b6:	bf00      	nop

081007b8 <__aeabi_dcmplt>:
 81007b8:	f84d ed08 	str.w	lr, [sp, #-8]!
 81007bc:	f7ff ffea 	bl	8100794 <__aeabi_cdcmpeq>
 81007c0:	bf34      	ite	cc
 81007c2:	2001      	movcc	r0, #1
 81007c4:	2000      	movcs	r0, #0
 81007c6:	f85d fb08 	ldr.w	pc, [sp], #8
 81007ca:	bf00      	nop

081007cc <__aeabi_dcmple>:
 81007cc:	f84d ed08 	str.w	lr, [sp, #-8]!
 81007d0:	f7ff ffe0 	bl	8100794 <__aeabi_cdcmpeq>
 81007d4:	bf94      	ite	ls
 81007d6:	2001      	movls	r0, #1
 81007d8:	2000      	movhi	r0, #0
 81007da:	f85d fb08 	ldr.w	pc, [sp], #8
 81007de:	bf00      	nop

081007e0 <__aeabi_dcmpge>:
 81007e0:	f84d ed08 	str.w	lr, [sp, #-8]!
 81007e4:	f7ff ffce 	bl	8100784 <__aeabi_cdrcmple>
 81007e8:	bf94      	ite	ls
 81007ea:	2001      	movls	r0, #1
 81007ec:	2000      	movhi	r0, #0
 81007ee:	f85d fb08 	ldr.w	pc, [sp], #8
 81007f2:	bf00      	nop

081007f4 <__aeabi_dcmpgt>:
 81007f4:	f84d ed08 	str.w	lr, [sp, #-8]!
 81007f8:	f7ff ffc4 	bl	8100784 <__aeabi_cdrcmple>
 81007fc:	bf34      	ite	cc
 81007fe:	2001      	movcc	r0, #1
 8100800:	2000      	movcs	r0, #0
 8100802:	f85d fb08 	ldr.w	pc, [sp], #8
 8100806:	bf00      	nop

08100808 <__aeabi_d2iz>:
 8100808:	ea4f 0241 	mov.w	r2, r1, lsl #1
 810080c:	f512 1200 	adds.w	r2, r2, #2097152	; 0x200000
 8100810:	d215      	bcs.n	810083e <__aeabi_d2iz+0x36>
 8100812:	d511      	bpl.n	8100838 <__aeabi_d2iz+0x30>
 8100814:	f46f 7378 	mvn.w	r3, #992	; 0x3e0
 8100818:	ebb3 5262 	subs.w	r2, r3, r2, asr #21
 810081c:	d912      	bls.n	8100844 <__aeabi_d2iz+0x3c>
 810081e:	ea4f 23c1 	mov.w	r3, r1, lsl #11
 8100822:	f043 4300 	orr.w	r3, r3, #2147483648	; 0x80000000
 8100826:	ea43 5350 	orr.w	r3, r3, r0, lsr #21
 810082a:	f011 4f00 	tst.w	r1, #2147483648	; 0x80000000
 810082e:	fa23 f002 	lsr.w	r0, r3, r2
 8100832:	bf18      	it	ne
 8100834:	4240      	negne	r0, r0
 8100836:	4770      	bx	lr
 8100838:	f04f 0000 	mov.w	r0, #0
 810083c:	4770      	bx	lr
 810083e:	ea50 3001 	orrs.w	r0, r0, r1, lsl #12
 8100842:	d105      	bne.n	8100850 <__aeabi_d2iz+0x48>
 8100844:	f011 4000 	ands.w	r0, r1, #2147483648	; 0x80000000
 8100848:	bf08      	it	eq
 810084a:	f06f 4000 	mvneq.w	r0, #2147483648	; 0x80000000
 810084e:	4770      	bx	lr
 8100850:	f04f 0000 	mov.w	r0, #0
 8100854:	4770      	bx	lr
 8100856:	bf00      	nop

08100858 <__aeabi_d2f>:
 8100858:	ea4f 0241 	mov.w	r2, r1, lsl #1
 810085c:	f1b2 43e0 	subs.w	r3, r2, #1879048192	; 0x70000000
 8100860:	bf24      	itt	cs
 8100862:	f5b3 1c00 	subscs.w	ip, r3, #2097152	; 0x200000
 8100866:	f1dc 5cfe 	rsbscs	ip, ip, #532676608	; 0x1fc00000
 810086a:	d90d      	bls.n	8100888 <__aeabi_d2f+0x30>
 810086c:	f001 4c00 	and.w	ip, r1, #2147483648	; 0x80000000
 8100870:	ea4f 02c0 	mov.w	r2, r0, lsl #3
 8100874:	ea4c 7050 	orr.w	r0, ip, r0, lsr #29
 8100878:	f1b2 4f00 	cmp.w	r2, #2147483648	; 0x80000000
 810087c:	eb40 0083 	adc.w	r0, r0, r3, lsl #2
 8100880:	bf08      	it	eq
 8100882:	f020 0001 	biceq.w	r0, r0, #1
 8100886:	4770      	bx	lr
 8100888:	f011 4f80 	tst.w	r1, #1073741824	; 0x40000000
 810088c:	d121      	bne.n	81008d2 <__aeabi_d2f+0x7a>
 810088e:	f113 7238 	adds.w	r2, r3, #48234496	; 0x2e00000
 8100892:	bfbc      	itt	lt
 8100894:	f001 4000 	andlt.w	r0, r1, #2147483648	; 0x80000000
 8100898:	4770      	bxlt	lr
 810089a:	f441 1180 	orr.w	r1, r1, #1048576	; 0x100000
 810089e:	ea4f 5252 	mov.w	r2, r2, lsr #21
 81008a2:	f1c2 0218 	rsb	r2, r2, #24
 81008a6:	f1c2 0c20 	rsb	ip, r2, #32
 81008aa:	fa10 f30c 	lsls.w	r3, r0, ip
 81008ae:	fa20 f002 	lsr.w	r0, r0, r2
 81008b2:	bf18      	it	ne
 81008b4:	f040 0001 	orrne.w	r0, r0, #1
 81008b8:	ea4f 23c1 	mov.w	r3, r1, lsl #11
 81008bc:	ea4f 23d3 	mov.w	r3, r3, lsr #11
 81008c0:	fa03 fc0c 	lsl.w	ip, r3, ip
 81008c4:	ea40 000c 	orr.w	r0, r0, ip
 81008c8:	fa23 f302 	lsr.w	r3, r3, r2
 81008cc:	ea4f 0343 	mov.w	r3, r3, lsl #1
 81008d0:	e7cc      	b.n	810086c <__aeabi_d2f+0x14>
 81008d2:	ea7f 5362 	mvns.w	r3, r2, asr #21
 81008d6:	d107      	bne.n	81008e8 <__aeabi_d2f+0x90>
 81008d8:	ea50 3301 	orrs.w	r3, r0, r1, lsl #12
 81008dc:	bf1e      	ittt	ne
 81008de:	f04f 40fe 	movne.w	r0, #2130706432	; 0x7f000000
 81008e2:	f440 0040 	orrne.w	r0, r0, #12582912	; 0xc00000
 81008e6:	4770      	bxne	lr
 81008e8:	f001 4000 	and.w	r0, r1, #2147483648	; 0x80000000
 81008ec:	f040 40fe 	orr.w	r0, r0, #2130706432	; 0x7f000000
 81008f0:	f440 0000 	orr.w	r0, r0, #8388608	; 0x800000
 81008f4:	4770      	bx	lr
 81008f6:	bf00      	nop

081008f8 <__aeabi_uldivmod>:
 81008f8:	b953      	cbnz	r3, 8100910 <__aeabi_uldivmod+0x18>
 81008fa:	b94a      	cbnz	r2, 8100910 <__aeabi_uldivmod+0x18>
 81008fc:	2900      	cmp	r1, #0
 81008fe:	bf08      	it	eq
 8100900:	2800      	cmpeq	r0, #0
 8100902:	bf1c      	itt	ne
 8100904:	f04f 31ff 	movne.w	r1, #4294967295
 8100908:	f04f 30ff 	movne.w	r0, #4294967295
 810090c:	f000 b974 	b.w	8100bf8 <__aeabi_idiv0>
 8100910:	f1ad 0c08 	sub.w	ip, sp, #8
 8100914:	e96d ce04 	strd	ip, lr, [sp, #-16]!
 8100918:	f000 f806 	bl	8100928 <__udivmoddi4>
 810091c:	f8dd e004 	ldr.w	lr, [sp, #4]
 8100920:	e9dd 2302 	ldrd	r2, r3, [sp, #8]
 8100924:	b004      	add	sp, #16
 8100926:	4770      	bx	lr

08100928 <__udivmoddi4>:
 8100928:	e92d 47f0 	stmdb	sp!, {r4, r5, r6, r7, r8, r9, sl, lr}
 810092c:	9d08      	ldr	r5, [sp, #32]
 810092e:	4604      	mov	r4, r0
 8100930:	468e      	mov	lr, r1
 8100932:	2b00      	cmp	r3, #0
 8100934:	d14d      	bne.n	81009d2 <__udivmoddi4+0xaa>
 8100936:	428a      	cmp	r2, r1
 8100938:	4694      	mov	ip, r2
 810093a:	d969      	bls.n	8100a10 <__udivmoddi4+0xe8>
 810093c:	fab2 f282 	clz	r2, r2
 8100940:	b152      	cbz	r2, 8100958 <__udivmoddi4+0x30>
 8100942:	fa01 f302 	lsl.w	r3, r1, r2
 8100946:	f1c2 0120 	rsb	r1, r2, #32
 810094a:	fa20 f101 	lsr.w	r1, r0, r1
 810094e:	fa0c fc02 	lsl.w	ip, ip, r2
 8100952:	ea41 0e03 	orr.w	lr, r1, r3
 8100956:	4094      	lsls	r4, r2
 8100958:	ea4f 481c 	mov.w	r8, ip, lsr #16
 810095c:	0c21      	lsrs	r1, r4, #16
 810095e:	fbbe f6f8 	udiv	r6, lr, r8
 8100962:	fa1f f78c 	uxth.w	r7, ip
 8100966:	fb08 e316 	mls	r3, r8, r6, lr
 810096a:	ea41 4303 	orr.w	r3, r1, r3, lsl #16
 810096e:	fb06 f107 	mul.w	r1, r6, r7
 8100972:	4299      	cmp	r1, r3
 8100974:	d90a      	bls.n	810098c <__udivmoddi4+0x64>
 8100976:	eb1c 0303 	adds.w	r3, ip, r3
 810097a:	f106 30ff 	add.w	r0, r6, #4294967295
 810097e:	f080 811f 	bcs.w	8100bc0 <__udivmoddi4+0x298>
 8100982:	4299      	cmp	r1, r3
 8100984:	f240 811c 	bls.w	8100bc0 <__udivmoddi4+0x298>
 8100988:	3e02      	subs	r6, #2
 810098a:	4463      	add	r3, ip
 810098c:	1a5b      	subs	r3, r3, r1
 810098e:	b2a4      	uxth	r4, r4
 8100990:	fbb3 f0f8 	udiv	r0, r3, r8
 8100994:	fb08 3310 	mls	r3, r8, r0, r3
 8100998:	ea44 4403 	orr.w	r4, r4, r3, lsl #16
 810099c:	fb00 f707 	mul.w	r7, r0, r7
 81009a0:	42a7      	cmp	r7, r4
 81009a2:	d90a      	bls.n	81009ba <__udivmoddi4+0x92>
 81009a4:	eb1c 0404 	adds.w	r4, ip, r4
 81009a8:	f100 33ff 	add.w	r3, r0, #4294967295
 81009ac:	f080 810a 	bcs.w	8100bc4 <__udivmoddi4+0x29c>
 81009b0:	42a7      	cmp	r7, r4
 81009b2:	f240 8107 	bls.w	8100bc4 <__udivmoddi4+0x29c>
 81009b6:	4464      	add	r4, ip
 81009b8:	3802      	subs	r0, #2
 81009ba:	ea40 4006 	orr.w	r0, r0, r6, lsl #16
 81009be:	1be4      	subs	r4, r4, r7
 81009c0:	2600      	movs	r6, #0
 81009c2:	b11d      	cbz	r5, 81009cc <__udivmoddi4+0xa4>
 81009c4:	40d4      	lsrs	r4, r2
 81009c6:	2300      	movs	r3, #0
 81009c8:	e9c5 4300 	strd	r4, r3, [r5]
 81009cc:	4631      	mov	r1, r6
 81009ce:	e8bd 87f0 	ldmia.w	sp!, {r4, r5, r6, r7, r8, r9, sl, pc}
 81009d2:	428b      	cmp	r3, r1
 81009d4:	d909      	bls.n	81009ea <__udivmoddi4+0xc2>
 81009d6:	2d00      	cmp	r5, #0
 81009d8:	f000 80ef 	beq.w	8100bba <__udivmoddi4+0x292>
 81009dc:	2600      	movs	r6, #0
 81009de:	e9c5 0100 	strd	r0, r1, [r5]
 81009e2:	4630      	mov	r0, r6
 81009e4:	4631      	mov	r1, r6
 81009e6:	e8bd 87f0 	ldmia.w	sp!, {r4, r5, r6, r7, r8, r9, sl, pc}
 81009ea:	fab3 f683 	clz	r6, r3
 81009ee:	2e00      	cmp	r6, #0
 81009f0:	d14a      	bne.n	8100a88 <__udivmoddi4+0x160>
 81009f2:	428b      	cmp	r3, r1
 81009f4:	d302      	bcc.n	81009fc <__udivmoddi4+0xd4>
 81009f6:	4282      	cmp	r2, r0
 81009f8:	f200 80f9 	bhi.w	8100bee <__udivmoddi4+0x2c6>
 81009fc:	1a84      	subs	r4, r0, r2
 81009fe:	eb61 0303 	sbc.w	r3, r1, r3
 8100a02:	2001      	movs	r0, #1
 8100a04:	469e      	mov	lr, r3
 8100a06:	2d00      	cmp	r5, #0
 8100a08:	d0e0      	beq.n	81009cc <__udivmoddi4+0xa4>
 8100a0a:	e9c5 4e00 	strd	r4, lr, [r5]
 8100a0e:	e7dd      	b.n	81009cc <__udivmoddi4+0xa4>
 8100a10:	b902      	cbnz	r2, 8100a14 <__udivmoddi4+0xec>
 8100a12:	deff      	udf	#255	; 0xff
 8100a14:	fab2 f282 	clz	r2, r2
 8100a18:	2a00      	cmp	r2, #0
 8100a1a:	f040 8092 	bne.w	8100b42 <__udivmoddi4+0x21a>
 8100a1e:	eba1 010c 	sub.w	r1, r1, ip
 8100a22:	ea4f 471c 	mov.w	r7, ip, lsr #16
 8100a26:	fa1f fe8c 	uxth.w	lr, ip
 8100a2a:	2601      	movs	r6, #1
 8100a2c:	0c20      	lsrs	r0, r4, #16
 8100a2e:	fbb1 f3f7 	udiv	r3, r1, r7
 8100a32:	fb07 1113 	mls	r1, r7, r3, r1
 8100a36:	ea40 4101 	orr.w	r1, r0, r1, lsl #16
 8100a3a:	fb0e f003 	mul.w	r0, lr, r3
 8100a3e:	4288      	cmp	r0, r1
 8100a40:	d908      	bls.n	8100a54 <__udivmoddi4+0x12c>
 8100a42:	eb1c 0101 	adds.w	r1, ip, r1
 8100a46:	f103 38ff 	add.w	r8, r3, #4294967295
 8100a4a:	d202      	bcs.n	8100a52 <__udivmoddi4+0x12a>
 8100a4c:	4288      	cmp	r0, r1
 8100a4e:	f200 80cb 	bhi.w	8100be8 <__udivmoddi4+0x2c0>
 8100a52:	4643      	mov	r3, r8
 8100a54:	1a09      	subs	r1, r1, r0
 8100a56:	b2a4      	uxth	r4, r4
 8100a58:	fbb1 f0f7 	udiv	r0, r1, r7
 8100a5c:	fb07 1110 	mls	r1, r7, r0, r1
 8100a60:	ea44 4401 	orr.w	r4, r4, r1, lsl #16
 8100a64:	fb0e fe00 	mul.w	lr, lr, r0
 8100a68:	45a6      	cmp	lr, r4
 8100a6a:	d908      	bls.n	8100a7e <__udivmoddi4+0x156>
 8100a6c:	eb1c 0404 	adds.w	r4, ip, r4
 8100a70:	f100 31ff 	add.w	r1, r0, #4294967295
 8100a74:	d202      	bcs.n	8100a7c <__udivmoddi4+0x154>
 8100a76:	45a6      	cmp	lr, r4
 8100a78:	f200 80bb 	bhi.w	8100bf2 <__udivmoddi4+0x2ca>
 8100a7c:	4608      	mov	r0, r1
 8100a7e:	eba4 040e 	sub.w	r4, r4, lr
 8100a82:	ea40 4003 	orr.w	r0, r0, r3, lsl #16
 8100a86:	e79c      	b.n	81009c2 <__udivmoddi4+0x9a>
 8100a88:	f1c6 0720 	rsb	r7, r6, #32
 8100a8c:	40b3      	lsls	r3, r6
 8100a8e:	fa22 fc07 	lsr.w	ip, r2, r7
 8100a92:	ea4c 0c03 	orr.w	ip, ip, r3
 8100a96:	fa20 f407 	lsr.w	r4, r0, r7
 8100a9a:	fa01 f306 	lsl.w	r3, r1, r6
 8100a9e:	431c      	orrs	r4, r3
 8100aa0:	40f9      	lsrs	r1, r7
 8100aa2:	ea4f 491c 	mov.w	r9, ip, lsr #16
 8100aa6:	fa00 f306 	lsl.w	r3, r0, r6
 8100aaa:	fbb1 f8f9 	udiv	r8, r1, r9
 8100aae:	0c20      	lsrs	r0, r4, #16
 8100ab0:	fa1f fe8c 	uxth.w	lr, ip
 8100ab4:	fb09 1118 	mls	r1, r9, r8, r1
 8100ab8:	ea40 4101 	orr.w	r1, r0, r1, lsl #16
 8100abc:	fb08 f00e 	mul.w	r0, r8, lr
 8100ac0:	4288      	cmp	r0, r1
 8100ac2:	fa02 f206 	lsl.w	r2, r2, r6
 8100ac6:	d90b      	bls.n	8100ae0 <__udivmoddi4+0x1b8>
 8100ac8:	eb1c 0101 	adds.w	r1, ip, r1
 8100acc:	f108 3aff 	add.w	sl, r8, #4294967295
 8100ad0:	f080 8088 	bcs.w	8100be4 <__udivmoddi4+0x2bc>
 8100ad4:	4288      	cmp	r0, r1
 8100ad6:	f240 8085 	bls.w	8100be4 <__udivmoddi4+0x2bc>
 8100ada:	f1a8 0802 	sub.w	r8, r8, #2
 8100ade:	4461      	add	r1, ip
 8100ae0:	1a09      	subs	r1, r1, r0
 8100ae2:	b2a4      	uxth	r4, r4
 8100ae4:	fbb1 f0f9 	udiv	r0, r1, r9
 8100ae8:	fb09 1110 	mls	r1, r9, r0, r1
 8100aec:	ea44 4101 	orr.w	r1, r4, r1, lsl #16
 8100af0:	fb00 fe0e 	mul.w	lr, r0, lr
 8100af4:	458e      	cmp	lr, r1
 8100af6:	d908      	bls.n	8100b0a <__udivmoddi4+0x1e2>
 8100af8:	eb1c 0101 	adds.w	r1, ip, r1
 8100afc:	f100 34ff 	add.w	r4, r0, #4294967295
 8100b00:	d26c      	bcs.n	8100bdc <__udivmoddi4+0x2b4>
 8100b02:	458e      	cmp	lr, r1
 8100b04:	d96a      	bls.n	8100bdc <__udivmoddi4+0x2b4>
 8100b06:	3802      	subs	r0, #2
 8100b08:	4461      	add	r1, ip
 8100b0a:	ea40 4008 	orr.w	r0, r0, r8, lsl #16
 8100b0e:	fba0 9402 	umull	r9, r4, r0, r2
 8100b12:	eba1 010e 	sub.w	r1, r1, lr
 8100b16:	42a1      	cmp	r1, r4
 8100b18:	46c8      	mov	r8, r9
 8100b1a:	46a6      	mov	lr, r4
 8100b1c:	d356      	bcc.n	8100bcc <__udivmoddi4+0x2a4>
 8100b1e:	d053      	beq.n	8100bc8 <__udivmoddi4+0x2a0>
 8100b20:	b15d      	cbz	r5, 8100b3a <__udivmoddi4+0x212>
 8100b22:	ebb3 0208 	subs.w	r2, r3, r8
 8100b26:	eb61 010e 	sbc.w	r1, r1, lr
 8100b2a:	fa01 f707 	lsl.w	r7, r1, r7
 8100b2e:	fa22 f306 	lsr.w	r3, r2, r6
 8100b32:	40f1      	lsrs	r1, r6
 8100b34:	431f      	orrs	r7, r3
 8100b36:	e9c5 7100 	strd	r7, r1, [r5]
 8100b3a:	2600      	movs	r6, #0
 8100b3c:	4631      	mov	r1, r6
 8100b3e:	e8bd 87f0 	ldmia.w	sp!, {r4, r5, r6, r7, r8, r9, sl, pc}
 8100b42:	f1c2 0320 	rsb	r3, r2, #32
 8100b46:	40d8      	lsrs	r0, r3
 8100b48:	fa0c fc02 	lsl.w	ip, ip, r2
 8100b4c:	fa21 f303 	lsr.w	r3, r1, r3
 8100b50:	4091      	lsls	r1, r2
 8100b52:	4301      	orrs	r1, r0
 8100b54:	ea4f 471c 	mov.w	r7, ip, lsr #16
 8100b58:	fa1f fe8c 	uxth.w	lr, ip
 8100b5c:	fbb3 f0f7 	udiv	r0, r3, r7
 8100b60:	fb07 3610 	mls	r6, r7, r0, r3
 8100b64:	0c0b      	lsrs	r3, r1, #16
 8100b66:	ea43 4306 	orr.w	r3, r3, r6, lsl #16
 8100b6a:	fb00 f60e 	mul.w	r6, r0, lr
 8100b6e:	429e      	cmp	r6, r3
 8100b70:	fa04 f402 	lsl.w	r4, r4, r2
 8100b74:	d908      	bls.n	8100b88 <__udivmoddi4+0x260>
 8100b76:	eb1c 0303 	adds.w	r3, ip, r3
 8100b7a:	f100 38ff 	add.w	r8, r0, #4294967295
 8100b7e:	d22f      	bcs.n	8100be0 <__udivmoddi4+0x2b8>
 8100b80:	429e      	cmp	r6, r3
 8100b82:	d92d      	bls.n	8100be0 <__udivmoddi4+0x2b8>
 8100b84:	3802      	subs	r0, #2
 8100b86:	4463      	add	r3, ip
 8100b88:	1b9b      	subs	r3, r3, r6
 8100b8a:	b289      	uxth	r1, r1
 8100b8c:	fbb3 f6f7 	udiv	r6, r3, r7
 8100b90:	fb07 3316 	mls	r3, r7, r6, r3
 8100b94:	ea41 4103 	orr.w	r1, r1, r3, lsl #16
 8100b98:	fb06 f30e 	mul.w	r3, r6, lr
 8100b9c:	428b      	cmp	r3, r1
 8100b9e:	d908      	bls.n	8100bb2 <__udivmoddi4+0x28a>
 8100ba0:	eb1c 0101 	adds.w	r1, ip, r1
 8100ba4:	f106 38ff 	add.w	r8, r6, #4294967295
 8100ba8:	d216      	bcs.n	8100bd8 <__udivmoddi4+0x2b0>
 8100baa:	428b      	cmp	r3, r1
 8100bac:	d914      	bls.n	8100bd8 <__udivmoddi4+0x2b0>
 8100bae:	3e02      	subs	r6, #2
 8100bb0:	4461      	add	r1, ip
 8100bb2:	1ac9      	subs	r1, r1, r3
 8100bb4:	ea46 4600 	orr.w	r6, r6, r0, lsl #16
 8100bb8:	e738      	b.n	8100a2c <__udivmoddi4+0x104>
 8100bba:	462e      	mov	r6, r5
 8100bbc:	4628      	mov	r0, r5
 8100bbe:	e705      	b.n	81009cc <__udivmoddi4+0xa4>
 8100bc0:	4606      	mov	r6, r0
 8100bc2:	e6e3      	b.n	810098c <__udivmoddi4+0x64>
 8100bc4:	4618      	mov	r0, r3
 8100bc6:	e6f8      	b.n	81009ba <__udivmoddi4+0x92>
 8100bc8:	454b      	cmp	r3, r9
 8100bca:	d2a9      	bcs.n	8100b20 <__udivmoddi4+0x1f8>
 8100bcc:	ebb9 0802 	subs.w	r8, r9, r2
 8100bd0:	eb64 0e0c 	sbc.w	lr, r4, ip
 8100bd4:	3801      	subs	r0, #1
 8100bd6:	e7a3      	b.n	8100b20 <__udivmoddi4+0x1f8>
 8100bd8:	4646      	mov	r6, r8
 8100bda:	e7ea      	b.n	8100bb2 <__udivmoddi4+0x28a>
 8100bdc:	4620      	mov	r0, r4
 8100bde:	e794      	b.n	8100b0a <__udivmoddi4+0x1e2>
 8100be0:	4640      	mov	r0, r8
 8100be2:	e7d1      	b.n	8100b88 <__udivmoddi4+0x260>
 8100be4:	46d0      	mov	r8, sl
 8100be6:	e77b      	b.n	8100ae0 <__udivmoddi4+0x1b8>
 8100be8:	3b02      	subs	r3, #2
 8100bea:	4461      	add	r1, ip
 8100bec:	e732      	b.n	8100a54 <__udivmoddi4+0x12c>
 8100bee:	4630      	mov	r0, r6
 8100bf0:	e709      	b.n	8100a06 <__udivmoddi4+0xde>
 8100bf2:	4464      	add	r4, ip
 8100bf4:	3802      	subs	r0, #2
 8100bf6:	e742      	b.n	8100a7e <__udivmoddi4+0x156>

08100bf8 <__aeabi_idiv0>:
 8100bf8:	4770      	bx	lr
 8100bfa:	bf00      	nop

08100bfc <SystemInit>:
  *         configuration.
  * @param  None
  * @retval None
  */
void SystemInit (void)
{
 8100bfc:	b480      	push	{r7}
 8100bfe:	af00      	add	r7, sp, #0
  /* FPU settings ------------------------------------------------------------*/
  #if (__FPU_PRESENT == 1) && (__FPU_USED == 1)
    SCB->CPACR |= ((3UL << (10*2))|(3UL << (11*2)));  /* set CP10 and CP11 Full Access */
 8100c00:	4b09      	ldr	r3, [pc, #36]	; (8100c28 <SystemInit+0x2c>)
 8100c02:	f8d3 3088 	ldr.w	r3, [r3, #136]	; 0x88
 8100c06:	4a08      	ldr	r2, [pc, #32]	; (8100c28 <SystemInit+0x2c>)
 8100c08:	f443 0370 	orr.w	r3, r3, #15728640	; 0xf00000
 8100c0c:	f8c2 3088 	str.w	r3, [r2, #136]	; 0x88
  #endif

    /*SEVONPEND enabled so that an interrupt coming from the CPU(n) interrupt signal is
     detectable by the CPU after a WFI/WFE instruction.*/
 SCB->SCR |= SCB_SCR_SEVONPEND_Msk;
 8100c10:	4b05      	ldr	r3, [pc, #20]	; (8100c28 <SystemInit+0x2c>)
 8100c12:	691b      	ldr	r3, [r3, #16]
 8100c14:	4a04      	ldr	r2, [pc, #16]	; (8100c28 <SystemInit+0x2c>)
 8100c16:	f043 0310 	orr.w	r3, r3, #16
 8100c1a:	6113      	str	r3, [r2, #16]
#endif /* USER_VECT_TAB_ADDRESS */

#else
#error Please #define CORE_CM4 or CORE_CM7
#endif /* CORE_CM4 */
}
 8100c1c:	bf00      	nop
 8100c1e:	46bd      	mov	sp, r7
 8100c20:	f85d 7b04 	ldr.w	r7, [sp], #4
 8100c24:	4770      	bx	lr
 8100c26:	bf00      	nop
 8100c28:	e000ed00 	.word	0xe000ed00

08100c2c <start_PWM>:
#include "level_2/init_CM4.h"


void start_PWM(void)
/* start_PWM: Function which initialises the PWM TIMERs 2,13,14. */
{
 8100c2c:	b580      	push	{r7, lr}
 8100c2e:	af00      	add	r7, sp, #0
	HAL_TIM_PWM_Start(&htim13, TIM_CHANNEL_1);
 8100c30:	2100      	movs	r1, #0
 8100c32:	4808      	ldr	r0, [pc, #32]	; (8100c54 <start_PWM+0x28>)
 8100c34:	f006 fb56 	bl	81072e4 <HAL_TIM_PWM_Start>
	HAL_TIM_PWM_Start(&htim14, TIM_CHANNEL_1);
 8100c38:	2100      	movs	r1, #0
 8100c3a:	4807      	ldr	r0, [pc, #28]	; (8100c58 <start_PWM+0x2c>)
 8100c3c:	f006 fb52 	bl	81072e4 <HAL_TIM_PWM_Start>
	HAL_TIM_PWM_Start(&htim2, TIM_CHANNEL_3);
 8100c40:	2108      	movs	r1, #8
 8100c42:	4806      	ldr	r0, [pc, #24]	; (8100c5c <start_PWM+0x30>)
 8100c44:	f006 fb4e 	bl	81072e4 <HAL_TIM_PWM_Start>
	HAL_TIM_PWM_Start(&htim2, TIM_CHANNEL_4);
 8100c48:	210c      	movs	r1, #12
 8100c4a:	4804      	ldr	r0, [pc, #16]	; (8100c5c <start_PWM+0x30>)
 8100c4c:	f006 fb4a 	bl	81072e4 <HAL_TIM_PWM_Start>
}
 8100c50:	bf00      	nop
 8100c52:	bd80      	pop	{r7, pc}
 8100c54:	10000210 	.word	0x10000210
 8100c58:	1000025c 	.word	0x1000025c
 8100c5c:	1000012c 	.word	0x1000012c

08100c60 <init_Movement>:

void init_Movement(void)
/* start_Movement: Function which initialises the motors and servos */
{
 8100c60:	b580      	push	{r7, lr}
 8100c62:	af00      	add	r7, sp, #0
	initMotors();
 8100c64:	f000 f82c 	bl	8100cc0 <initMotors>
	set_Enable_Power();
 8100c68:	f001 f8d4 	bl	8101e14 <set_Enable_Power>
	start_PWM();
 8100c6c:	f7ff ffde 	bl	8100c2c <start_PWM>
}
 8100c70:	bf00      	nop
 8100c72:	bd80      	pop	{r7, pc}

08100c74 <init_MX_init>:

void init_MX_init(void)
/* start_MX_init: Function which initialises the STM32H peripherals */
{
 8100c74:	b580      	push	{r7, lr}
 8100c76:	af00      	add	r7, sp, #0
	MX_ADC1_Init();
 8100c78:	f000 fdac 	bl	81017d4 <MX_ADC1_Init>
	MX_TIM2_Init();
 8100c7c:	f001 f904 	bl	8101e88 <MX_TIM2_Init>
	MX_TIM3_Init();
 8100c80:	f001 f966 	bl	8101f50 <MX_TIM3_Init>
	MX_TIM4_Init();
 8100c84:	f001 f9ba 	bl	8101ffc <MX_TIM4_Init>
	MX_TIM13_Init();
 8100c88:	f001 fa0e 	bl	81020a8 <MX_TIM13_Init>
	MX_TIM14_Init();
 8100c8c:	f001 fa5a 	bl	8102144 <MX_TIM14_Init>
}
 8100c90:	bf00      	nop
 8100c92:	bd80      	pop	{r7, pc}

08100c94 <init_Start_Up>:
/* init_Start_Up: Function to initialise the whole system and set inital values to PWMs
 *	The microcontroller peripherals. The Motors and Servos.
 *
 *	Homes the servos. TODO: Home the motors
 */
{
 8100c94:	b580      	push	{r7, lr}
 8100c96:	af00      	add	r7, sp, #0
	init_MX_init();
 8100c98:	f7ff ffec 	bl	8100c74 <init_MX_init>
	init_Movement();
 8100c9c:	f7ff ffe0 	bl	8100c60 <init_Movement>

	HomeMotors(1, 1);
 8100ca0:	2101      	movs	r1, #1
 8100ca2:	2001      	movs	r0, #1
 8100ca4:	f000 f837 	bl	8100d16 <HomeMotors>

	set_Slide_Servo(SLIDE_CLOSED); 		// part of homing procedure
 8100ca8:	eeb7 0a00 	vmov.f32	s0, #112	; 0x3f800000  1.0
 8100cac:	f000 fb50 	bl	8101350 <set_Slide_Servo>
	set_Rotate_Servo(ROTATE_NEUTRAL); 	// part of homing procedure
 8100cb0:	ed9f 0a02 	vldr	s0, [pc, #8]	; 8100cbc <init_Start_Up+0x28>
 8100cb4:	f000 fb16 	bl	81012e4 <set_Rotate_Servo>
}
 8100cb8:	bf00      	nop
 8100cba:	bd80      	pop	{r7, pc}
 8100cbc:	40a9999a 	.word	0x40a9999a

08100cc0 <initMotors>:
 *      Author: Pascal
 */
#include "level_3/motor_master.h"

void initMotors()
{
 8100cc0:	b580      	push	{r7, lr}
 8100cc2:	af00      	add	r7, sp, #0
	initMotorX();
 8100cc4:	f000 f842 	bl	8100d4c <initMotorX>
	initMotorZ();
 8100cc8:	f000 f99e 	bl	8101008 <initMotorZ>
}
 8100ccc:	bf00      	nop
 8100cce:	bd80      	pop	{r7, pc}

08100cd0 <MoveToPos>:

uint8_t MoveToPos(int16_t posX, int16_t posZ)
{
 8100cd0:	b580      	push	{r7, lr}
 8100cd2:	b082      	sub	sp, #8
 8100cd4:	af00      	add	r7, sp, #0
 8100cd6:	4603      	mov	r3, r0
 8100cd8:	460a      	mov	r2, r1
 8100cda:	80fb      	strh	r3, [r7, #6]
 8100cdc:	4613      	mov	r3, r2
 8100cde:	80bb      	strh	r3, [r7, #4]
	moveToPosX(posX);
 8100ce0:	f9b7 3006 	ldrsh.w	r3, [r7, #6]
 8100ce4:	4618      	mov	r0, r3
 8100ce6:	f7ff fc9d 	bl	8100624 <__aeabi_i2d>
 8100cea:	4602      	mov	r2, r0
 8100cec:	460b      	mov	r3, r1
 8100cee:	ec43 2b10 	vmov	d0, r2, r3
 8100cf2:	f000 f87f 	bl	8100df4 <moveToPosX>
	moveToPosZ(posZ);
 8100cf6:	f9b7 3004 	ldrsh.w	r3, [r7, #4]
 8100cfa:	4618      	mov	r0, r3
 8100cfc:	f7ff fc92 	bl	8100624 <__aeabi_i2d>
 8100d00:	4602      	mov	r2, r0
 8100d02:	460b      	mov	r3, r1
 8100d04:	ec43 2b10 	vmov	d0, r2, r3
 8100d08:	f000 f9d0 	bl	81010ac <moveToPosZ>
	return 1;
 8100d0c:	2301      	movs	r3, #1
}
 8100d0e:	4618      	mov	r0, r3
 8100d10:	3708      	adds	r7, #8
 8100d12:	46bd      	mov	sp, r7
 8100d14:	bd80      	pop	{r7, pc}

08100d16 <HomeMotors>:

uint8_t HomeMotors(uint8_t homeX, uint8_t homeZ)
{
 8100d16:	b580      	push	{r7, lr}
 8100d18:	b082      	sub	sp, #8
 8100d1a:	af00      	add	r7, sp, #0
 8100d1c:	4603      	mov	r3, r0
 8100d1e:	460a      	mov	r2, r1
 8100d20:	71fb      	strb	r3, [r7, #7]
 8100d22:	4613      	mov	r3, r2
 8100d24:	71bb      	strb	r3, [r7, #6]
	if (homeX)
 8100d26:	79fb      	ldrb	r3, [r7, #7]
 8100d28:	2b00      	cmp	r3, #0
 8100d2a:	d001      	beq.n	8100d30 <HomeMotors+0x1a>
	{
		homeMotorX();
 8100d2c:	f000 f820 	bl	8100d70 <homeMotorX>
	}
	HAL_Delay(1000);
 8100d30:	f44f 707a 	mov.w	r0, #1000	; 0x3e8
 8100d34:	f001 fdf6 	bl	8102924 <HAL_Delay>
	if (homeZ)
 8100d38:	79bb      	ldrb	r3, [r7, #6]
 8100d3a:	2b00      	cmp	r3, #0
 8100d3c:	d001      	beq.n	8100d42 <HomeMotors+0x2c>
	{
		homeMotorZ();
 8100d3e:	f000 f973 	bl	8101028 <homeMotorZ>
	}
	return 1;
 8100d42:	2301      	movs	r3, #1
}
 8100d44:	4618      	mov	r0, r3
 8100d46:	3708      	adds	r7, #8
 8100d48:	46bd      	mov	sp, r7
 8100d4a:	bd80      	pop	{r7, pc}

08100d4c <initMotorX>:
uint8_t i_X = 0;
uint8_t once_X = 1;

void initMotorX()
/* Initialises the necessary timers for motor X */
{
 8100d4c:	b580      	push	{r7, lr}
 8100d4e:	af00      	add	r7, sp, #0
	HAL_TIM_PWM_Start(&htim2, TIM_CHANNEL_3);
 8100d50:	2108      	movs	r1, #8
 8100d52:	4804      	ldr	r0, [pc, #16]	; (8100d64 <initMotorX+0x18>)
 8100d54:	f006 fac6 	bl	81072e4 <HAL_TIM_PWM_Start>
	HAL_TIM_Encoder_Start_IT(&htim3, TIM_CHANNEL_ALL);
 8100d58:	213c      	movs	r1, #60	; 0x3c
 8100d5a:	4803      	ldr	r0, [pc, #12]	; (8100d68 <initMotorX+0x1c>)
 8100d5c:	f006 fc76 	bl	810764c <HAL_TIM_Encoder_Start_IT>
}
 8100d60:	bf00      	nop
 8100d62:	bd80      	pop	{r7, pc}
 8100d64:	1000012c 	.word	0x1000012c
 8100d68:	10000178 	.word	0x10000178
 8100d6c:	00000000 	.word	0x00000000

08100d70 <homeMotorX>:

uint8_t homeMotorX()
/* homeMotorX: Moves the motor to the home position */
{
 8100d70:	b580      	push	{r7, lr}
 8100d72:	af00      	add	r7, sp, #0

	__HAL_TIM_SetCompare(&htim2, TIM_CHANNEL_3, 140); // set PWM of motor
 8100d74:	4b1a      	ldr	r3, [pc, #104]	; (8100de0 <homeMotorX+0x70>)
 8100d76:	681b      	ldr	r3, [r3, #0]
 8100d78:	228c      	movs	r2, #140	; 0x8c
 8100d7a:	63da      	str	r2, [r3, #60]	; 0x3c

	set_Direction_X(); // counter-clockwise  | towards HOME
 8100d7c:	f000 ffea 	bl	8101d54 <set_Direction_X>
	set_Ready_X(); // enables motor X
 8100d80:	f001 f800 	bl	8101d84 <set_Ready_X>

	while (!get_Homing_X())
 8100d84:	bf00      	nop
 8100d86:	f001 f85d 	bl	8101e44 <get_Homing_X>
 8100d8a:	4603      	mov	r3, r0
 8100d8c:	2b00      	cmp	r3, #0
 8100d8e:	d0fa      	beq.n	8100d86 <homeMotorX+0x16>
	{

	}
	__HAL_TIM_SetCompare(&htim2, TIM_CHANNEL_3, 0); // set PWM of motor
 8100d90:	4b13      	ldr	r3, [pc, #76]	; (8100de0 <homeMotorX+0x70>)
 8100d92:	681b      	ldr	r3, [r3, #0]
 8100d94:	2200      	movs	r2, #0
 8100d96:	63da      	str	r2, [r3, #60]	; 0x3c
	reset_Ready_X(); // disables motor
 8100d98:	f001 f800 	bl	8101d9c <reset_Ready_X>
	//HAL_GPIO_WritePin(Ready_X_GPIO_Port, Ready_X_Pin, GPIO_PIN_RESET);
	HAL_Delay(1000);
 8100d9c:	f44f 707a 	mov.w	r0, #1000	; 0x3e8
 8100da0:	f001 fdc0 	bl	8102924 <HAL_Delay>
	/* Initialise variables */
	position_mm_X = 0.0;
 8100da4:	490f      	ldr	r1, [pc, #60]	; (8100de4 <homeMotorX+0x74>)
 8100da6:	f04f 0200 	mov.w	r2, #0
 8100daa:	f04f 0300 	mov.w	r3, #0
 8100dae:	e9c1 2300 	strd	r2, r3, [r1]
	counterX = 0;
 8100db2:	4b0d      	ldr	r3, [pc, #52]	; (8100de8 <homeMotorX+0x78>)
 8100db4:	2200      	movs	r2, #0
 8100db6:	601a      	str	r2, [r3, #0]
	i_X = 0;
 8100db8:	4b0c      	ldr	r3, [pc, #48]	; (8100dec <homeMotorX+0x7c>)
 8100dba:	2200      	movs	r2, #0
 8100dbc:	701a      	strb	r2, [r3, #0]
	__HAL_TIM_SET_COUNTER(&htim3, 0); // reset timer
 8100dbe:	4b0c      	ldr	r3, [pc, #48]	; (8100df0 <homeMotorX+0x80>)
 8100dc0:	681b      	ldr	r3, [r3, #0]
 8100dc2:	2200      	movs	r2, #0
 8100dc4:	625a      	str	r2, [r3, #36]	; 0x24
	moveToPosX(10); // move away from home position
 8100dc6:	ed9f 0b04 	vldr	d0, [pc, #16]	; 8100dd8 <homeMotorX+0x68>
 8100dca:	f000 f813 	bl	8100df4 <moveToPosX>
	return 1;
 8100dce:	2301      	movs	r3, #1
}
 8100dd0:	4618      	mov	r0, r3
 8100dd2:	bd80      	pop	{r7, pc}
 8100dd4:	f3af 8000 	nop.w
 8100dd8:	00000000 	.word	0x00000000
 8100ddc:	40240000 	.word	0x40240000
 8100de0:	1000012c 	.word	0x1000012c
 8100de4:	10000098 	.word	0x10000098
 8100de8:	10000094 	.word	0x10000094
 8100dec:	100000a0 	.word	0x100000a0
 8100df0:	10000178 	.word	0x10000178

08100df4 <moveToPosX>:
/* moveToPosX: Moves the motor to a position X cm away from the home position
 *
 * @param Zpos: Centimetres away from the home position
 *  RANGE Zpos:  TODO: Determine it
 */
{
 8100df4:	b580      	push	{r7, lr}
 8100df6:	b084      	sub	sp, #16
 8100df8:	af00      	add	r7, sp, #0
 8100dfa:	ed87 0b00 	vstr	d0, [r7]
	counterX = __HAL_TIM_GET_COUNTER(&htim3);
 8100dfe:	4b7a      	ldr	r3, [pc, #488]	; (8100fe8 <moveToPosX+0x1f4>)
 8100e00:	681b      	ldr	r3, [r3, #0]
 8100e02:	6a5b      	ldr	r3, [r3, #36]	; 0x24
 8100e04:	4a79      	ldr	r2, [pc, #484]	; (8100fec <moveToPosX+0x1f8>)
 8100e06:	6013      	str	r3, [r2, #0]
	position_mm_X = (double) ((counterX / 3855) + (i_X * 17));
 8100e08:	4b78      	ldr	r3, [pc, #480]	; (8100fec <moveToPosX+0x1f8>)
 8100e0a:	681b      	ldr	r3, [r3, #0]
 8100e0c:	4a78      	ldr	r2, [pc, #480]	; (8100ff0 <moveToPosX+0x1fc>)
 8100e0e:	fba2 2303 	umull	r2, r3, r2, r3
 8100e12:	0ada      	lsrs	r2, r3, #11
 8100e14:	4b77      	ldr	r3, [pc, #476]	; (8100ff4 <moveToPosX+0x200>)
 8100e16:	781b      	ldrb	r3, [r3, #0]
 8100e18:	4619      	mov	r1, r3
 8100e1a:	460b      	mov	r3, r1
 8100e1c:	011b      	lsls	r3, r3, #4
 8100e1e:	440b      	add	r3, r1
 8100e20:	4413      	add	r3, r2
 8100e22:	4618      	mov	r0, r3
 8100e24:	f7ff fbee 	bl	8100604 <__aeabi_ui2d>
 8100e28:	4602      	mov	r2, r0
 8100e2a:	460b      	mov	r3, r1
 8100e2c:	4972      	ldr	r1, [pc, #456]	; (8100ff8 <moveToPosX+0x204>)
 8100e2e:	e9c1 2300 	strd	r2, r3, [r1]
	double delta = Xpos - position_mm_X;
 8100e32:	4b71      	ldr	r3, [pc, #452]	; (8100ff8 <moveToPosX+0x204>)
 8100e34:	e9d3 2300 	ldrd	r2, r3, [r3]
 8100e38:	e9d7 0100 	ldrd	r0, r1, [r7]
 8100e3c:	f7ff faa4 	bl	8100388 <__aeabi_dsub>
 8100e40:	4602      	mov	r2, r0
 8100e42:	460b      	mov	r3, r1
 8100e44:	e9c7 2302 	strd	r2, r3, [r7, #8]

	__HAL_TIM_SetCompare(&htim2, TIM_CHANNEL_3, 120); // slower speed chosen deliberatly (val 140)
 8100e48:	4b6c      	ldr	r3, [pc, #432]	; (8100ffc <moveToPosX+0x208>)
 8100e4a:	681b      	ldr	r3, [r3, #0]
 8100e4c:	2278      	movs	r2, #120	; 0x78
 8100e4e:	63da      	str	r2, [r3, #60]	; 0x3c
	set_Ready_X(); // enable motor
 8100e50:	f000 ff98 	bl	8101d84 <set_Ready_X>
	while (abs(delta) > 2)
 8100e54:	e0ae      	b.n	8100fb4 <moveToPosX+0x1c0>
	{
		if (delta > 0)
 8100e56:	f04f 0200 	mov.w	r2, #0
 8100e5a:	f04f 0300 	mov.w	r3, #0
 8100e5e:	e9d7 0102 	ldrd	r0, r1, [r7, #8]
 8100e62:	f7ff fcc7 	bl	81007f4 <__aeabi_dcmpgt>
 8100e66:	4603      	mov	r3, r0
 8100e68:	2b00      	cmp	r3, #0
 8100e6a:	d002      	beq.n	8100e72 <moveToPosX+0x7e>
		{
			reset_Direction_X(); // clockwise | towards END
 8100e6c:	f000 ff7e 	bl	8101d6c <reset_Direction_X>
 8100e70:	e00d      	b.n	8100e8e <moveToPosX+0x9a>
		}
		else if (delta < 0)
 8100e72:	f04f 0200 	mov.w	r2, #0
 8100e76:	f04f 0300 	mov.w	r3, #0
 8100e7a:	e9d7 0102 	ldrd	r0, r1, [r7, #8]
 8100e7e:	f7ff fc9b 	bl	81007b8 <__aeabi_dcmplt>
 8100e82:	4603      	mov	r3, r0
 8100e84:	2b00      	cmp	r3, #0
 8100e86:	d100      	bne.n	8100e8a <moveToPosX+0x96>
		{
			set_Direction_X();  // counter-clockwise | towards HOME
		}
		else
		{
			break;
 8100e88:	e09f      	b.n	8100fca <moveToPosX+0x1d6>
			set_Direction_X();  // counter-clockwise | towards HOME
 8100e8a:	f000 ff63 	bl	8101d54 <set_Direction_X>
		}
		counterX = __HAL_TIM_GET_COUNTER(&htim3);
 8100e8e:	4b56      	ldr	r3, [pc, #344]	; (8100fe8 <moveToPosX+0x1f4>)
 8100e90:	681b      	ldr	r3, [r3, #0]
 8100e92:	6a5b      	ldr	r3, [r3, #36]	; 0x24
 8100e94:	4a55      	ldr	r2, [pc, #340]	; (8100fec <moveToPosX+0x1f8>)
 8100e96:	6013      	str	r3, [r2, #0]
		if (counterX > 61680 && delta > 0 && once_X)
 8100e98:	4b54      	ldr	r3, [pc, #336]	; (8100fec <moveToPosX+0x1f8>)
 8100e9a:	681b      	ldr	r3, [r3, #0]
 8100e9c:	f24f 02f0 	movw	r2, #61680	; 0xf0f0
 8100ea0:	4293      	cmp	r3, r2
 8100ea2:	d912      	bls.n	8100eca <moveToPosX+0xd6>
 8100ea4:	f04f 0200 	mov.w	r2, #0
 8100ea8:	f04f 0300 	mov.w	r3, #0
 8100eac:	e9d7 0102 	ldrd	r0, r1, [r7, #8]
 8100eb0:	f7ff fca0 	bl	81007f4 <__aeabi_dcmpgt>
 8100eb4:	4603      	mov	r3, r0
 8100eb6:	2b00      	cmp	r3, #0
 8100eb8:	d007      	beq.n	8100eca <moveToPosX+0xd6>
 8100eba:	4b51      	ldr	r3, [pc, #324]	; (8101000 <moveToPosX+0x20c>)
 8100ebc:	781b      	ldrb	r3, [r3, #0]
 8100ebe:	2b00      	cmp	r3, #0
 8100ec0:	d003      	beq.n	8100eca <moveToPosX+0xd6>
		{
			once_X = 0;
 8100ec2:	4b4f      	ldr	r3, [pc, #316]	; (8101000 <moveToPosX+0x20c>)
 8100ec4:	2200      	movs	r2, #0
 8100ec6:	701a      	strb	r2, [r3, #0]
 8100ec8:	e051      	b.n	8100f6e <moveToPosX+0x17a>
		}
		else if (counterX < 3855 && delta > 0 && !once_X)
 8100eca:	4b48      	ldr	r3, [pc, #288]	; (8100fec <moveToPosX+0x1f8>)
 8100ecc:	681b      	ldr	r3, [r3, #0]
 8100ece:	f640 720e 	movw	r2, #3854	; 0xf0e
 8100ed2:	4293      	cmp	r3, r2
 8100ed4:	d818      	bhi.n	8100f08 <moveToPosX+0x114>
 8100ed6:	f04f 0200 	mov.w	r2, #0
 8100eda:	f04f 0300 	mov.w	r3, #0
 8100ede:	e9d7 0102 	ldrd	r0, r1, [r7, #8]
 8100ee2:	f7ff fc87 	bl	81007f4 <__aeabi_dcmpgt>
 8100ee6:	4603      	mov	r3, r0
 8100ee8:	2b00      	cmp	r3, #0
 8100eea:	d00d      	beq.n	8100f08 <moveToPosX+0x114>
 8100eec:	4b44      	ldr	r3, [pc, #272]	; (8101000 <moveToPosX+0x20c>)
 8100eee:	781b      	ldrb	r3, [r3, #0]
 8100ef0:	2b00      	cmp	r3, #0
 8100ef2:	d109      	bne.n	8100f08 <moveToPosX+0x114>
		{
			once_X = 1;
 8100ef4:	4b42      	ldr	r3, [pc, #264]	; (8101000 <moveToPosX+0x20c>)
 8100ef6:	2201      	movs	r2, #1
 8100ef8:	701a      	strb	r2, [r3, #0]
			i_X += 1;
 8100efa:	4b3e      	ldr	r3, [pc, #248]	; (8100ff4 <moveToPosX+0x200>)
 8100efc:	781b      	ldrb	r3, [r3, #0]
 8100efe:	3301      	adds	r3, #1
 8100f00:	b2da      	uxtb	r2, r3
 8100f02:	4b3c      	ldr	r3, [pc, #240]	; (8100ff4 <moveToPosX+0x200>)
 8100f04:	701a      	strb	r2, [r3, #0]
 8100f06:	e032      	b.n	8100f6e <moveToPosX+0x17a>
		}
		else if (counterX < 3855 && delta < 0)
 8100f08:	4b38      	ldr	r3, [pc, #224]	; (8100fec <moveToPosX+0x1f8>)
 8100f0a:	681b      	ldr	r3, [r3, #0]
 8100f0c:	f640 720e 	movw	r2, #3854	; 0xf0e
 8100f10:	4293      	cmp	r3, r2
 8100f12:	d80e      	bhi.n	8100f32 <moveToPosX+0x13e>
 8100f14:	f04f 0200 	mov.w	r2, #0
 8100f18:	f04f 0300 	mov.w	r3, #0
 8100f1c:	e9d7 0102 	ldrd	r0, r1, [r7, #8]
 8100f20:	f7ff fc4a 	bl	81007b8 <__aeabi_dcmplt>
 8100f24:	4603      	mov	r3, r0
 8100f26:	2b00      	cmp	r3, #0
 8100f28:	d003      	beq.n	8100f32 <moveToPosX+0x13e>
		{
			once_X = 0;
 8100f2a:	4b35      	ldr	r3, [pc, #212]	; (8101000 <moveToPosX+0x20c>)
 8100f2c:	2200      	movs	r2, #0
 8100f2e:	701a      	strb	r2, [r3, #0]
 8100f30:	e01d      	b.n	8100f6e <moveToPosX+0x17a>
		}
		else if (counterX > 61680 && delta < 0 && !once_X)
 8100f32:	4b2e      	ldr	r3, [pc, #184]	; (8100fec <moveToPosX+0x1f8>)
 8100f34:	681b      	ldr	r3, [r3, #0]
 8100f36:	f24f 02f0 	movw	r2, #61680	; 0xf0f0
 8100f3a:	4293      	cmp	r3, r2
 8100f3c:	d917      	bls.n	8100f6e <moveToPosX+0x17a>
 8100f3e:	f04f 0200 	mov.w	r2, #0
 8100f42:	f04f 0300 	mov.w	r3, #0
 8100f46:	e9d7 0102 	ldrd	r0, r1, [r7, #8]
 8100f4a:	f7ff fc35 	bl	81007b8 <__aeabi_dcmplt>
 8100f4e:	4603      	mov	r3, r0
 8100f50:	2b00      	cmp	r3, #0
 8100f52:	d00c      	beq.n	8100f6e <moveToPosX+0x17a>
 8100f54:	4b2a      	ldr	r3, [pc, #168]	; (8101000 <moveToPosX+0x20c>)
 8100f56:	781b      	ldrb	r3, [r3, #0]
 8100f58:	2b00      	cmp	r3, #0
 8100f5a:	d108      	bne.n	8100f6e <moveToPosX+0x17a>
		{
			once_X = 1;
 8100f5c:	4b28      	ldr	r3, [pc, #160]	; (8101000 <moveToPosX+0x20c>)
 8100f5e:	2201      	movs	r2, #1
 8100f60:	701a      	strb	r2, [r3, #0]
			i_X -= 1;
 8100f62:	4b24      	ldr	r3, [pc, #144]	; (8100ff4 <moveToPosX+0x200>)
 8100f64:	781b      	ldrb	r3, [r3, #0]
 8100f66:	3b01      	subs	r3, #1
 8100f68:	b2da      	uxtb	r2, r3
 8100f6a:	4b22      	ldr	r3, [pc, #136]	; (8100ff4 <moveToPosX+0x200>)
 8100f6c:	701a      	strb	r2, [r3, #0]
		}
		position_mm_X = (double) ((counterX / 3855) + (i_X * 17));
 8100f6e:	4b1f      	ldr	r3, [pc, #124]	; (8100fec <moveToPosX+0x1f8>)
 8100f70:	681b      	ldr	r3, [r3, #0]
 8100f72:	4a1f      	ldr	r2, [pc, #124]	; (8100ff0 <moveToPosX+0x1fc>)
 8100f74:	fba2 2303 	umull	r2, r3, r2, r3
 8100f78:	0ada      	lsrs	r2, r3, #11
 8100f7a:	4b1e      	ldr	r3, [pc, #120]	; (8100ff4 <moveToPosX+0x200>)
 8100f7c:	781b      	ldrb	r3, [r3, #0]
 8100f7e:	4619      	mov	r1, r3
 8100f80:	460b      	mov	r3, r1
 8100f82:	011b      	lsls	r3, r3, #4
 8100f84:	440b      	add	r3, r1
 8100f86:	4413      	add	r3, r2
 8100f88:	4618      	mov	r0, r3
 8100f8a:	f7ff fb3b 	bl	8100604 <__aeabi_ui2d>
 8100f8e:	4602      	mov	r2, r0
 8100f90:	460b      	mov	r3, r1
 8100f92:	4919      	ldr	r1, [pc, #100]	; (8100ff8 <moveToPosX+0x204>)
 8100f94:	e9c1 2300 	strd	r2, r3, [r1]
		delta = Xpos - position_mm_X;
 8100f98:	4b17      	ldr	r3, [pc, #92]	; (8100ff8 <moveToPosX+0x204>)
 8100f9a:	e9d3 2300 	ldrd	r2, r3, [r3]
 8100f9e:	e9d7 0100 	ldrd	r0, r1, [r7]
 8100fa2:	f7ff f9f1 	bl	8100388 <__aeabi_dsub>
 8100fa6:	4602      	mov	r2, r0
 8100fa8:	460b      	mov	r3, r1
 8100faa:	e9c7 2302 	strd	r2, r3, [r7, #8]
		//		uint8_t send[30];
		//		sprintf(send, "%ld \r\n %d \r\n", position_mm_X, i_X);
		//		ST_LINK_WRITE(send, sizeof(send));
		HAL_Delay(50);
 8100fae:	2032      	movs	r0, #50	; 0x32
 8100fb0:	f001 fcb8 	bl	8102924 <HAL_Delay>
	while (abs(delta) > 2)
 8100fb4:	e9d7 0102 	ldrd	r0, r1, [r7, #8]
 8100fb8:	f7ff fc26 	bl	8100808 <__aeabi_d2iz>
 8100fbc:	4603      	mov	r3, r0
 8100fbe:	2b00      	cmp	r3, #0
 8100fc0:	bfb8      	it	lt
 8100fc2:	425b      	neglt	r3, r3
 8100fc4:	2b02      	cmp	r3, #2
 8100fc6:	f73f af46 	bgt.w	8100e56 <moveToPosX+0x62>
		//		if(i == 200){
		//			__HAL_TIM_SetCompare(&htim2, TIM_CHANNEL_3, y);
		//			i = 0;
		//		}
	}
	__HAL_TIM_SetCompare(&htim2, TIM_CHANNEL_3, 0);
 8100fca:	4b0c      	ldr	r3, [pc, #48]	; (8100ffc <moveToPosX+0x208>)
 8100fcc:	681b      	ldr	r3, [r3, #0]
 8100fce:	2200      	movs	r2, #0
 8100fd0:	63da      	str	r2, [r3, #60]	; 0x3c
	HAL_GPIO_WritePin(Ready_X_GPIO_Port, Ready_X_Pin, GPIO_PIN_RESET);
 8100fd2:	2200      	movs	r2, #0
 8100fd4:	f44f 4100 	mov.w	r1, #32768	; 0x8000
 8100fd8:	480a      	ldr	r0, [pc, #40]	; (8101004 <moveToPosX+0x210>)
 8100fda:	f003 fc99 	bl	8104910 <HAL_GPIO_WritePin>
	return 1;
 8100fde:	2301      	movs	r3, #1
}
 8100fe0:	4618      	mov	r0, r3
 8100fe2:	3710      	adds	r7, #16
 8100fe4:	46bd      	mov	sp, r7
 8100fe6:	bd80      	pop	{r7, pc}
 8100fe8:	10000178 	.word	0x10000178
 8100fec:	10000094 	.word	0x10000094
 8100ff0:	88008801 	.word	0x88008801
 8100ff4:	100000a0 	.word	0x100000a0
 8100ff8:	10000098 	.word	0x10000098
 8100ffc:	1000012c 	.word	0x1000012c
 8101000:	10000008 	.word	0x10000008
 8101004:	58020c00 	.word	0x58020c00

08101008 <initMotorZ>:
uint8_t i_Z = 0;
uint8_t once_Z = 1;

void initMotorZ()
/* Initialises the necessary timers for motor Z */
{
 8101008:	b580      	push	{r7, lr}
 810100a:	af00      	add	r7, sp, #0
	HAL_TIM_PWM_Start(&htim2, TIM_CHANNEL_4);
 810100c:	210c      	movs	r1, #12
 810100e:	4804      	ldr	r0, [pc, #16]	; (8101020 <initMotorZ+0x18>)
 8101010:	f006 f968 	bl	81072e4 <HAL_TIM_PWM_Start>
	HAL_TIM_Encoder_Start_IT(&htim4, TIM_CHANNEL_ALL);
 8101014:	213c      	movs	r1, #60	; 0x3c
 8101016:	4803      	ldr	r0, [pc, #12]	; (8101024 <initMotorZ+0x1c>)
 8101018:	f006 fb18 	bl	810764c <HAL_TIM_Encoder_Start_IT>
}
 810101c:	bf00      	nop
 810101e:	bd80      	pop	{r7, pc}
 8101020:	1000012c 	.word	0x1000012c
 8101024:	100001c4 	.word	0x100001c4

08101028 <homeMotorZ>:

uint8_t homeMotorZ()
/* homeMotorZ: Moves the motor to the home position */
{
 8101028:	b580      	push	{r7, lr}
 810102a:	af00      	add	r7, sp, #0
	__HAL_TIM_SetCompare(&htim2, TIM_CHANNEL_4, 160); // set speed of motor
 810102c:	4b1a      	ldr	r3, [pc, #104]	; (8101098 <homeMotorZ+0x70>)
 810102e:	681b      	ldr	r3, [r3, #0]
 8101030:	22a0      	movs	r2, #160	; 0xa0
 8101032:	641a      	str	r2, [r3, #64]	; 0x40

	set_Direction_Z(); // counter-clockwise | towards HOME
 8101034:	f000 febe 	bl	8101db4 <set_Direction_Z>
	set_Ready_Z(); // enable motor
 8101038:	f000 fed4 	bl	8101de4 <set_Ready_Z>


	while (!get_Homing_Z()) 			// wait until home-switch is hit
 810103c:	bf00      	nop
 810103e:	f000 ff13 	bl	8101e68 <get_Homing_Z>
 8101042:	4603      	mov	r3, r0
 8101044:	2b00      	cmp	r3, #0
 8101046:	d0fa      	beq.n	810103e <homeMotorZ+0x16>
	{

	}
	__HAL_TIM_SetCompare(&htim2, TIM_CHANNEL_4, 200); // set speed of motor
 8101048:	4b13      	ldr	r3, [pc, #76]	; (8101098 <homeMotorZ+0x70>)
 810104a:	681b      	ldr	r3, [r3, #0]
 810104c:	22c8      	movs	r2, #200	; 0xc8
 810104e:	641a      	str	r2, [r3, #64]	; 0x40
	reset_Ready_Z(); //disable motor
 8101050:	f000 fed4 	bl	8101dfc <reset_Ready_Z>
	//HAL_GPIO_WritePin(Ready_Z_GPIO_Port, Ready_Z_Pin, GPIO_PIN_RESET);
	HAL_Delay(1000);
 8101054:	f44f 707a 	mov.w	r0, #1000	; 0x3e8
 8101058:	f001 fc64 	bl	8102924 <HAL_Delay>
	/* Initialise variables */
	position_mm_Z = 0.0;
 810105c:	490f      	ldr	r1, [pc, #60]	; (810109c <homeMotorZ+0x74>)
 810105e:	f04f 0200 	mov.w	r2, #0
 8101062:	f04f 0300 	mov.w	r3, #0
 8101066:	e9c1 2300 	strd	r2, r3, [r1]
	counterZ = 0;
 810106a:	4b0d      	ldr	r3, [pc, #52]	; (81010a0 <homeMotorZ+0x78>)
 810106c:	2200      	movs	r2, #0
 810106e:	601a      	str	r2, [r3, #0]
	i_Z = 0;
 8101070:	4b0c      	ldr	r3, [pc, #48]	; (81010a4 <homeMotorZ+0x7c>)
 8101072:	2200      	movs	r2, #0
 8101074:	701a      	strb	r2, [r3, #0]
	__HAL_TIM_SET_COUNTER(&htim4, 0); // reset timer
 8101076:	4b0c      	ldr	r3, [pc, #48]	; (81010a8 <homeMotorZ+0x80>)
 8101078:	681b      	ldr	r3, [r3, #0]
 810107a:	2200      	movs	r2, #0
 810107c:	625a      	str	r2, [r3, #36]	; 0x24
	moveToPosZ(15); // move away from home position
 810107e:	ed9f 0b04 	vldr	d0, [pc, #16]	; 8101090 <homeMotorZ+0x68>
 8101082:	f000 f813 	bl	81010ac <moveToPosZ>
	return 1;
 8101086:	2301      	movs	r3, #1
}
 8101088:	4618      	mov	r0, r3
 810108a:	bd80      	pop	{r7, pc}
 810108c:	f3af 8000 	nop.w
 8101090:	00000000 	.word	0x00000000
 8101094:	402e0000 	.word	0x402e0000
 8101098:	1000012c 	.word	0x1000012c
 810109c:	100000a8 	.word	0x100000a8
 81010a0:	100000a4 	.word	0x100000a4
 81010a4:	100000b0 	.word	0x100000b0
 81010a8:	100001c4 	.word	0x100001c4

081010ac <moveToPosZ>:
/* moveToPosZ: Moves the motor to a position Z cm away from the home position
 *
 * @param Zpos: Centimetres away from the home position
 *  RANGE Zpos:  1 - 53 cm
 */
{
 81010ac:	b580      	push	{r7, lr}
 81010ae:	b08e      	sub	sp, #56	; 0x38
 81010b0:	af02      	add	r7, sp, #8
 81010b2:	ed87 0b00 	vstr	d0, [r7]
	counterZ = __HAL_TIM_GET_COUNTER(&htim4);
 81010b6:	4b83      	ldr	r3, [pc, #524]	; (81012c4 <moveToPosZ+0x218>)
 81010b8:	681b      	ldr	r3, [r3, #0]
 81010ba:	6a5b      	ldr	r3, [r3, #36]	; 0x24
 81010bc:	4a82      	ldr	r2, [pc, #520]	; (81012c8 <moveToPosZ+0x21c>)
 81010be:	6013      	str	r3, [r2, #0]
	position_mm_Z = (double) ((counterZ / 3855) + (i_Z * 17));
 81010c0:	4b81      	ldr	r3, [pc, #516]	; (81012c8 <moveToPosZ+0x21c>)
 81010c2:	681b      	ldr	r3, [r3, #0]
 81010c4:	4a81      	ldr	r2, [pc, #516]	; (81012cc <moveToPosZ+0x220>)
 81010c6:	fba2 2303 	umull	r2, r3, r2, r3
 81010ca:	0ada      	lsrs	r2, r3, #11
 81010cc:	4b80      	ldr	r3, [pc, #512]	; (81012d0 <moveToPosZ+0x224>)
 81010ce:	781b      	ldrb	r3, [r3, #0]
 81010d0:	4619      	mov	r1, r3
 81010d2:	460b      	mov	r3, r1
 81010d4:	011b      	lsls	r3, r3, #4
 81010d6:	440b      	add	r3, r1
 81010d8:	4413      	add	r3, r2
 81010da:	4618      	mov	r0, r3
 81010dc:	f7ff fa92 	bl	8100604 <__aeabi_ui2d>
 81010e0:	4602      	mov	r2, r0
 81010e2:	460b      	mov	r3, r1
 81010e4:	497b      	ldr	r1, [pc, #492]	; (81012d4 <moveToPosZ+0x228>)
 81010e6:	e9c1 2300 	strd	r2, r3, [r1]
	double delta = Zpos - position_mm_Z;
 81010ea:	4b7a      	ldr	r3, [pc, #488]	; (81012d4 <moveToPosZ+0x228>)
 81010ec:	e9d3 2300 	ldrd	r2, r3, [r3]
 81010f0:	e9d7 0100 	ldrd	r0, r1, [r7]
 81010f4:	f7ff f948 	bl	8100388 <__aeabi_dsub>
 81010f8:	4602      	mov	r2, r0
 81010fa:	460b      	mov	r3, r1
 81010fc:	e9c7 230a 	strd	r2, r3, [r7, #40]	; 0x28

	set_Ready_Z(); // enable motor
 8101100:	f000 fe70 	bl	8101de4 <set_Ready_Z>
	while (abs(delta) > 2)
 8101104:	e0c8      	b.n	8101298 <moveToPosZ+0x1ec>
	{
		if (delta > 0)
 8101106:	f04f 0200 	mov.w	r2, #0
 810110a:	f04f 0300 	mov.w	r3, #0
 810110e:	e9d7 010a 	ldrd	r0, r1, [r7, #40]	; 0x28
 8101112:	f7ff fb6f 	bl	81007f4 <__aeabi_dcmpgt>
 8101116:	4603      	mov	r3, r0
 8101118:	2b00      	cmp	r3, #0
 810111a:	d007      	beq.n	810112c <moveToPosZ+0x80>
		{
			__HAL_TIM_SetCompare(&htim2, TIM_CHANNEL_4, 340); // adjust speed (val 340)
 810111c:	4b6e      	ldr	r3, [pc, #440]	; (81012d8 <moveToPosZ+0x22c>)
 810111e:	681b      	ldr	r3, [r3, #0]
 8101120:	f44f 72aa 	mov.w	r2, #340	; 0x154
 8101124:	641a      	str	r2, [r3, #64]	; 0x40
			reset_Direction_Z(); // clockwise | towards END
 8101126:	f000 fe51 	bl	8101dcc <reset_Direction_Z>
 810112a:	e011      	b.n	8101150 <moveToPosZ+0xa4>
		}
		else if (delta < 0)
 810112c:	f04f 0200 	mov.w	r2, #0
 8101130:	f04f 0300 	mov.w	r3, #0
 8101134:	e9d7 010a 	ldrd	r0, r1, [r7, #40]	; 0x28
 8101138:	f7ff fb3e 	bl	81007b8 <__aeabi_dcmplt>
 810113c:	4603      	mov	r3, r0
 810113e:	2b00      	cmp	r3, #0
 8101140:	d100      	bne.n	8101144 <moveToPosZ+0x98>
			__HAL_TIM_SetCompare(&htim2, TIM_CHANNEL_4, 100); // adjust speed (val 120)
			set_Direction_Z(); // counter-clockwise | towards HOME
		}
		else
		{
			break;
 8101142:	e0b4      	b.n	81012ae <moveToPosZ+0x202>
			__HAL_TIM_SetCompare(&htim2, TIM_CHANNEL_4, 100); // adjust speed (val 120)
 8101144:	4b64      	ldr	r3, [pc, #400]	; (81012d8 <moveToPosZ+0x22c>)
 8101146:	681b      	ldr	r3, [r3, #0]
 8101148:	2264      	movs	r2, #100	; 0x64
 810114a:	641a      	str	r2, [r3, #64]	; 0x40
			set_Direction_Z(); // counter-clockwise | towards HOME
 810114c:	f000 fe32 	bl	8101db4 <set_Direction_Z>
		}
		counterZ = __HAL_TIM_GET_COUNTER(&htim4);
 8101150:	4b5c      	ldr	r3, [pc, #368]	; (81012c4 <moveToPosZ+0x218>)
 8101152:	681b      	ldr	r3, [r3, #0]
 8101154:	6a5b      	ldr	r3, [r3, #36]	; 0x24
 8101156:	4a5c      	ldr	r2, [pc, #368]	; (81012c8 <moveToPosZ+0x21c>)
 8101158:	6013      	str	r3, [r2, #0]
		if (counterZ > 61680 && delta > 0 && once_Z)
 810115a:	4b5b      	ldr	r3, [pc, #364]	; (81012c8 <moveToPosZ+0x21c>)
 810115c:	681b      	ldr	r3, [r3, #0]
 810115e:	f24f 02f0 	movw	r2, #61680	; 0xf0f0
 8101162:	4293      	cmp	r3, r2
 8101164:	d912      	bls.n	810118c <moveToPosZ+0xe0>
 8101166:	f04f 0200 	mov.w	r2, #0
 810116a:	f04f 0300 	mov.w	r3, #0
 810116e:	e9d7 010a 	ldrd	r0, r1, [r7, #40]	; 0x28
 8101172:	f7ff fb3f 	bl	81007f4 <__aeabi_dcmpgt>
 8101176:	4603      	mov	r3, r0
 8101178:	2b00      	cmp	r3, #0
 810117a:	d007      	beq.n	810118c <moveToPosZ+0xe0>
 810117c:	4b57      	ldr	r3, [pc, #348]	; (81012dc <moveToPosZ+0x230>)
 810117e:	781b      	ldrb	r3, [r3, #0]
 8101180:	2b00      	cmp	r3, #0
 8101182:	d003      	beq.n	810118c <moveToPosZ+0xe0>
		{
			once_Z = 0;
 8101184:	4b55      	ldr	r3, [pc, #340]	; (81012dc <moveToPosZ+0x230>)
 8101186:	2200      	movs	r2, #0
 8101188:	701a      	strb	r2, [r3, #0]
 810118a:	e051      	b.n	8101230 <moveToPosZ+0x184>
		}
		else if (counterZ < 3855 && delta > 0 && !once_Z)
 810118c:	4b4e      	ldr	r3, [pc, #312]	; (81012c8 <moveToPosZ+0x21c>)
 810118e:	681b      	ldr	r3, [r3, #0]
 8101190:	f640 720e 	movw	r2, #3854	; 0xf0e
 8101194:	4293      	cmp	r3, r2
 8101196:	d818      	bhi.n	81011ca <moveToPosZ+0x11e>
 8101198:	f04f 0200 	mov.w	r2, #0
 810119c:	f04f 0300 	mov.w	r3, #0
 81011a0:	e9d7 010a 	ldrd	r0, r1, [r7, #40]	; 0x28
 81011a4:	f7ff fb26 	bl	81007f4 <__aeabi_dcmpgt>
 81011a8:	4603      	mov	r3, r0
 81011aa:	2b00      	cmp	r3, #0
 81011ac:	d00d      	beq.n	81011ca <moveToPosZ+0x11e>
 81011ae:	4b4b      	ldr	r3, [pc, #300]	; (81012dc <moveToPosZ+0x230>)
 81011b0:	781b      	ldrb	r3, [r3, #0]
 81011b2:	2b00      	cmp	r3, #0
 81011b4:	d109      	bne.n	81011ca <moveToPosZ+0x11e>
		{
			once_Z = 1;
 81011b6:	4b49      	ldr	r3, [pc, #292]	; (81012dc <moveToPosZ+0x230>)
 81011b8:	2201      	movs	r2, #1
 81011ba:	701a      	strb	r2, [r3, #0]
			i_Z += 1;
 81011bc:	4b44      	ldr	r3, [pc, #272]	; (81012d0 <moveToPosZ+0x224>)
 81011be:	781b      	ldrb	r3, [r3, #0]
 81011c0:	3301      	adds	r3, #1
 81011c2:	b2da      	uxtb	r2, r3
 81011c4:	4b42      	ldr	r3, [pc, #264]	; (81012d0 <moveToPosZ+0x224>)
 81011c6:	701a      	strb	r2, [r3, #0]
 81011c8:	e032      	b.n	8101230 <moveToPosZ+0x184>
		}
		else if (counterZ < 3855 && delta < 0)
 81011ca:	4b3f      	ldr	r3, [pc, #252]	; (81012c8 <moveToPosZ+0x21c>)
 81011cc:	681b      	ldr	r3, [r3, #0]
 81011ce:	f640 720e 	movw	r2, #3854	; 0xf0e
 81011d2:	4293      	cmp	r3, r2
 81011d4:	d80e      	bhi.n	81011f4 <moveToPosZ+0x148>
 81011d6:	f04f 0200 	mov.w	r2, #0
 81011da:	f04f 0300 	mov.w	r3, #0
 81011de:	e9d7 010a 	ldrd	r0, r1, [r7, #40]	; 0x28
 81011e2:	f7ff fae9 	bl	81007b8 <__aeabi_dcmplt>
 81011e6:	4603      	mov	r3, r0
 81011e8:	2b00      	cmp	r3, #0
 81011ea:	d003      	beq.n	81011f4 <moveToPosZ+0x148>
		{
			once_Z = 0;
 81011ec:	4b3b      	ldr	r3, [pc, #236]	; (81012dc <moveToPosZ+0x230>)
 81011ee:	2200      	movs	r2, #0
 81011f0:	701a      	strb	r2, [r3, #0]
 81011f2:	e01d      	b.n	8101230 <moveToPosZ+0x184>
		}
		else if (counterZ > 61680 && delta < 0 && !once_Z)
 81011f4:	4b34      	ldr	r3, [pc, #208]	; (81012c8 <moveToPosZ+0x21c>)
 81011f6:	681b      	ldr	r3, [r3, #0]
 81011f8:	f24f 02f0 	movw	r2, #61680	; 0xf0f0
 81011fc:	4293      	cmp	r3, r2
 81011fe:	d917      	bls.n	8101230 <moveToPosZ+0x184>
 8101200:	f04f 0200 	mov.w	r2, #0
 8101204:	f04f 0300 	mov.w	r3, #0
 8101208:	e9d7 010a 	ldrd	r0, r1, [r7, #40]	; 0x28
 810120c:	f7ff fad4 	bl	81007b8 <__aeabi_dcmplt>
 8101210:	4603      	mov	r3, r0
 8101212:	2b00      	cmp	r3, #0
 8101214:	d00c      	beq.n	8101230 <moveToPosZ+0x184>
 8101216:	4b31      	ldr	r3, [pc, #196]	; (81012dc <moveToPosZ+0x230>)
 8101218:	781b      	ldrb	r3, [r3, #0]
 810121a:	2b00      	cmp	r3, #0
 810121c:	d108      	bne.n	8101230 <moveToPosZ+0x184>
		{
			once_Z = 1;
 810121e:	4b2f      	ldr	r3, [pc, #188]	; (81012dc <moveToPosZ+0x230>)
 8101220:	2201      	movs	r2, #1
 8101222:	701a      	strb	r2, [r3, #0]
			i_Z -= 1;
 8101224:	4b2a      	ldr	r3, [pc, #168]	; (81012d0 <moveToPosZ+0x224>)
 8101226:	781b      	ldrb	r3, [r3, #0]
 8101228:	3b01      	subs	r3, #1
 810122a:	b2da      	uxtb	r2, r3
 810122c:	4b28      	ldr	r3, [pc, #160]	; (81012d0 <moveToPosZ+0x224>)
 810122e:	701a      	strb	r2, [r3, #0]
		}
		position_mm_Z = (double) ((counterZ / 3855) + (i_Z * 17));
 8101230:	4b25      	ldr	r3, [pc, #148]	; (81012c8 <moveToPosZ+0x21c>)
 8101232:	681b      	ldr	r3, [r3, #0]
 8101234:	4a25      	ldr	r2, [pc, #148]	; (81012cc <moveToPosZ+0x220>)
 8101236:	fba2 2303 	umull	r2, r3, r2, r3
 810123a:	0ada      	lsrs	r2, r3, #11
 810123c:	4b24      	ldr	r3, [pc, #144]	; (81012d0 <moveToPosZ+0x224>)
 810123e:	781b      	ldrb	r3, [r3, #0]
 8101240:	4619      	mov	r1, r3
 8101242:	460b      	mov	r3, r1
 8101244:	011b      	lsls	r3, r3, #4
 8101246:	440b      	add	r3, r1
 8101248:	4413      	add	r3, r2
 810124a:	4618      	mov	r0, r3
 810124c:	f7ff f9da 	bl	8100604 <__aeabi_ui2d>
 8101250:	4602      	mov	r2, r0
 8101252:	460b      	mov	r3, r1
 8101254:	491f      	ldr	r1, [pc, #124]	; (81012d4 <moveToPosZ+0x228>)
 8101256:	e9c1 2300 	strd	r2, r3, [r1]
		delta = Zpos - position_mm_Z;
 810125a:	4b1e      	ldr	r3, [pc, #120]	; (81012d4 <moveToPosZ+0x228>)
 810125c:	e9d3 2300 	ldrd	r2, r3, [r3]
 8101260:	e9d7 0100 	ldrd	r0, r1, [r7]
 8101264:	f7ff f890 	bl	8100388 <__aeabi_dsub>
 8101268:	4602      	mov	r2, r0
 810126a:	460b      	mov	r3, r1
 810126c:	e9c7 230a 	strd	r2, r3, [r7, #40]	; 0x28
		uint8_t send[30];
		sprintf(send, "%f \r\n %u \r\n", position_mm_Z, i_Z);
 8101270:	4b18      	ldr	r3, [pc, #96]	; (81012d4 <moveToPosZ+0x228>)
 8101272:	e9d3 2300 	ldrd	r2, r3, [r3]
 8101276:	4916      	ldr	r1, [pc, #88]	; (81012d0 <moveToPosZ+0x224>)
 8101278:	7809      	ldrb	r1, [r1, #0]
 810127a:	f107 0008 	add.w	r0, r7, #8
 810127e:	9100      	str	r1, [sp, #0]
 8101280:	4917      	ldr	r1, [pc, #92]	; (81012e0 <moveToPosZ+0x234>)
 8101282:	f008 f8fb 	bl	810947c <siprintf>
		ST_LINK_WRITE(send, sizeof(send));
 8101286:	f107 0308 	add.w	r3, r7, #8
 810128a:	211e      	movs	r1, #30
 810128c:	4618      	mov	r0, r3
 810128e:	f001 fa57 	bl	8102740 <ST_LINK_WRITE>
		HAL_Delay(50);
 8101292:	2032      	movs	r0, #50	; 0x32
 8101294:	f001 fb46 	bl	8102924 <HAL_Delay>
	while (abs(delta) > 2)
 8101298:	e9d7 010a 	ldrd	r0, r1, [r7, #40]	; 0x28
 810129c:	f7ff fab4 	bl	8100808 <__aeabi_d2iz>
 81012a0:	4603      	mov	r3, r0
 81012a2:	2b00      	cmp	r3, #0
 81012a4:	bfb8      	it	lt
 81012a6:	425b      	neglt	r3, r3
 81012a8:	2b02      	cmp	r3, #2
 81012aa:	f73f af2c 	bgt.w	8101106 <moveToPosZ+0x5a>
		//		if(i == 200){
		//			__HAL_TIM_SetCompare(&htim2, TIM_CHANNEL_4, y);
		//			i = 0;
		//		}
	}
	reset_Direction_Z();
 81012ae:	f000 fd8d 	bl	8101dcc <reset_Direction_Z>
	__HAL_TIM_SetCompare(&htim2, TIM_CHANNEL_4, 200);
 81012b2:	4b09      	ldr	r3, [pc, #36]	; (81012d8 <moveToPosZ+0x22c>)
 81012b4:	681b      	ldr	r3, [r3, #0]
 81012b6:	22c8      	movs	r2, #200	; 0xc8
 81012b8:	641a      	str	r2, [r3, #64]	; 0x40
	return 1;
 81012ba:	2301      	movs	r3, #1
}
 81012bc:	4618      	mov	r0, r3
 81012be:	3730      	adds	r7, #48	; 0x30
 81012c0:	46bd      	mov	sp, r7
 81012c2:	bd80      	pop	{r7, pc}
 81012c4:	100001c4 	.word	0x100001c4
 81012c8:	100000a4 	.word	0x100000a4
 81012cc:	88008801 	.word	0x88008801
 81012d0:	100000b0 	.word	0x100000b0
 81012d4:	100000a8 	.word	0x100000a8
 81012d8:	1000012c 	.word	0x1000012c
 81012dc:	10000009 	.word	0x10000009
 81012e0:	08109d8c 	.word	0x08109d8c

081012e4 <set_Rotate_Servo>:
/* set_Rotate_Servo: Sets the angle of the servo controlling the end-effector rotator
 *
 * @param angle: Angle of rotation in degrees
 * Acceptable values between 1 - 23 degrees
 */
{
 81012e4:	b480      	push	{r7}
 81012e6:	b083      	sub	sp, #12
 81012e8:	af00      	add	r7, sp, #0
 81012ea:	ed87 0a01 	vstr	s0, [r7, #4]
	t_pulse_rotate = 10 * ((uint32_t) angle) + CONTROL_PULSE_MIN; 	// from data sheet of Parallax Standard Servo
 81012ee:	edd7 7a01 	vldr	s15, [r7, #4]
 81012f2:	eefc 7ae7 	vcvt.u32.f32	s15, s15
 81012f6:	ee17 2a90 	vmov	r2, s15
 81012fa:	4613      	mov	r3, r2
 81012fc:	009b      	lsls	r3, r3, #2
 81012fe:	4413      	add	r3, r2
 8101300:	005b      	lsls	r3, r3, #1
 8101302:	f503 731b 	add.w	r3, r3, #620	; 0x26c
 8101306:	4a0d      	ldr	r2, [pc, #52]	; (810133c <set_Rotate_Servo+0x58>)
 8101308:	6013      	str	r3, [r2, #0]
	CCR_value_rotate = (t_pulse_rotate - CONTROL_PULSE_MIN)
			* (TIMER_COUNTER_PERIOD) / (CONTROL_PULSE_RANGE); 		// mapping the values of us to the range of Timer Counter
 810130a:	4b0c      	ldr	r3, [pc, #48]	; (810133c <set_Rotate_Servo+0x58>)
 810130c:	681b      	ldr	r3, [r3, #0]
 810130e:	f64e 2260 	movw	r2, #60000	; 0xea60
 8101312:	fb03 f202 	mul.w	r2, r3, r2
 8101316:	4b0a      	ldr	r3, [pc, #40]	; (8101340 <set_Rotate_Servo+0x5c>)
 8101318:	4413      	add	r3, r2
 810131a:	4a0a      	ldr	r2, [pc, #40]	; (8101344 <set_Rotate_Servo+0x60>)
 810131c:	fba2 2303 	umull	r2, r3, r2, r3
 8101320:	0a9b      	lsrs	r3, r3, #10
	CCR_value_rotate = (t_pulse_rotate - CONTROL_PULSE_MIN)
 8101322:	4a09      	ldr	r2, [pc, #36]	; (8101348 <set_Rotate_Servo+0x64>)
 8101324:	6013      	str	r3, [r2, #0]
	TIM13->CCR1 = CCR_value_rotate; 								// applying value to TIM
 8101326:	4a09      	ldr	r2, [pc, #36]	; (810134c <set_Rotate_Servo+0x68>)
 8101328:	4b07      	ldr	r3, [pc, #28]	; (8101348 <set_Rotate_Servo+0x64>)
 810132a:	681b      	ldr	r3, [r3, #0]
 810132c:	6353      	str	r3, [r2, #52]	; 0x34
}
 810132e:	bf00      	nop
 8101330:	370c      	adds	r7, #12
 8101332:	46bd      	mov	sp, r7
 8101334:	f85d 7b04 	ldr.w	r7, [sp], #4
 8101338:	4770      	bx	lr
 810133a:	bf00      	nop
 810133c:	100000b4 	.word	0x100000b4
 8101340:	fdc85f80 	.word	0xfdc85f80
 8101344:	91a2b3c5 	.word	0x91a2b3c5
 8101348:	100000bc 	.word	0x100000bc
 810134c:	40001c00 	.word	0x40001c00

08101350 <set_Slide_Servo>:
/* set_Slide_Servo: Sets the angle of the servo controlling the board opening slider
 *
 * @param angle: Angle of rotation in degrees
 * Acceptable values between 1 - 25 degrees
 */
{
 8101350:	b480      	push	{r7}
 8101352:	b083      	sub	sp, #12
 8101354:	af00      	add	r7, sp, #0
 8101356:	ed87 0a01 	vstr	s0, [r7, #4]
	t_pulse_slide = 10 * ((uint32_t) angle) + CONTROL_PULSE_MIN; 	// from data sheet of Parallax Standard Servo
 810135a:	edd7 7a01 	vldr	s15, [r7, #4]
 810135e:	eefc 7ae7 	vcvt.u32.f32	s15, s15
 8101362:	ee17 2a90 	vmov	r2, s15
 8101366:	4613      	mov	r3, r2
 8101368:	009b      	lsls	r3, r3, #2
 810136a:	4413      	add	r3, r2
 810136c:	005b      	lsls	r3, r3, #1
 810136e:	f503 731b 	add.w	r3, r3, #620	; 0x26c
 8101372:	4a0d      	ldr	r2, [pc, #52]	; (81013a8 <set_Slide_Servo+0x58>)
 8101374:	6013      	str	r3, [r2, #0]
	CCR_value_slide = (t_pulse_slide - CONTROL_PULSE_MIN)
			* (TIMER_COUNTER_PERIOD) / (CONTROL_PULSE_RANGE); 		// mapping the values of us to the range of Timer Counter
 8101376:	4b0c      	ldr	r3, [pc, #48]	; (81013a8 <set_Slide_Servo+0x58>)
 8101378:	681b      	ldr	r3, [r3, #0]
 810137a:	f64e 2260 	movw	r2, #60000	; 0xea60
 810137e:	fb03 f202 	mul.w	r2, r3, r2
 8101382:	4b0a      	ldr	r3, [pc, #40]	; (81013ac <set_Slide_Servo+0x5c>)
 8101384:	4413      	add	r3, r2
 8101386:	4a0a      	ldr	r2, [pc, #40]	; (81013b0 <set_Slide_Servo+0x60>)
 8101388:	fba2 2303 	umull	r2, r3, r2, r3
 810138c:	0a9b      	lsrs	r3, r3, #10
	CCR_value_slide = (t_pulse_slide - CONTROL_PULSE_MIN)
 810138e:	4a09      	ldr	r2, [pc, #36]	; (81013b4 <set_Slide_Servo+0x64>)
 8101390:	6013      	str	r3, [r2, #0]
	TIM14->CCR1 = CCR_value_slide; 									// applying value to TIM
 8101392:	4a09      	ldr	r2, [pc, #36]	; (81013b8 <set_Slide_Servo+0x68>)
 8101394:	4b07      	ldr	r3, [pc, #28]	; (81013b4 <set_Slide_Servo+0x64>)
 8101396:	681b      	ldr	r3, [r3, #0]
 8101398:	6353      	str	r3, [r2, #52]	; 0x34
}
 810139a:	bf00      	nop
 810139c:	370c      	adds	r7, #12
 810139e:	46bd      	mov	sp, r7
 81013a0:	f85d 7b04 	ldr.w	r7, [sp], #4
 81013a4:	4770      	bx	lr
 81013a6:	bf00      	nop
 81013a8:	100000b8 	.word	0x100000b8
 81013ac:	fdc85f80 	.word	0xfdc85f80
 81013b0:	91a2b3c5 	.word	0x91a2b3c5
 81013b4:	100000c0 	.word	0x100000c0
 81013b8:	40002000 	.word	0x40002000

081013bc <__NVIC_SystemReset>:
/**
  \brief   System Reset
  \details Initiates a system reset request to reset the MCU.
 */
__NO_RETURN __STATIC_INLINE void __NVIC_SystemReset(void)
{
 81013bc:	b480      	push	{r7}
 81013be:	af00      	add	r7, sp, #0
  \details Acts as a special kind of Data Memory Barrier.
           It completes when all explicit memory accesses before this instruction complete.
 */
__STATIC_FORCEINLINE void __DSB(void)
{
  __ASM volatile ("dsb 0xF":::"memory");
 81013c0:	f3bf 8f4f 	dsb	sy
}
 81013c4:	bf00      	nop
  __DSB();                                                          /* Ensure all outstanding memory accesses included
                                                                       buffered write are completed before reset */
  SCB->AIRCR  = (uint32_t)((0x5FAUL << SCB_AIRCR_VECTKEY_Pos)    |
                           (SCB->AIRCR & SCB_AIRCR_PRIGROUP_Msk) |
 81013c6:	4b06      	ldr	r3, [pc, #24]	; (81013e0 <__NVIC_SystemReset+0x24>)
 81013c8:	68db      	ldr	r3, [r3, #12]
 81013ca:	f403 62e0 	and.w	r2, r3, #1792	; 0x700
  SCB->AIRCR  = (uint32_t)((0x5FAUL << SCB_AIRCR_VECTKEY_Pos)    |
 81013ce:	4904      	ldr	r1, [pc, #16]	; (81013e0 <__NVIC_SystemReset+0x24>)
 81013d0:	4b04      	ldr	r3, [pc, #16]	; (81013e4 <__NVIC_SystemReset+0x28>)
 81013d2:	4313      	orrs	r3, r2
 81013d4:	60cb      	str	r3, [r1, #12]
  __ASM volatile ("dsb 0xF":::"memory");
 81013d6:	f3bf 8f4f 	dsb	sy
}
 81013da:	bf00      	nop
                            SCB_AIRCR_SYSRESETREQ_Msk    );         /* Keep priority group unchanged */
  __DSB();                                                          /* Ensure completion of memory access */

  for(;;)                                                           /* wait until reset */
  {
    __NOP();
 81013dc:	bf00      	nop
 81013de:	e7fd      	b.n	81013dc <__NVIC_SystemReset+0x20>
 81013e0:	e000ed00 	.word	0xe000ed00
 81013e4:	05fa0004 	.word	0x05fa0004

081013e8 <main>:
/**
 * @brief  The application entry point.
 * @retval int
 */
int main(void)
{
 81013e8:	b580      	push	{r7, lr}
 81013ea:	b082      	sub	sp, #8
 81013ec:	af00      	add	r7, sp, #0

	/* USER CODE END 1 */

	/* USER CODE BEGIN Boot_Mode_Sequence_1 */
	/*HW semaphore Clock enable*/
	__HAL_RCC_HSEM_CLK_ENABLE();
 81013ee:	4bc0      	ldr	r3, [pc, #768]	; (81016f0 <main+0x308>)
 81013f0:	f8d3 30e0 	ldr.w	r3, [r3, #224]	; 0xe0
 81013f4:	4abe      	ldr	r2, [pc, #760]	; (81016f0 <main+0x308>)
 81013f6:	f043 7300 	orr.w	r3, r3, #33554432	; 0x2000000
 81013fa:	f8c2 30e0 	str.w	r3, [r2, #224]	; 0xe0
 81013fe:	4bbc      	ldr	r3, [pc, #752]	; (81016f0 <main+0x308>)
 8101400:	f8d3 30e0 	ldr.w	r3, [r3, #224]	; 0xe0
 8101404:	f003 7300 	and.w	r3, r3, #33554432	; 0x2000000
 8101408:	603b      	str	r3, [r7, #0]
 810140a:	683b      	ldr	r3, [r7, #0]
	/* Activate HSEM notification for Cortex-M4*/
	HAL_HSEM_ActivateNotification(__HAL_HSEM_SEMID_TO_MASK(HSEM_ID_0));
 810140c:	2001      	movs	r0, #1
 810140e:	f003 fa99 	bl	8104944 <HAL_HSEM_ActivateNotification>
	/*
  Domain D2 goes to STOP mode (Cortex-M4 in deep-sleep) waiting for Cortex-M7 to
  perform system initialization (system clock config, external memory configuration.. )
	 */
	HAL_PWREx_ClearPendingEvent();
 8101412:	f003 fb47 	bl	8104aa4 <HAL_PWREx_ClearPendingEvent>
	HAL_PWREx_EnterSTOPMode(PWR_MAINREGULATOR_ON, PWR_STOPENTRY_WFE, PWR_D2_DOMAIN);
 8101416:	2201      	movs	r2, #1
 8101418:	2102      	movs	r1, #2
 810141a:	2000      	movs	r0, #0
 810141c:	f003 fac8 	bl	81049b0 <HAL_PWREx_EnterSTOPMode>
	/* Clear HSEM flag */
	__HAL_HSEM_CLEAR_FLAG(__HAL_HSEM_SEMID_TO_MASK(HSEM_ID_0));
 8101420:	4bb4      	ldr	r3, [pc, #720]	; (81016f4 <main+0x30c>)
 8101422:	681b      	ldr	r3, [r3, #0]
 8101424:	091b      	lsrs	r3, r3, #4
 8101426:	f003 030f 	and.w	r3, r3, #15
 810142a:	2b07      	cmp	r3, #7
 810142c:	d108      	bne.n	8101440 <main+0x58>
 810142e:	4bb2      	ldr	r3, [pc, #712]	; (81016f8 <main+0x310>)
 8101430:	f8d3 3104 	ldr.w	r3, [r3, #260]	; 0x104
 8101434:	4ab0      	ldr	r2, [pc, #704]	; (81016f8 <main+0x310>)
 8101436:	f043 0301 	orr.w	r3, r3, #1
 810143a:	f8c2 3104 	str.w	r3, [r2, #260]	; 0x104
 810143e:	e007      	b.n	8101450 <main+0x68>
 8101440:	4bad      	ldr	r3, [pc, #692]	; (81016f8 <main+0x310>)
 8101442:	f8d3 3114 	ldr.w	r3, [r3, #276]	; 0x114
 8101446:	4aac      	ldr	r2, [pc, #688]	; (81016f8 <main+0x310>)
 8101448:	f043 0301 	orr.w	r3, r3, #1
 810144c:	f8c2 3114 	str.w	r3, [r2, #276]	; 0x114

	/* USER CODE END Boot_Mode_Sequence_1 */
	/* MCU Configuration--------------------------------------------------------*/

	/* Reset of all peripherals, Initializes the Flash interface and the Systick. */
	HAL_Init();
 8101450:	f001 f9b4 	bl	81027bc <HAL_Init>
	/* USER CODE BEGIN SysInit */

	/* USER CODE END SysInit */

	/* Initialise all configured peripherals */
	MX_GPIO_Init();
 8101454:	f000 fad2 	bl	81019fc <MX_GPIO_Init>
	MX_USART3_UART_Init();
 8101458:	f001 f84c 	bl	81024f4 <MX_USART3_UART_Init>
	/* USER CODE BEGIN 2 */
	init_Start_Up();
 810145c:	f7ff fc1a 	bl	8100c94 <init_Start_Up>
	while (1)
	{
		/* USER CODE END WHILE */

		/* USER CODE BEGIN 3 */
		reset_Valve();
 8101460:	f000 fc54 	bl	8101d0c <reset_Valve>

		// THIS order of opening has to be preserved
		set_Slide_Servo(OPEN_COL_2);
 8101464:	eeb1 0a08 	vmov.f32	s0, #24	; 0x40c00000  6.0
 8101468:	f7ff ff72 	bl	8101350 <set_Slide_Servo>
		HAL_Delay(1000);
 810146c:	f44f 707a 	mov.w	r0, #1000	; 0x3e8
 8101470:	f001 fa58 	bl	8102924 <HAL_Delay>
		set_Slide_Servo(OPEN_COL_6);
 8101474:	eeb1 0a0c 	vmov.f32	s0, #28	; 0x40e00000  7.0
 8101478:	f7ff ff6a 	bl	8101350 <set_Slide_Servo>
		HAL_Delay(1000);
 810147c:	f44f 707a 	mov.w	r0, #1000	; 0x3e8
 8101480:	f001 fa50 	bl	8102924 <HAL_Delay>
		set_Slide_Servo(OPEN_COL_7);
 8101484:	eeb2 0a00 	vmov.f32	s0, #32	; 0x41000000  8.0
 8101488:	f7ff ff62 	bl	8101350 <set_Slide_Servo>
		HAL_Delay(1000);
 810148c:	f44f 707a 	mov.w	r0, #1000	; 0x3e8
 8101490:	f001 fa48 	bl	8102924 <HAL_Delay>
		set_Slide_Servo(OPEN_COL_4);
 8101494:	eeb2 0a04 	vmov.f32	s0, #36	; 0x41200000  10.0
 8101498:	f7ff ff5a 	bl	8101350 <set_Slide_Servo>
		HAL_Delay(1000);
 810149c:	f44f 707a 	mov.w	r0, #1000	; 0x3e8
 81014a0:	f001 fa40 	bl	8102924 <HAL_Delay>
		set_Slide_Servo(OPEN_COL_1);
 81014a4:	eeb2 0a0e 	vmov.f32	s0, #46	; 0x41700000  15.0
 81014a8:	f7ff ff52 	bl	8101350 <set_Slide_Servo>
		HAL_Delay(1000);
 81014ac:	f44f 707a 	mov.w	r0, #1000	; 0x3e8
 81014b0:	f001 fa38 	bl	8102924 <HAL_Delay>
		set_Slide_Servo(OPEN_COL_5);
 81014b4:	eeb3 0a00 	vmov.f32	s0, #48	; 0x41800000  16.0
 81014b8:	f7ff ff4a 	bl	8101350 <set_Slide_Servo>
		HAL_Delay(1000);
 81014bc:	f44f 707a 	mov.w	r0, #1000	; 0x3e8
 81014c0:	f001 fa30 	bl	8102924 <HAL_Delay>
		set_Slide_Servo(OPEN_COL_3);
 81014c4:	eeb3 0a07 	vmov.f32	s0, #55	; 0x41b80000  23.0
 81014c8:	f7ff ff42 	bl	8101350 <set_Slide_Servo>
		HAL_Delay(1000);
 81014cc:	f44f 707a 	mov.w	r0, #1000	; 0x3e8
 81014d0:	f001 fa28 	bl	8102924 <HAL_Delay>
		set_Slide_Servo(SLIDE_OPEN);
 81014d4:	eeb3 0a09 	vmov.f32	s0, #57	; 0x41c80000  25.0
 81014d8:	f7ff ff3a 	bl	8101350 <set_Slide_Servo>
		HAL_Delay(1000);
 81014dc:	f44f 707a 	mov.w	r0, #1000	; 0x3e8
 81014e0:	f001 fa20 	bl	8102924 <HAL_Delay>

		set_Slide_Servo(SLIDE_CLOSED);
 81014e4:	eeb7 0a00 	vmov.f32	s0, #112	; 0x3f800000  1.0
 81014e8:	f7ff ff32 	bl	8101350 <set_Slide_Servo>

		set_Rotate_Servo(ROTATE_NEUTRAL);
 81014ec:	ed9f 0a83 	vldr	s0, [pc, #524]	; 81016fc <main+0x314>
 81014f0:	f7ff fef8 	bl	81012e4 <set_Rotate_Servo>
		HAL_Delay(1000);
 81014f4:	f44f 707a 	mov.w	r0, #1000	; 0x3e8
 81014f8:	f001 fa14 	bl	8102924 <HAL_Delay>
		set_Rotate_Servo(ROTATE_TO_STACK);
 81014fc:	eeb2 0a0a 	vmov.f32	s0, #42	; 0x41500000  13.0
 8101500:	f7ff fef0 	bl	81012e4 <set_Rotate_Servo>
		HAL_Delay(1000);
 8101504:	f44f 707a 	mov.w	r0, #1000	; 0x3e8
 8101508:	f001 fa0c 	bl	8102924 <HAL_Delay>
		set_Rotate_Servo(ROTATE_TO_DROP);
 810150c:	eeb3 0a07 	vmov.f32	s0, #55	; 0x41b80000  23.0
 8101510:	f7ff fee8 	bl	81012e4 <set_Rotate_Servo>
		HAL_Delay(1000);
 8101514:	f44f 707a 	mov.w	r0, #1000	; 0x3e8
 8101518:	f001 fa04 	bl	8102924 <HAL_Delay>
		set_Rotate_Servo(ROTATE_NEUTRAL);
 810151c:	ed9f 0a77 	vldr	s0, [pc, #476]	; 81016fc <main+0x314>
 8101520:	f7ff fee0 	bl	81012e4 <set_Rotate_Servo>

		HAL_Delay(2000);
 8101524:	f44f 60fa 	mov.w	r0, #2000	; 0x7d0
 8101528:	f001 f9fc 	bl	8102924 <HAL_Delay>
		//testing direction X
		moveToPosX(30); // neutral - from Laurens
 810152c:	ed9f 0b64 	vldr	d0, [pc, #400]	; 81016c0 <main+0x2d8>
 8101530:	f7ff fc60 	bl	8100df4 <moveToPosX>
		HAL_Delay(500);
 8101534:	f44f 70fa 	mov.w	r0, #500	; 0x1f4
 8101538:	f001 f9f4 	bl	8102924 <HAL_Delay>
		moveToPosX(40);    // neutral - from Laurens
 810153c:	ed9f 0b62 	vldr	d0, [pc, #392]	; 81016c8 <main+0x2e0>
 8101540:	f7ff fc58 	bl	8100df4 <moveToPosX>
		HAL_Delay(500);
 8101544:	f44f 70fa 	mov.w	r0, #500	; 0x1f4
 8101548:	f001 f9ec 	bl	8102924 <HAL_Delay>
		moveToPosX(20);    // neutral - from Laurens
 810154c:	ed9f 0b60 	vldr	d0, [pc, #384]	; 81016d0 <main+0x2e8>
 8101550:	f7ff fc50 	bl	8100df4 <moveToPosX>
		HAL_Delay(500);
 8101554:	f44f 70fa 	mov.w	r0, #500	; 0x1f4
 8101558:	f001 f9e4 	bl	8102924 <HAL_Delay>
		//testing direction Z
		moveToPosZ(42); // neutral - from Laurens
 810155c:	ed9f 0b5e 	vldr	d0, [pc, #376]	; 81016d8 <main+0x2f0>
 8101560:	f7ff fda4 	bl	81010ac <moveToPosZ>
		HAL_Delay(500);
 8101564:	f44f 70fa 	mov.w	r0, #500	; 0x1f4
 8101568:	f001 f9dc 	bl	8102924 <HAL_Delay>
		moveToPosZ(10); // neutral - from Laurens
 810156c:	ed9f 0b5c 	vldr	d0, [pc, #368]	; 81016e0 <main+0x2f8>
 8101570:	f7ff fd9c 	bl	81010ac <moveToPosZ>
		HAL_Delay(500);
 8101574:	f44f 70fa 	mov.w	r0, #500	; 0x1f4
 8101578:	f001 f9d4 	bl	8102924 <HAL_Delay>
		moveToPosZ(30); // neutral - from Laurens
 810157c:	ed9f 0b50 	vldr	d0, [pc, #320]	; 81016c0 <main+0x2d8>
 8101580:	f7ff fd94 	bl	81010ac <moveToPosZ>
		HAL_Delay(500);
 8101584:	f44f 70fa 	mov.w	r0, #500	; 0x1f4
 8101588:	f001 f9cc 	bl	8102924 <HAL_Delay>



		MoveToPos(46.67, 18);
 810158c:	2112      	movs	r1, #18
 810158e:	202e      	movs	r0, #46	; 0x2e
 8101590:	f7ff fb9e 	bl	8100cd0 <MoveToPos>

		MoveToPos(46.67, 0);
 8101594:	2100      	movs	r1, #0
 8101596:	202e      	movs	r0, #46	; 0x2e
 8101598:	f7ff fb9a 	bl	8100cd0 <MoveToPos>

		HAL_Delay(500);
 810159c:	f44f 70fa 	mov.w	r0, #500	; 0x1f4
 81015a0:	f001 f9c0 	bl	8102924 <HAL_Delay>
		set_Pump();
 81015a4:	f000 fbbe 	bl	8101d24 <set_Pump>
		HAL_Delay(4000);
 81015a8:	f44f 607a 	mov.w	r0, #4000	; 0xfa0
 81015ac:	f001 f9ba 	bl	8102924 <HAL_Delay>
		set_Valve();
 81015b0:	f000 fba0 	bl	8101cf4 <set_Valve>
		while(GetVAC() < 2000){
 81015b4:	bf00      	nop
 81015b6:	f000 f9f5 	bl	81019a4 <GetVAC>
 81015ba:	4603      	mov	r3, r0
 81015bc:	f5b3 6ffa 	cmp.w	r3, #2000	; 0x7d0
 81015c0:	d3f9      	bcc.n	81015b6 <main+0x1ce>

		}
//		reset_Pump();
		MoveToPos(46.67, 18);
 81015c2:	2112      	movs	r1, #18
 81015c4:	202e      	movs	r0, #46	; 0x2e
 81015c6:	f7ff fb83 	bl	8100cd0 <MoveToPos>
		set_Rotate_Servo(0.0);
 81015ca:	ed9f 0a4d 	vldr	s0, [pc, #308]	; 8101700 <main+0x318>
 81015ce:	f7ff fe89 	bl	81012e4 <set_Rotate_Servo>
		HAL_Delay(1000);
 81015d2:	f44f 707a 	mov.w	r0, #1000	; 0x3e8
 81015d6:	f001 f9a5 	bl	8102924 <HAL_Delay>
		reset_Valve();
 81015da:	f000 fb97 	bl	8101d0c <reset_Valve>
		reset_Pump();
 81015de:	f000 fbad 	bl	8101d3c <reset_Pump>
		HAL_Delay(1000);
 81015e2:	f44f 707a 	mov.w	r0, #1000	; 0x3e8
 81015e6:	f001 f99d 	bl	8102924 <HAL_Delay>
		set_Rotate_Servo(0.45);
 81015ea:	ed9f 0a46 	vldr	s0, [pc, #280]	; 8101704 <main+0x31c>
 81015ee:	f7ff fe79 	bl	81012e4 <set_Rotate_Servo>
		HAL_Delay(1000);
 81015f2:	f44f 707a 	mov.w	r0, #1000	; 0x3e8
 81015f6:	f001 f995 	bl	8102924 <HAL_Delay>
		float i = 0.0;
 81015fa:	f04f 0300 	mov.w	r3, #0
 81015fe:	607b      	str	r3, [r7, #4]
		for(i = 0; i<1; i+=0.1){
 8101600:	f04f 0300 	mov.w	r3, #0
 8101604:	607b      	str	r3, [r7, #4]
 8101606:	e04e      	b.n	81016a6 <main+0x2be>
			MoveToPos(46.67, 18);
 8101608:	2112      	movs	r1, #18
 810160a:	202e      	movs	r0, #46	; 0x2e
 810160c:	f7ff fb60 	bl	8100cd0 <MoveToPos>
			MoveToPos(46.67, 0);
 8101610:	2100      	movs	r1, #0
 8101612:	202e      	movs	r0, #46	; 0x2e
 8101614:	f7ff fb5c 	bl	8100cd0 <MoveToPos>
			HAL_Delay(2000);
 8101618:	f44f 60fa 	mov.w	r0, #2000	; 0x7d0
 810161c:	f001 f982 	bl	8102924 <HAL_Delay>
			set_Pump();
 8101620:	f000 fb80 	bl	8101d24 <set_Pump>
			HAL_Delay(4000);
 8101624:	f44f 607a 	mov.w	r0, #4000	; 0xfa0
 8101628:	f001 f97c 	bl	8102924 <HAL_Delay>
			set_Valve();
 810162c:	f000 fb62 	bl	8101cf4 <set_Valve>
			while(GetVAC() < 2000){
 8101630:	bf00      	nop
 8101632:	f000 f9b7 	bl	81019a4 <GetVAC>
 8101636:	4603      	mov	r3, r0
 8101638:	f5b3 6ffa 	cmp.w	r3, #2000	; 0x7d0
 810163c:	d3f9      	bcc.n	8101632 <main+0x24a>

			}
//			reset_Pump();
			MoveToPos(46.67, 18);
 810163e:	2112      	movs	r1, #18
 8101640:	202e      	movs	r0, #46	; 0x2e
 8101642:	f7ff fb45 	bl	8100cd0 <MoveToPos>
			set_Rotate_Servo(0.0);
 8101646:	ed9f 0a2e 	vldr	s0, [pc, #184]	; 8101700 <main+0x318>
 810164a:	f7ff fe4b 	bl	81012e4 <set_Rotate_Servo>
			HAL_Delay(1000);
 810164e:	f44f 707a 	mov.w	r0, #1000	; 0x3e8
 8101652:	f001 f967 	bl	8102924 <HAL_Delay>
			reset_Valve();
 8101656:	f000 fb59 	bl	8101d0c <reset_Valve>
			reset_Pump();
 810165a:	f000 fb6f 	bl	8101d3c <reset_Pump>
			HAL_Delay(1000);
 810165e:	f44f 707a 	mov.w	r0, #1000	; 0x3e8
 8101662:	f001 f95f 	bl	8102924 <HAL_Delay>
			set_Rotate_Servo(0.45);
 8101666:	ed9f 0a27 	vldr	s0, [pc, #156]	; 8101704 <main+0x31c>
 810166a:	f7ff fe3b 	bl	81012e4 <set_Rotate_Servo>
			HAL_Delay(1000);
 810166e:	f44f 707a 	mov.w	r0, #1000	; 0x3e8
 8101672:	f001 f957 	bl	8102924 <HAL_Delay>
			set_Slide_Servo(i);
 8101676:	ed97 0a01 	vldr	s0, [r7, #4]
 810167a:	f7ff fe69 	bl	8101350 <set_Slide_Servo>
			HAL_Delay(3000);
 810167e:	f640 30b8 	movw	r0, #3000	; 0xbb8
 8101682:	f001 f94f 	bl	8102924 <HAL_Delay>
		for(i = 0; i<1; i+=0.1){
 8101686:	6878      	ldr	r0, [r7, #4]
 8101688:	f7fe ffde 	bl	8100648 <__aeabi_f2d>
 810168c:	a316      	add	r3, pc, #88	; (adr r3, 81016e8 <main+0x300>)
 810168e:	e9d3 2300 	ldrd	r2, r3, [r3]
 8101692:	f7fe fe7b 	bl	810038c <__adddf3>
 8101696:	4602      	mov	r2, r0
 8101698:	460b      	mov	r3, r1
 810169a:	4610      	mov	r0, r2
 810169c:	4619      	mov	r1, r3
 810169e:	f7ff f8db 	bl	8100858 <__aeabi_d2f>
 81016a2:	4603      	mov	r3, r0
 81016a4:	607b      	str	r3, [r7, #4]
 81016a6:	edd7 7a01 	vldr	s15, [r7, #4]
 81016aa:	eeb7 7a00 	vmov.f32	s14, #112	; 0x3f800000  1.0
 81016ae:	eef4 7ac7 	vcmpe.f32	s15, s14
 81016b2:	eef1 fa10 	vmrs	APSR_nzcv, fpscr
 81016b6:	d4a7      	bmi.n	8101608 <main+0x220>
		}
		while(1){
 81016b8:	e7fe      	b.n	81016b8 <main+0x2d0>
 81016ba:	bf00      	nop
 81016bc:	f3af 8000 	nop.w
 81016c0:	00000000 	.word	0x00000000
 81016c4:	403e0000 	.word	0x403e0000
 81016c8:	00000000 	.word	0x00000000
 81016cc:	40440000 	.word	0x40440000
 81016d0:	00000000 	.word	0x00000000
 81016d4:	40340000 	.word	0x40340000
 81016d8:	00000000 	.word	0x00000000
 81016dc:	40450000 	.word	0x40450000
 81016e0:	00000000 	.word	0x00000000
 81016e4:	40240000 	.word	0x40240000
 81016e8:	9999999a 	.word	0x9999999a
 81016ec:	3fb99999 	.word	0x3fb99999
 81016f0:	58024400 	.word	0x58024400
 81016f4:	e000ed00 	.word	0xe000ed00
 81016f8:	58026400 	.word	0x58026400
 81016fc:	40a9999a 	.word	0x40a9999a
 8101700:	00000000 	.word	0x00000000
 8101704:	3ee66666 	.word	0x3ee66666

08101708 <Error_Handler>:
/**
 * @brief  This function is executed in case of error occurrence.
 * @retval None
 */
void Error_Handler(void)
{
 8101708:	b580      	push	{r7, lr}
 810170a:	b084      	sub	sp, #16
 810170c:	af00      	add	r7, sp, #0
  __ASM volatile ("cpsid i" : : : "memory");
 810170e:	b672      	cpsid	i
}
 8101710:	bf00      	nop
	/* USER CODE BEGIN Error_Handler_Debug */
	/* User can add his own implementation to report the HAL error return state */
	__disable_irq();

	reset_Enable_Power();
 8101712:	f000 fb8b 	bl	8101e2c <reset_Enable_Power>

	uint8_t send[16];
	sprintf(send, "ERROR, resetting");
 8101716:	463b      	mov	r3, r7
 8101718:	4905      	ldr	r1, [pc, #20]	; (8101730 <Error_Handler+0x28>)
 810171a:	4618      	mov	r0, r3
 810171c:	f007 feae 	bl	810947c <siprintf>
	ST_LINK_WRITE(send, 16);
 8101720:	463b      	mov	r3, r7
 8101722:	2110      	movs	r1, #16
 8101724:	4618      	mov	r0, r3
 8101726:	f001 f80b 	bl	8102740 <ST_LINK_WRITE>
	NVIC_SystemReset();
 810172a:	f7ff fe47 	bl	81013bc <__NVIC_SystemReset>
 810172e:	bf00      	nop
 8101730:	08109d98 	.word	0x08109d98

08101734 <HAL_MspInit>:
/* USER CODE END 0 */
/**
  * Initializes the Global MSP.
  */
void HAL_MspInit(void)
{
 8101734:	b580      	push	{r7, lr}
 8101736:	b082      	sub	sp, #8
 8101738:	af00      	add	r7, sp, #0
  /* USER CODE BEGIN MspInit 0 */

  /* USER CODE END MspInit 0 */

  __HAL_RCC_SYSCFG_CLK_ENABLE();
 810173a:	4b0d      	ldr	r3, [pc, #52]	; (8101770 <HAL_MspInit+0x3c>)
 810173c:	f8d3 30f4 	ldr.w	r3, [r3, #244]	; 0xf4
 8101740:	4a0b      	ldr	r2, [pc, #44]	; (8101770 <HAL_MspInit+0x3c>)
 8101742:	f043 0302 	orr.w	r3, r3, #2
 8101746:	f8c2 30f4 	str.w	r3, [r2, #244]	; 0xf4
 810174a:	4b09      	ldr	r3, [pc, #36]	; (8101770 <HAL_MspInit+0x3c>)
 810174c:	f8d3 30f4 	ldr.w	r3, [r3, #244]	; 0xf4
 8101750:	f003 0302 	and.w	r3, r3, #2
 8101754:	607b      	str	r3, [r7, #4]
 8101756:	687b      	ldr	r3, [r7, #4]

  /* System interrupt init*/

  /* Peripheral interrupt init */
  /* HSEM2_IRQn interrupt configuration */
  HAL_NVIC_SetPriority(HSEM2_IRQn, 0, 0);
 8101758:	2200      	movs	r2, #0
 810175a:	2100      	movs	r1, #0
 810175c:	207e      	movs	r0, #126	; 0x7e
 810175e:	f002 fec6 	bl	81044ee <HAL_NVIC_SetPriority>
  HAL_NVIC_EnableIRQ(HSEM2_IRQn);
 8101762:	207e      	movs	r0, #126	; 0x7e
 8101764:	f002 fedd 	bl	8104522 <HAL_NVIC_EnableIRQ>

  /* USER CODE BEGIN MspInit 1 */

  /* USER CODE END MspInit 1 */
}
 8101768:	bf00      	nop
 810176a:	3708      	adds	r7, #8
 810176c:	46bd      	mov	sp, r7
 810176e:	bd80      	pop	{r7, pc}
 8101770:	58024400 	.word	0x58024400

08101774 <NMI_Handler>:
/******************************************************************************/
/**
  * @brief This function handles Non maskable interrupt.
  */
void NMI_Handler(void)
{
 8101774:	b480      	push	{r7}
 8101776:	af00      	add	r7, sp, #0
  /* USER CODE BEGIN NonMaskableInt_IRQn 0 */

  /* USER CODE END NonMaskableInt_IRQn 0 */
  /* USER CODE BEGIN NonMaskableInt_IRQn 1 */
  while (1)
 8101778:	e7fe      	b.n	8101778 <NMI_Handler+0x4>

0810177a <HardFault_Handler>:

/**
  * @brief This function handles Hard fault interrupt.
  */
void HardFault_Handler(void)
{
 810177a:	b480      	push	{r7}
 810177c:	af00      	add	r7, sp, #0
  /* USER CODE BEGIN HardFault_IRQn 0 */

  /* USER CODE END HardFault_IRQn 0 */
  while (1)
 810177e:	e7fe      	b.n	810177e <HardFault_Handler+0x4>

08101780 <MemManage_Handler>:

/**
  * @brief This function handles Memory management fault.
  */
void MemManage_Handler(void)
{
 8101780:	b480      	push	{r7}
 8101782:	af00      	add	r7, sp, #0
  /* USER CODE BEGIN MemoryManagement_IRQn 0 */

  /* USER CODE END MemoryManagement_IRQn 0 */
  while (1)
 8101784:	e7fe      	b.n	8101784 <MemManage_Handler+0x4>

08101786 <BusFault_Handler>:

/**
  * @brief This function handles Pre-fetch fault, memory access fault.
  */
void BusFault_Handler(void)
{
 8101786:	b480      	push	{r7}
 8101788:	af00      	add	r7, sp, #0
  /* USER CODE BEGIN BusFault_IRQn 0 */

  /* USER CODE END BusFault_IRQn 0 */
  while (1)
 810178a:	e7fe      	b.n	810178a <BusFault_Handler+0x4>

0810178c <UsageFault_Handler>:

/**
  * @brief This function handles Undefined instruction or illegal state.
  */
void UsageFault_Handler(void)
{
 810178c:	b480      	push	{r7}
 810178e:	af00      	add	r7, sp, #0
  /* USER CODE BEGIN UsageFault_IRQn 0 */

  /* USER CODE END UsageFault_IRQn 0 */
  while (1)
 8101790:	e7fe      	b.n	8101790 <UsageFault_Handler+0x4>

08101792 <SVC_Handler>:

/**
  * @brief This function handles System service call via SWI instruction.
  */
void SVC_Handler(void)
{
 8101792:	b480      	push	{r7}
 8101794:	af00      	add	r7, sp, #0

  /* USER CODE END SVCall_IRQn 0 */
  /* USER CODE BEGIN SVCall_IRQn 1 */

  /* USER CODE END SVCall_IRQn 1 */
}
 8101796:	bf00      	nop
 8101798:	46bd      	mov	sp, r7
 810179a:	f85d 7b04 	ldr.w	r7, [sp], #4
 810179e:	4770      	bx	lr

081017a0 <DebugMon_Handler>:

/**
  * @brief This function handles Debug monitor.
  */
void DebugMon_Handler(void)
{
 81017a0:	b480      	push	{r7}
 81017a2:	af00      	add	r7, sp, #0

  /* USER CODE END DebugMonitor_IRQn 0 */
  /* USER CODE BEGIN DebugMonitor_IRQn 1 */

  /* USER CODE END DebugMonitor_IRQn 1 */
}
 81017a4:	bf00      	nop
 81017a6:	46bd      	mov	sp, r7
 81017a8:	f85d 7b04 	ldr.w	r7, [sp], #4
 81017ac:	4770      	bx	lr

081017ae <PendSV_Handler>:

/**
  * @brief This function handles Pendable request for system service.
  */
void PendSV_Handler(void)
{
 81017ae:	b480      	push	{r7}
 81017b0:	af00      	add	r7, sp, #0

  /* USER CODE END PendSV_IRQn 0 */
  /* USER CODE BEGIN PendSV_IRQn 1 */

  /* USER CODE END PendSV_IRQn 1 */
}
 81017b2:	bf00      	nop
 81017b4:	46bd      	mov	sp, r7
 81017b6:	f85d 7b04 	ldr.w	r7, [sp], #4
 81017ba:	4770      	bx	lr

081017bc <SysTick_Handler>:

/**
  * @brief This function handles System tick timer.
  */
void SysTick_Handler(void)
{
 81017bc:	b580      	push	{r7, lr}
 81017be:	af00      	add	r7, sp, #0
  /* USER CODE BEGIN SysTick_IRQn 0 */

  /* USER CODE END SysTick_IRQn 0 */
  HAL_IncTick();
 81017c0:	f001 f890 	bl	81028e4 <HAL_IncTick>
  /* USER CODE BEGIN SysTick_IRQn 1 */

  /* USER CODE END SysTick_IRQn 1 */
}
 81017c4:	bf00      	nop
 81017c6:	bd80      	pop	{r7, pc}

081017c8 <HSEM2_IRQHandler>:

/**
  * @brief This function handles HSEM2 global interrupt.
  */
void HSEM2_IRQHandler(void)
{
 81017c8:	b580      	push	{r7, lr}
 81017ca:	af00      	add	r7, sp, #0
  /* USER CODE BEGIN HSEM2_IRQn 0 */

  /* USER CODE END HSEM2_IRQn 0 */
  HAL_HSEM_IRQHandler();
 81017cc:	f003 f8cc 	bl	8104968 <HAL_HSEM_IRQHandler>
  /* USER CODE BEGIN HSEM2_IRQn 1 */

  /* USER CODE END HSEM2_IRQn 1 */
}
 81017d0:	bf00      	nop
 81017d2:	bd80      	pop	{r7, pc}

081017d4 <MX_ADC1_Init>:

ADC_HandleTypeDef hadc1;

/* ADC1 init function */
void MX_ADC1_Init(void)
{
 81017d4:	b580      	push	{r7, lr}
 81017d6:	b08a      	sub	sp, #40	; 0x28
 81017d8:	af00      	add	r7, sp, #0

  /* USER CODE BEGIN ADC1_Init 0 */

  /* USER CODE END ADC1_Init 0 */

  ADC_MultiModeTypeDef multimode = {0};
 81017da:	f107 031c 	add.w	r3, r7, #28
 81017de:	2200      	movs	r2, #0
 81017e0:	601a      	str	r2, [r3, #0]
 81017e2:	605a      	str	r2, [r3, #4]
 81017e4:	609a      	str	r2, [r3, #8]
  ADC_ChannelConfTypeDef sConfig = {0};
 81017e6:	463b      	mov	r3, r7
 81017e8:	2200      	movs	r2, #0
 81017ea:	601a      	str	r2, [r3, #0]
 81017ec:	605a      	str	r2, [r3, #4]
 81017ee:	609a      	str	r2, [r3, #8]
 81017f0:	60da      	str	r2, [r3, #12]
 81017f2:	611a      	str	r2, [r3, #16]
 81017f4:	615a      	str	r2, [r3, #20]
 81017f6:	619a      	str	r2, [r3, #24]

  /* USER CODE END ADC1_Init 1 */

  /** Common config
  */
  hadc1.Instance = ADC1;
 81017f8:	4b2f      	ldr	r3, [pc, #188]	; (81018b8 <MX_ADC1_Init+0xe4>)
 81017fa:	4a30      	ldr	r2, [pc, #192]	; (81018bc <MX_ADC1_Init+0xe8>)
 81017fc:	601a      	str	r2, [r3, #0]
  hadc1.Init.ClockPrescaler = ADC_CLOCK_ASYNC_DIV1;
 81017fe:	4b2e      	ldr	r3, [pc, #184]	; (81018b8 <MX_ADC1_Init+0xe4>)
 8101800:	2200      	movs	r2, #0
 8101802:	605a      	str	r2, [r3, #4]
  hadc1.Init.Resolution = ADC_RESOLUTION_12B;
 8101804:	4b2c      	ldr	r3, [pc, #176]	; (81018b8 <MX_ADC1_Init+0xe4>)
 8101806:	2208      	movs	r2, #8
 8101808:	609a      	str	r2, [r3, #8]
  hadc1.Init.ScanConvMode = ADC_SCAN_DISABLE;
 810180a:	4b2b      	ldr	r3, [pc, #172]	; (81018b8 <MX_ADC1_Init+0xe4>)
 810180c:	2200      	movs	r2, #0
 810180e:	60da      	str	r2, [r3, #12]
  hadc1.Init.EOCSelection = ADC_EOC_SINGLE_CONV;
 8101810:	4b29      	ldr	r3, [pc, #164]	; (81018b8 <MX_ADC1_Init+0xe4>)
 8101812:	2204      	movs	r2, #4
 8101814:	611a      	str	r2, [r3, #16]
  hadc1.Init.LowPowerAutoWait = DISABLE;
 8101816:	4b28      	ldr	r3, [pc, #160]	; (81018b8 <MX_ADC1_Init+0xe4>)
 8101818:	2200      	movs	r2, #0
 810181a:	751a      	strb	r2, [r3, #20]
  hadc1.Init.ContinuousConvMode = DISABLE;
 810181c:	4b26      	ldr	r3, [pc, #152]	; (81018b8 <MX_ADC1_Init+0xe4>)
 810181e:	2200      	movs	r2, #0
 8101820:	755a      	strb	r2, [r3, #21]
  hadc1.Init.NbrOfConversion = 1;
 8101822:	4b25      	ldr	r3, [pc, #148]	; (81018b8 <MX_ADC1_Init+0xe4>)
 8101824:	2201      	movs	r2, #1
 8101826:	619a      	str	r2, [r3, #24]
  hadc1.Init.DiscontinuousConvMode = DISABLE;
 8101828:	4b23      	ldr	r3, [pc, #140]	; (81018b8 <MX_ADC1_Init+0xe4>)
 810182a:	2200      	movs	r2, #0
 810182c:	771a      	strb	r2, [r3, #28]
  hadc1.Init.ExternalTrigConv = ADC_SOFTWARE_START;
 810182e:	4b22      	ldr	r3, [pc, #136]	; (81018b8 <MX_ADC1_Init+0xe4>)
 8101830:	2200      	movs	r2, #0
 8101832:	625a      	str	r2, [r3, #36]	; 0x24
  hadc1.Init.ExternalTrigConvEdge = ADC_EXTERNALTRIGCONVEDGE_NONE;
 8101834:	4b20      	ldr	r3, [pc, #128]	; (81018b8 <MX_ADC1_Init+0xe4>)
 8101836:	2200      	movs	r2, #0
 8101838:	629a      	str	r2, [r3, #40]	; 0x28
  hadc1.Init.ConversionDataManagement = ADC_CONVERSIONDATA_DR;
 810183a:	4b1f      	ldr	r3, [pc, #124]	; (81018b8 <MX_ADC1_Init+0xe4>)
 810183c:	2200      	movs	r2, #0
 810183e:	62da      	str	r2, [r3, #44]	; 0x2c
  hadc1.Init.Overrun = ADC_OVR_DATA_PRESERVED;
 8101840:	4b1d      	ldr	r3, [pc, #116]	; (81018b8 <MX_ADC1_Init+0xe4>)
 8101842:	2200      	movs	r2, #0
 8101844:	631a      	str	r2, [r3, #48]	; 0x30
  hadc1.Init.LeftBitShift = ADC_LEFTBITSHIFT_NONE;
 8101846:	4b1c      	ldr	r3, [pc, #112]	; (81018b8 <MX_ADC1_Init+0xe4>)
 8101848:	2200      	movs	r2, #0
 810184a:	635a      	str	r2, [r3, #52]	; 0x34
  hadc1.Init.OversamplingMode = DISABLE;
 810184c:	4b1a      	ldr	r3, [pc, #104]	; (81018b8 <MX_ADC1_Init+0xe4>)
 810184e:	2200      	movs	r2, #0
 8101850:	f883 2038 	strb.w	r2, [r3, #56]	; 0x38
  if (HAL_ADC_Init(&hadc1) != HAL_OK)
 8101854:	4818      	ldr	r0, [pc, #96]	; (81018b8 <MX_ADC1_Init+0xe4>)
 8101856:	f001 fac5 	bl	8102de4 <HAL_ADC_Init>
 810185a:	4603      	mov	r3, r0
 810185c:	2b00      	cmp	r3, #0
 810185e:	d001      	beq.n	8101864 <MX_ADC1_Init+0x90>
  {
    Error_Handler();
 8101860:	f7ff ff52 	bl	8101708 <Error_Handler>
  }

  /** Configure the ADC multi-mode
  */
  multimode.Mode = ADC_MODE_INDEPENDENT;
 8101864:	2300      	movs	r3, #0
 8101866:	61fb      	str	r3, [r7, #28]
  if (HAL_ADCEx_MultiModeConfigChannel(&hadc1, &multimode) != HAL_OK)
 8101868:	f107 031c 	add.w	r3, r7, #28
 810186c:	4619      	mov	r1, r3
 810186e:	4812      	ldr	r0, [pc, #72]	; (81018b8 <MX_ADC1_Init+0xe4>)
 8101870:	f002 fc80 	bl	8104174 <HAL_ADCEx_MultiModeConfigChannel>
 8101874:	4603      	mov	r3, r0
 8101876:	2b00      	cmp	r3, #0
 8101878:	d001      	beq.n	810187e <MX_ADC1_Init+0xaa>
  {
    Error_Handler();
 810187a:	f7ff ff45 	bl	8101708 <Error_Handler>
  }

  /** Configure Regular Channel
  */
  sConfig.Channel = ADC_CHANNEL_18;
 810187e:	4b10      	ldr	r3, [pc, #64]	; (81018c0 <MX_ADC1_Init+0xec>)
 8101880:	603b      	str	r3, [r7, #0]
  sConfig.Rank = ADC_REGULAR_RANK_1;
 8101882:	2306      	movs	r3, #6
 8101884:	607b      	str	r3, [r7, #4]
  sConfig.SamplingTime = ADC_SAMPLETIME_1CYCLE_5;
 8101886:	2300      	movs	r3, #0
 8101888:	60bb      	str	r3, [r7, #8]
  sConfig.SingleDiff = ADC_SINGLE_ENDED;
 810188a:	f240 73ff 	movw	r3, #2047	; 0x7ff
 810188e:	60fb      	str	r3, [r7, #12]
  sConfig.OffsetNumber = ADC_OFFSET_NONE;
 8101890:	2304      	movs	r3, #4
 8101892:	613b      	str	r3, [r7, #16]
  sConfig.Offset = 0;
 8101894:	2300      	movs	r3, #0
 8101896:	617b      	str	r3, [r7, #20]
  sConfig.OffsetSignedSaturation = DISABLE;
 8101898:	2300      	movs	r3, #0
 810189a:	767b      	strb	r3, [r7, #25]
  if (HAL_ADC_ConfigChannel(&hadc1, &sConfig) != HAL_OK)
 810189c:	463b      	mov	r3, r7
 810189e:	4619      	mov	r1, r3
 81018a0:	4805      	ldr	r0, [pc, #20]	; (81018b8 <MX_ADC1_Init+0xe4>)
 81018a2:	f001 fe41 	bl	8103528 <HAL_ADC_ConfigChannel>
 81018a6:	4603      	mov	r3, r0
 81018a8:	2b00      	cmp	r3, #0
 81018aa:	d001      	beq.n	81018b0 <MX_ADC1_Init+0xdc>
  {
    Error_Handler();
 81018ac:	f7ff ff2c 	bl	8101708 <Error_Handler>
  }
  /* USER CODE BEGIN ADC1_Init 2 */
  /* USER CODE END ADC1_Init 2 */

}
 81018b0:	bf00      	nop
 81018b2:	3728      	adds	r7, #40	; 0x28
 81018b4:	46bd      	mov	sp, r7
 81018b6:	bd80      	pop	{r7, pc}
 81018b8:	100000c8 	.word	0x100000c8
 81018bc:	40022000 	.word	0x40022000
 81018c0:	4b840000 	.word	0x4b840000

081018c4 <HAL_ADC_MspInit>:

void HAL_ADC_MspInit(ADC_HandleTypeDef* adcHandle)
{
 81018c4:	b580      	push	{r7, lr}
 81018c6:	b0b8      	sub	sp, #224	; 0xe0
 81018c8:	af00      	add	r7, sp, #0
 81018ca:	6078      	str	r0, [r7, #4]

  GPIO_InitTypeDef GPIO_InitStruct = {0};
 81018cc:	f107 03cc 	add.w	r3, r7, #204	; 0xcc
 81018d0:	2200      	movs	r2, #0
 81018d2:	601a      	str	r2, [r3, #0]
 81018d4:	605a      	str	r2, [r3, #4]
 81018d6:	609a      	str	r2, [r3, #8]
 81018d8:	60da      	str	r2, [r3, #12]
 81018da:	611a      	str	r2, [r3, #16]
  RCC_PeriphCLKInitTypeDef PeriphClkInitStruct = {0};
 81018dc:	f107 0310 	add.w	r3, r7, #16
 81018e0:	22bc      	movs	r2, #188	; 0xbc
 81018e2:	2100      	movs	r1, #0
 81018e4:	4618      	mov	r0, r3
 81018e6:	f007 fdc1 	bl	810946c <memset>
  if(adcHandle->Instance==ADC1)
 81018ea:	687b      	ldr	r3, [r7, #4]
 81018ec:	681b      	ldr	r3, [r3, #0]
 81018ee:	4a2a      	ldr	r2, [pc, #168]	; (8101998 <HAL_ADC_MspInit+0xd4>)
 81018f0:	4293      	cmp	r3, r2
 81018f2:	d14c      	bne.n	810198e <HAL_ADC_MspInit+0xca>

  /* USER CODE END ADC1_MspInit 0 */

  /** Initializes the peripherals clock
  */
    PeriphClkInitStruct.PeriphClockSelection = RCC_PERIPHCLK_ADC;
 81018f4:	f44f 2300 	mov.w	r3, #524288	; 0x80000
 81018f8:	613b      	str	r3, [r7, #16]
    PeriphClkInitStruct.PLL2.PLL2M = 1;
 81018fa:	2301      	movs	r3, #1
 81018fc:	617b      	str	r3, [r7, #20]
    PeriphClkInitStruct.PLL2.PLL2N = 19;
 81018fe:	2313      	movs	r3, #19
 8101900:	61bb      	str	r3, [r7, #24]
    PeriphClkInitStruct.PLL2.PLL2P = 128;
 8101902:	2380      	movs	r3, #128	; 0x80
 8101904:	61fb      	str	r3, [r7, #28]
    PeriphClkInitStruct.PLL2.PLL2Q = 2;
 8101906:	2302      	movs	r3, #2
 8101908:	623b      	str	r3, [r7, #32]
    PeriphClkInitStruct.PLL2.PLL2R = 2;
 810190a:	2302      	movs	r3, #2
 810190c:	627b      	str	r3, [r7, #36]	; 0x24
    PeriphClkInitStruct.PLL2.PLL2RGE = RCC_PLL2VCIRANGE_3;
 810190e:	23c0      	movs	r3, #192	; 0xc0
 8101910:	62bb      	str	r3, [r7, #40]	; 0x28
    PeriphClkInitStruct.PLL2.PLL2VCOSEL = RCC_PLL2VCOMEDIUM;
 8101912:	2320      	movs	r3, #32
 8101914:	62fb      	str	r3, [r7, #44]	; 0x2c
    PeriphClkInitStruct.PLL2.PLL2FRACN = 0;
 8101916:	2300      	movs	r3, #0
 8101918:	633b      	str	r3, [r7, #48]	; 0x30
    PeriphClkInitStruct.AdcClockSelection = RCC_ADCCLKSOURCE_PLL2;
 810191a:	2300      	movs	r3, #0
 810191c:	f8c7 30b0 	str.w	r3, [r7, #176]	; 0xb0
    if (HAL_RCCEx_PeriphCLKConfig(&PeriphClkInitStruct) != HAL_OK)
 8101920:	f107 0310 	add.w	r3, r7, #16
 8101924:	4618      	mov	r0, r3
 8101926:	f003 faa3 	bl	8104e70 <HAL_RCCEx_PeriphCLKConfig>
 810192a:	4603      	mov	r3, r0
 810192c:	2b00      	cmp	r3, #0
 810192e:	d001      	beq.n	8101934 <HAL_ADC_MspInit+0x70>
    {
      Error_Handler();
 8101930:	f7ff feea 	bl	8101708 <Error_Handler>
    }

    /* ADC1 clock enable */
    __HAL_RCC_ADC12_CLK_ENABLE();
 8101934:	4b19      	ldr	r3, [pc, #100]	; (810199c <HAL_ADC_MspInit+0xd8>)
 8101936:	f8d3 30d8 	ldr.w	r3, [r3, #216]	; 0xd8
 810193a:	4a18      	ldr	r2, [pc, #96]	; (810199c <HAL_ADC_MspInit+0xd8>)
 810193c:	f043 0320 	orr.w	r3, r3, #32
 8101940:	f8c2 30d8 	str.w	r3, [r2, #216]	; 0xd8
 8101944:	4b15      	ldr	r3, [pc, #84]	; (810199c <HAL_ADC_MspInit+0xd8>)
 8101946:	f8d3 30d8 	ldr.w	r3, [r3, #216]	; 0xd8
 810194a:	f003 0320 	and.w	r3, r3, #32
 810194e:	60fb      	str	r3, [r7, #12]
 8101950:	68fb      	ldr	r3, [r7, #12]

    __HAL_RCC_GPIOA_CLK_ENABLE();
 8101952:	4b12      	ldr	r3, [pc, #72]	; (810199c <HAL_ADC_MspInit+0xd8>)
 8101954:	f8d3 30e0 	ldr.w	r3, [r3, #224]	; 0xe0
 8101958:	4a10      	ldr	r2, [pc, #64]	; (810199c <HAL_ADC_MspInit+0xd8>)
 810195a:	f043 0301 	orr.w	r3, r3, #1
 810195e:	f8c2 30e0 	str.w	r3, [r2, #224]	; 0xe0
 8101962:	4b0e      	ldr	r3, [pc, #56]	; (810199c <HAL_ADC_MspInit+0xd8>)
 8101964:	f8d3 30e0 	ldr.w	r3, [r3, #224]	; 0xe0
 8101968:	f003 0301 	and.w	r3, r3, #1
 810196c:	60bb      	str	r3, [r7, #8]
 810196e:	68bb      	ldr	r3, [r7, #8]
    /**ADC1 GPIO Configuration
    PA4     ------> ADC1_INP18
    */
    GPIO_InitStruct.Pin = Vaccuum_Sensor_Pin;
 8101970:	2310      	movs	r3, #16
 8101972:	f8c7 30cc 	str.w	r3, [r7, #204]	; 0xcc
    GPIO_InitStruct.Mode = GPIO_MODE_ANALOG;
 8101976:	2303      	movs	r3, #3
 8101978:	f8c7 30d0 	str.w	r3, [r7, #208]	; 0xd0
    GPIO_InitStruct.Pull = GPIO_NOPULL;
 810197c:	2300      	movs	r3, #0
 810197e:	f8c7 30d4 	str.w	r3, [r7, #212]	; 0xd4
    HAL_GPIO_Init(Vaccuum_Sensor_GPIO_Port, &GPIO_InitStruct);
 8101982:	f107 03cc 	add.w	r3, r7, #204	; 0xcc
 8101986:	4619      	mov	r1, r3
 8101988:	4805      	ldr	r0, [pc, #20]	; (81019a0 <HAL_ADC_MspInit+0xdc>)
 810198a:	f002 fdf9 	bl	8104580 <HAL_GPIO_Init>

  /* USER CODE BEGIN ADC1_MspInit 1 */

  /* USER CODE END ADC1_MspInit 1 */
  }
}
 810198e:	bf00      	nop
 8101990:	37e0      	adds	r7, #224	; 0xe0
 8101992:	46bd      	mov	sp, r7
 8101994:	bd80      	pop	{r7, pc}
 8101996:	bf00      	nop
 8101998:	40022000 	.word	0x40022000
 810199c:	58024400 	.word	0x58024400
 81019a0:	58020000 	.word	0x58020000

081019a4 <GetVAC>:
  /* USER CODE END ADC1_MspDeInit 1 */
  }
}

/* USER CODE BEGIN 1 */
uint32_t GetVAC(){
 81019a4:	b580      	push	{r7, lr}
 81019a6:	b088      	sub	sp, #32
 81019a8:	af00      	add	r7, sp, #0
	HAL_ADC_Start(&hadc1);
 81019aa:	4811      	ldr	r0, [pc, #68]	; (81019f0 <GetVAC+0x4c>)
 81019ac:	f001 fbbc 	bl	8103128 <HAL_ADC_Start>
	HAL_ADC_PollForConversion(&hadc1, 1);
 81019b0:	2101      	movs	r1, #1
 81019b2:	480f      	ldr	r0, [pc, #60]	; (81019f0 <GetVAC+0x4c>)
 81019b4:	f001 fcb6 	bl	8103324 <HAL_ADC_PollForConversion>
	value = HAL_ADC_GetValue(&hadc1);
 81019b8:	480d      	ldr	r0, [pc, #52]	; (81019f0 <GetVAC+0x4c>)
 81019ba:	f001 fda7 	bl	810350c <HAL_ADC_GetValue>
 81019be:	4603      	mov	r3, r0
 81019c0:	4a0c      	ldr	r2, [pc, #48]	; (81019f4 <GetVAC+0x50>)
 81019c2:	6013      	str	r3, [r2, #0]

	uint8_t send[30];
	sprintf(send, "VAC: %lu \r\n", value);
 81019c4:	4b0b      	ldr	r3, [pc, #44]	; (81019f4 <GetVAC+0x50>)
 81019c6:	681a      	ldr	r2, [r3, #0]
 81019c8:	463b      	mov	r3, r7
 81019ca:	490b      	ldr	r1, [pc, #44]	; (81019f8 <GetVAC+0x54>)
 81019cc:	4618      	mov	r0, r3
 81019ce:	f007 fd55 	bl	810947c <siprintf>
	ST_LINK_WRITE(send, sizeof(send));
 81019d2:	463b      	mov	r3, r7
 81019d4:	211e      	movs	r1, #30
 81019d6:	4618      	mov	r0, r3
 81019d8:	f000 feb2 	bl	8102740 <ST_LINK_WRITE>
	HAL_ADC_Stop(&hadc1);
 81019dc:	4804      	ldr	r0, [pc, #16]	; (81019f0 <GetVAC+0x4c>)
 81019de:	f001 fc6d 	bl	81032bc <HAL_ADC_Stop>

	return value;
 81019e2:	4b04      	ldr	r3, [pc, #16]	; (81019f4 <GetVAC+0x50>)
 81019e4:	681b      	ldr	r3, [r3, #0]
}
 81019e6:	4618      	mov	r0, r3
 81019e8:	3720      	adds	r7, #32
 81019ea:	46bd      	mov	sp, r7
 81019ec:	bd80      	pop	{r7, pc}
 81019ee:	bf00      	nop
 81019f0:	100000c8 	.word	0x100000c8
 81019f4:	100000c4 	.word	0x100000c4
 81019f8:	08109dac 	.word	0x08109dac

081019fc <MX_GPIO_Init>:
/* USER CODE END 1 */

/** Configure pins
*/
void MX_GPIO_Init(void)
{
 81019fc:	b580      	push	{r7, lr}
 81019fe:	b08c      	sub	sp, #48	; 0x30
 8101a00:	af00      	add	r7, sp, #0

  GPIO_InitTypeDef GPIO_InitStruct = {0};
 8101a02:	f107 031c 	add.w	r3, r7, #28
 8101a06:	2200      	movs	r2, #0
 8101a08:	601a      	str	r2, [r3, #0]
 8101a0a:	605a      	str	r2, [r3, #4]
 8101a0c:	609a      	str	r2, [r3, #8]
 8101a0e:	60da      	str	r2, [r3, #12]
 8101a10:	611a      	str	r2, [r3, #16]

  /* GPIO Ports Clock Enable */
  __HAL_RCC_GPIOE_CLK_ENABLE();
 8101a12:	4bb0      	ldr	r3, [pc, #704]	; (8101cd4 <MX_GPIO_Init+0x2d8>)
 8101a14:	f8d3 30e0 	ldr.w	r3, [r3, #224]	; 0xe0
 8101a18:	4aae      	ldr	r2, [pc, #696]	; (8101cd4 <MX_GPIO_Init+0x2d8>)
 8101a1a:	f043 0310 	orr.w	r3, r3, #16
 8101a1e:	f8c2 30e0 	str.w	r3, [r2, #224]	; 0xe0
 8101a22:	4bac      	ldr	r3, [pc, #688]	; (8101cd4 <MX_GPIO_Init+0x2d8>)
 8101a24:	f8d3 30e0 	ldr.w	r3, [r3, #224]	; 0xe0
 8101a28:	f003 0310 	and.w	r3, r3, #16
 8101a2c:	61bb      	str	r3, [r7, #24]
 8101a2e:	69bb      	ldr	r3, [r7, #24]
  __HAL_RCC_GPIOC_CLK_ENABLE();
 8101a30:	4ba8      	ldr	r3, [pc, #672]	; (8101cd4 <MX_GPIO_Init+0x2d8>)
 8101a32:	f8d3 30e0 	ldr.w	r3, [r3, #224]	; 0xe0
 8101a36:	4aa7      	ldr	r2, [pc, #668]	; (8101cd4 <MX_GPIO_Init+0x2d8>)
 8101a38:	f043 0304 	orr.w	r3, r3, #4
 8101a3c:	f8c2 30e0 	str.w	r3, [r2, #224]	; 0xe0
 8101a40:	4ba4      	ldr	r3, [pc, #656]	; (8101cd4 <MX_GPIO_Init+0x2d8>)
 8101a42:	f8d3 30e0 	ldr.w	r3, [r3, #224]	; 0xe0
 8101a46:	f003 0304 	and.w	r3, r3, #4
 8101a4a:	617b      	str	r3, [r7, #20]
 8101a4c:	697b      	ldr	r3, [r7, #20]
  __HAL_RCC_GPIOF_CLK_ENABLE();
 8101a4e:	4ba1      	ldr	r3, [pc, #644]	; (8101cd4 <MX_GPIO_Init+0x2d8>)
 8101a50:	f8d3 30e0 	ldr.w	r3, [r3, #224]	; 0xe0
 8101a54:	4a9f      	ldr	r2, [pc, #636]	; (8101cd4 <MX_GPIO_Init+0x2d8>)
 8101a56:	f043 0320 	orr.w	r3, r3, #32
 8101a5a:	f8c2 30e0 	str.w	r3, [r2, #224]	; 0xe0
 8101a5e:	4b9d      	ldr	r3, [pc, #628]	; (8101cd4 <MX_GPIO_Init+0x2d8>)
 8101a60:	f8d3 30e0 	ldr.w	r3, [r3, #224]	; 0xe0
 8101a64:	f003 0320 	and.w	r3, r3, #32
 8101a68:	613b      	str	r3, [r7, #16]
 8101a6a:	693b      	ldr	r3, [r7, #16]
  __HAL_RCC_GPIOA_CLK_ENABLE();
 8101a6c:	4b99      	ldr	r3, [pc, #612]	; (8101cd4 <MX_GPIO_Init+0x2d8>)
 8101a6e:	f8d3 30e0 	ldr.w	r3, [r3, #224]	; 0xe0
 8101a72:	4a98      	ldr	r2, [pc, #608]	; (8101cd4 <MX_GPIO_Init+0x2d8>)
 8101a74:	f043 0301 	orr.w	r3, r3, #1
 8101a78:	f8c2 30e0 	str.w	r3, [r2, #224]	; 0xe0
 8101a7c:	4b95      	ldr	r3, [pc, #596]	; (8101cd4 <MX_GPIO_Init+0x2d8>)
 8101a7e:	f8d3 30e0 	ldr.w	r3, [r3, #224]	; 0xe0
 8101a82:	f003 0301 	and.w	r3, r3, #1
 8101a86:	60fb      	str	r3, [r7, #12]
 8101a88:	68fb      	ldr	r3, [r7, #12]
  __HAL_RCC_GPIOB_CLK_ENABLE();
 8101a8a:	4b92      	ldr	r3, [pc, #584]	; (8101cd4 <MX_GPIO_Init+0x2d8>)
 8101a8c:	f8d3 30e0 	ldr.w	r3, [r3, #224]	; 0xe0
 8101a90:	4a90      	ldr	r2, [pc, #576]	; (8101cd4 <MX_GPIO_Init+0x2d8>)
 8101a92:	f043 0302 	orr.w	r3, r3, #2
 8101a96:	f8c2 30e0 	str.w	r3, [r2, #224]	; 0xe0
 8101a9a:	4b8e      	ldr	r3, [pc, #568]	; (8101cd4 <MX_GPIO_Init+0x2d8>)
 8101a9c:	f8d3 30e0 	ldr.w	r3, [r3, #224]	; 0xe0
 8101aa0:	f003 0302 	and.w	r3, r3, #2
 8101aa4:	60bb      	str	r3, [r7, #8]
 8101aa6:	68bb      	ldr	r3, [r7, #8]
  __HAL_RCC_GPIOD_CLK_ENABLE();
 8101aa8:	4b8a      	ldr	r3, [pc, #552]	; (8101cd4 <MX_GPIO_Init+0x2d8>)
 8101aaa:	f8d3 30e0 	ldr.w	r3, [r3, #224]	; 0xe0
 8101aae:	4a89      	ldr	r2, [pc, #548]	; (8101cd4 <MX_GPIO_Init+0x2d8>)
 8101ab0:	f043 0308 	orr.w	r3, r3, #8
 8101ab4:	f8c2 30e0 	str.w	r3, [r2, #224]	; 0xe0
 8101ab8:	4b86      	ldr	r3, [pc, #536]	; (8101cd4 <MX_GPIO_Init+0x2d8>)
 8101aba:	f8d3 30e0 	ldr.w	r3, [r3, #224]	; 0xe0
 8101abe:	f003 0308 	and.w	r3, r3, #8
 8101ac2:	607b      	str	r3, [r7, #4]
 8101ac4:	687b      	ldr	r3, [r7, #4]
  __HAL_RCC_GPIOG_CLK_ENABLE();
 8101ac6:	4b83      	ldr	r3, [pc, #524]	; (8101cd4 <MX_GPIO_Init+0x2d8>)
 8101ac8:	f8d3 30e0 	ldr.w	r3, [r3, #224]	; 0xe0
 8101acc:	4a81      	ldr	r2, [pc, #516]	; (8101cd4 <MX_GPIO_Init+0x2d8>)
 8101ace:	f043 0340 	orr.w	r3, r3, #64	; 0x40
 8101ad2:	f8c2 30e0 	str.w	r3, [r2, #224]	; 0xe0
 8101ad6:	4b7f      	ldr	r3, [pc, #508]	; (8101cd4 <MX_GPIO_Init+0x2d8>)
 8101ad8:	f8d3 30e0 	ldr.w	r3, [r3, #224]	; 0xe0
 8101adc:	f003 0340 	and.w	r3, r3, #64	; 0x40
 8101ae0:	603b      	str	r3, [r7, #0]
 8101ae2:	683b      	ldr	r3, [r7, #0]

  /*Configure GPIO pin Output Level */
  HAL_GPIO_WritePin(GPIOE, DigiIN_OUT_Z_Pin|Direction_Z_Pin|LD2_Pin, GPIO_PIN_RESET);
 8101ae4:	2200      	movs	r2, #0
 8101ae6:	2107      	movs	r1, #7
 8101ae8:	487b      	ldr	r0, [pc, #492]	; (8101cd8 <MX_GPIO_Init+0x2dc>)
 8101aea:	f002 ff11 	bl	8104910 <HAL_GPIO_WritePin>

  /*Configure GPIO pin Output Level */
  HAL_GPIO_WritePin(Ready_Z_GPIO_Port, Ready_Z_Pin, GPIO_PIN_RESET);
 8101aee:	2200      	movs	r2, #0
 8101af0:	2101      	movs	r1, #1
 8101af2:	487a      	ldr	r0, [pc, #488]	; (8101cdc <MX_GPIO_Init+0x2e0>)
 8101af4:	f002 ff0c 	bl	8104910 <HAL_GPIO_WritePin>

  /*Configure GPIO pin Output Level */
  HAL_GPIO_WritePin(GPIOB, LD1_Pin|LD3_Pin, GPIO_PIN_RESET);
 8101af8:	2200      	movs	r2, #0
 8101afa:	f244 0101 	movw	r1, #16385	; 0x4001
 8101afe:	4878      	ldr	r0, [pc, #480]	; (8101ce0 <MX_GPIO_Init+0x2e4>)
 8101b00:	f002 ff06 	bl	8104910 <HAL_GPIO_WritePin>

  /*Configure GPIO pin Output Level */
  HAL_GPIO_WritePin(GPIOD, USB_OTG_FS_PWR_EN_Pin|DigiIN_OUT_X_Pin|Ready_X_Pin|Debug_1_Pin
 8101b04:	2200      	movs	r2, #0
 8101b06:	f24c 4178 	movw	r1, #50296	; 0xc478
 8101b0a:	4876      	ldr	r0, [pc, #472]	; (8101ce4 <MX_GPIO_Init+0x2e8>)
 8101b0c:	f002 ff00 	bl	8104910 <HAL_GPIO_WritePin>
                          |Debug_2_Pin|Debug_3_Pin|Debug_4_Pin, GPIO_PIN_RESET);

  /*Configure GPIO pin Output Level */
  HAL_GPIO_WritePin(GPIOC, Vaccuum_Valve_Pin|Vaccuum_Pump_Pin|Solenoid_Pin, GPIO_PIN_SET);
 8101b10:	2201      	movs	r2, #1
 8101b12:	f44f 71e0 	mov.w	r1, #448	; 0x1c0
 8101b16:	4874      	ldr	r0, [pc, #464]	; (8101ce8 <MX_GPIO_Init+0x2ec>)
 8101b18:	f002 fefa 	bl	8104910 <HAL_GPIO_WritePin>

  /*Configure GPIO pin Output Level */
  HAL_GPIO_WritePin(Enable_PWR_GPIO_Port, Enable_PWR_Pin, GPIO_PIN_SET);
 8101b1c:	2201      	movs	r2, #1
 8101b1e:	2101      	movs	r1, #1
 8101b20:	4870      	ldr	r0, [pc, #448]	; (8101ce4 <MX_GPIO_Init+0x2e8>)
 8101b22:	f002 fef5 	bl	8104910 <HAL_GPIO_WritePin>

  /*Configure GPIO pin Output Level */
  HAL_GPIO_WritePin(Direction_X_GPIO_Port, Direction_X_Pin, GPIO_PIN_RESET);
 8101b26:	2200      	movs	r2, #0
 8101b28:	f44f 5180 	mov.w	r1, #4096	; 0x1000
 8101b2c:	486f      	ldr	r0, [pc, #444]	; (8101cec <MX_GPIO_Init+0x2f0>)
 8101b2e:	f002 feef 	bl	8104910 <HAL_GPIO_WritePin>

  /*Configure GPIO pins : PEPin PEPin PEPin */
  GPIO_InitStruct.Pin = DigiIN_OUT_Z_Pin|Direction_Z_Pin|LD2_Pin;
 8101b32:	2307      	movs	r3, #7
 8101b34:	61fb      	str	r3, [r7, #28]
  GPIO_InitStruct.Mode = GPIO_MODE_OUTPUT_PP;
 8101b36:	2301      	movs	r3, #1
 8101b38:	623b      	str	r3, [r7, #32]
  GPIO_InitStruct.Pull = GPIO_NOPULL;
 8101b3a:	2300      	movs	r3, #0
 8101b3c:	627b      	str	r3, [r7, #36]	; 0x24
  GPIO_InitStruct.Speed = GPIO_SPEED_FREQ_LOW;
 8101b3e:	2300      	movs	r3, #0
 8101b40:	62bb      	str	r3, [r7, #40]	; 0x28
  HAL_GPIO_Init(GPIOE, &GPIO_InitStruct);
 8101b42:	f107 031c 	add.w	r3, r7, #28
 8101b46:	4619      	mov	r1, r3
 8101b48:	4863      	ldr	r0, [pc, #396]	; (8101cd8 <MX_GPIO_Init+0x2dc>)
 8101b4a:	f002 fd19 	bl	8104580 <HAL_GPIO_Init>

  /*Configure GPIO pins : PCPin PCPin */
  GPIO_InitStruct.Pin = B1_Pin|Rotary_Switch_C2_Pin;
 8101b4e:	f242 0301 	movw	r3, #8193	; 0x2001
 8101b52:	61fb      	str	r3, [r7, #28]
  GPIO_InitStruct.Mode = GPIO_MODE_INPUT;
 8101b54:	2300      	movs	r3, #0
 8101b56:	623b      	str	r3, [r7, #32]
  GPIO_InitStruct.Pull = GPIO_NOPULL;
 8101b58:	2300      	movs	r3, #0
 8101b5a:	627b      	str	r3, [r7, #36]	; 0x24
  HAL_GPIO_Init(GPIOC, &GPIO_InitStruct);
 8101b5c:	f107 031c 	add.w	r3, r7, #28
 8101b60:	4619      	mov	r1, r3
 8101b62:	4861      	ldr	r0, [pc, #388]	; (8101ce8 <MX_GPIO_Init+0x2ec>)
 8101b64:	f002 fd0c 	bl	8104580 <HAL_GPIO_Init>

  /*Configure GPIO pin : PtPin */
  GPIO_InitStruct.Pin = Rotary_Switch_C8_Pin;
 8101b68:	f44f 6380 	mov.w	r3, #1024	; 0x400
 8101b6c:	61fb      	str	r3, [r7, #28]
  GPIO_InitStruct.Mode = GPIO_MODE_INPUT;
 8101b6e:	2300      	movs	r3, #0
 8101b70:	623b      	str	r3, [r7, #32]
  GPIO_InitStruct.Pull = GPIO_NOPULL;
 8101b72:	2300      	movs	r3, #0
 8101b74:	627b      	str	r3, [r7, #36]	; 0x24
  HAL_GPIO_Init(Rotary_Switch_C8_GPIO_Port, &GPIO_InitStruct);
 8101b76:	f107 031c 	add.w	r3, r7, #28
 8101b7a:	4619      	mov	r1, r3
 8101b7c:	485c      	ldr	r0, [pc, #368]	; (8101cf0 <MX_GPIO_Init+0x2f4>)
 8101b7e:	f002 fcff 	bl	8104580 <HAL_GPIO_Init>

  /*Configure GPIO pin : PtPin */
  GPIO_InitStruct.Pin = Ready_Z_Pin;
 8101b82:	2301      	movs	r3, #1
 8101b84:	61fb      	str	r3, [r7, #28]
  GPIO_InitStruct.Mode = GPIO_MODE_OUTPUT_PP;
 8101b86:	2301      	movs	r3, #1
 8101b88:	623b      	str	r3, [r7, #32]
  GPIO_InitStruct.Pull = GPIO_NOPULL;
 8101b8a:	2300      	movs	r3, #0
 8101b8c:	627b      	str	r3, [r7, #36]	; 0x24
  GPIO_InitStruct.Speed = GPIO_SPEED_FREQ_LOW;
 8101b8e:	2300      	movs	r3, #0
 8101b90:	62bb      	str	r3, [r7, #40]	; 0x28
  HAL_GPIO_Init(Ready_Z_GPIO_Port, &GPIO_InitStruct);
 8101b92:	f107 031c 	add.w	r3, r7, #28
 8101b96:	4619      	mov	r1, r3
 8101b98:	4850      	ldr	r0, [pc, #320]	; (8101cdc <MX_GPIO_Init+0x2e0>)
 8101b9a:	f002 fcf1 	bl	8104580 <HAL_GPIO_Init>

  /*Configure GPIO pin : PtPin */
  GPIO_InitStruct.Pin = Rotary_Switch_C1_Pin;
 8101b9e:	2308      	movs	r3, #8
 8101ba0:	61fb      	str	r3, [r7, #28]
  GPIO_InitStruct.Mode = GPIO_MODE_INPUT;
 8101ba2:	2300      	movs	r3, #0
 8101ba4:	623b      	str	r3, [r7, #32]
  GPIO_InitStruct.Pull = GPIO_NOPULL;
 8101ba6:	2300      	movs	r3, #0
 8101ba8:	627b      	str	r3, [r7, #36]	; 0x24
  HAL_GPIO_Init(Rotary_Switch_C1_GPIO_Port, &GPIO_InitStruct);
 8101baa:	f107 031c 	add.w	r3, r7, #28
 8101bae:	4619      	mov	r1, r3
 8101bb0:	484a      	ldr	r0, [pc, #296]	; (8101cdc <MX_GPIO_Init+0x2e0>)
 8101bb2:	f002 fce5 	bl	8104580 <HAL_GPIO_Init>

  /*Configure GPIO pins : PBPin PBPin */
  GPIO_InitStruct.Pin = LD1_Pin|LD3_Pin;
 8101bb6:	f244 0301 	movw	r3, #16385	; 0x4001
 8101bba:	61fb      	str	r3, [r7, #28]
  GPIO_InitStruct.Mode = GPIO_MODE_OUTPUT_PP;
 8101bbc:	2301      	movs	r3, #1
 8101bbe:	623b      	str	r3, [r7, #32]
  GPIO_InitStruct.Pull = GPIO_NOPULL;
 8101bc0:	2300      	movs	r3, #0
 8101bc2:	627b      	str	r3, [r7, #36]	; 0x24
  GPIO_InitStruct.Speed = GPIO_SPEED_FREQ_LOW;
 8101bc4:	2300      	movs	r3, #0
 8101bc6:	62bb      	str	r3, [r7, #40]	; 0x28
  HAL_GPIO_Init(GPIOB, &GPIO_InitStruct);
 8101bc8:	f107 031c 	add.w	r3, r7, #28
 8101bcc:	4619      	mov	r1, r3
 8101bce:	4844      	ldr	r0, [pc, #272]	; (8101ce0 <MX_GPIO_Init+0x2e4>)
 8101bd0:	f002 fcd6 	bl	8104580 <HAL_GPIO_Init>

  /*Configure GPIO pin : PtPin */
  GPIO_InitStruct.Pin = Rotary_Switch_C4_Pin;
 8101bd4:	2302      	movs	r3, #2
 8101bd6:	61fb      	str	r3, [r7, #28]
  GPIO_InitStruct.Mode = GPIO_MODE_INPUT;
 8101bd8:	2300      	movs	r3, #0
 8101bda:	623b      	str	r3, [r7, #32]
  GPIO_InitStruct.Pull = GPIO_NOPULL;
 8101bdc:	2300      	movs	r3, #0
 8101bde:	627b      	str	r3, [r7, #36]	; 0x24
  HAL_GPIO_Init(Rotary_Switch_C4_GPIO_Port, &GPIO_InitStruct);
 8101be0:	f107 031c 	add.w	r3, r7, #28
 8101be4:	4619      	mov	r1, r3
 8101be6:	483e      	ldr	r0, [pc, #248]	; (8101ce0 <MX_GPIO_Init+0x2e4>)
 8101be8:	f002 fcca 	bl	8104580 <HAL_GPIO_Init>

  /*Configure GPIO pin : PtPin */
  GPIO_InitStruct.Pin = Homing_Z_Pin;
 8101bec:	2304      	movs	r3, #4
 8101bee:	61fb      	str	r3, [r7, #28]
  GPIO_InitStruct.Mode = GPIO_MODE_IT_RISING;
 8101bf0:	f44f 1388 	mov.w	r3, #1114112	; 0x110000
 8101bf4:	623b      	str	r3, [r7, #32]
  GPIO_InitStruct.Pull = GPIO_NOPULL;
 8101bf6:	2300      	movs	r3, #0
 8101bf8:	627b      	str	r3, [r7, #36]	; 0x24
  HAL_GPIO_Init(Homing_Z_GPIO_Port, &GPIO_InitStruct);
 8101bfa:	f107 031c 	add.w	r3, r7, #28
 8101bfe:	4619      	mov	r1, r3
 8101c00:	4837      	ldr	r0, [pc, #220]	; (8101ce0 <MX_GPIO_Init+0x2e4>)
 8101c02:	f002 fcbd 	bl	8104580 <HAL_GPIO_Init>

  /*Configure GPIO pin : PtPin */
  GPIO_InitStruct.Pin = Pushbutton_Rotary_Switch_Pin;
 8101c06:	f44f 7300 	mov.w	r3, #512	; 0x200
 8101c0a:	61fb      	str	r3, [r7, #28]
  GPIO_InitStruct.Mode = GPIO_MODE_IT_RISING;
 8101c0c:	f44f 1388 	mov.w	r3, #1114112	; 0x110000
 8101c10:	623b      	str	r3, [r7, #32]
  GPIO_InitStruct.Pull = GPIO_NOPULL;
 8101c12:	2300      	movs	r3, #0
 8101c14:	627b      	str	r3, [r7, #36]	; 0x24
  HAL_GPIO_Init(Pushbutton_Rotary_Switch_GPIO_Port, &GPIO_InitStruct);
 8101c16:	f107 031c 	add.w	r3, r7, #28
 8101c1a:	4619      	mov	r1, r3
 8101c1c:	482e      	ldr	r0, [pc, #184]	; (8101cd8 <MX_GPIO_Init+0x2dc>)
 8101c1e:	f002 fcaf 	bl	8104580 <HAL_GPIO_Init>

  /*Configure GPIO pins : PEPin PEPin PEPin */
  GPIO_InitStruct.Pin = Homing_X_Pin|Endstop_X_Pin|Endstop_Z_Pin;
 8101c22:	f44f 5360 	mov.w	r3, #14336	; 0x3800
 8101c26:	61fb      	str	r3, [r7, #28]
  GPIO_InitStruct.Mode = GPIO_MODE_INPUT;
 8101c28:	2300      	movs	r3, #0
 8101c2a:	623b      	str	r3, [r7, #32]
  GPIO_InitStruct.Pull = GPIO_NOPULL;
 8101c2c:	2300      	movs	r3, #0
 8101c2e:	627b      	str	r3, [r7, #36]	; 0x24
  HAL_GPIO_Init(GPIOE, &GPIO_InitStruct);
 8101c30:	f107 031c 	add.w	r3, r7, #28
 8101c34:	4619      	mov	r1, r3
 8101c36:	4828      	ldr	r0, [pc, #160]	; (8101cd8 <MX_GPIO_Init+0x2dc>)
 8101c38:	f002 fca2 	bl	8104580 <HAL_GPIO_Init>

  /*Configure GPIO pins : PDPin PDPin PDPin PDPin
                           PDPin PDPin PDPin PDPin */
  GPIO_InitStruct.Pin = USB_OTG_FS_PWR_EN_Pin|DigiIN_OUT_X_Pin|Ready_X_Pin|Enable_PWR_Pin
 8101c3c:	f24c 4379 	movw	r3, #50297	; 0xc479
 8101c40:	61fb      	str	r3, [r7, #28]
                          |Debug_1_Pin|Debug_2_Pin|Debug_3_Pin|Debug_4_Pin;
  GPIO_InitStruct.Mode = GPIO_MODE_OUTPUT_PP;
 8101c42:	2301      	movs	r3, #1
 8101c44:	623b      	str	r3, [r7, #32]
  GPIO_InitStruct.Pull = GPIO_NOPULL;
 8101c46:	2300      	movs	r3, #0
 8101c48:	627b      	str	r3, [r7, #36]	; 0x24
  GPIO_InitStruct.Speed = GPIO_SPEED_FREQ_LOW;
 8101c4a:	2300      	movs	r3, #0
 8101c4c:	62bb      	str	r3, [r7, #40]	; 0x28
  HAL_GPIO_Init(GPIOD, &GPIO_InitStruct);
 8101c4e:	f107 031c 	add.w	r3, r7, #28
 8101c52:	4619      	mov	r1, r3
 8101c54:	4823      	ldr	r0, [pc, #140]	; (8101ce4 <MX_GPIO_Init+0x2e8>)
 8101c56:	f002 fc93 	bl	8104580 <HAL_GPIO_Init>

  /*Configure GPIO pins : PCPin PCPin PCPin */
  GPIO_InitStruct.Pin = Vaccuum_Valve_Pin|Vaccuum_Pump_Pin|Solenoid_Pin;
 8101c5a:	f44f 73e0 	mov.w	r3, #448	; 0x1c0
 8101c5e:	61fb      	str	r3, [r7, #28]
  GPIO_InitStruct.Mode = GPIO_MODE_OUTPUT_PP;
 8101c60:	2301      	movs	r3, #1
 8101c62:	623b      	str	r3, [r7, #32]
  GPIO_InitStruct.Pull = GPIO_NOPULL;
 8101c64:	2300      	movs	r3, #0
 8101c66:	627b      	str	r3, [r7, #36]	; 0x24
  GPIO_InitStruct.Speed = GPIO_SPEED_FREQ_LOW;
 8101c68:	2300      	movs	r3, #0
 8101c6a:	62bb      	str	r3, [r7, #40]	; 0x28
  HAL_GPIO_Init(GPIOC, &GPIO_InitStruct);
 8101c6c:	f107 031c 	add.w	r3, r7, #28
 8101c70:	4619      	mov	r1, r3
 8101c72:	481d      	ldr	r0, [pc, #116]	; (8101ce8 <MX_GPIO_Init+0x2ec>)
 8101c74:	f002 fc84 	bl	8104580 <HAL_GPIO_Init>

  /*Configure GPIO pins : PCPin PCPin */
  GPIO_InitStruct.Pin = Coin_INT_Pin|Prox_INT_Pin;
 8101c78:	f44f 6340 	mov.w	r3, #3072	; 0xc00
 8101c7c:	61fb      	str	r3, [r7, #28]
  GPIO_InitStruct.Mode = GPIO_MODE_IT_RISING;
 8101c7e:	f44f 1388 	mov.w	r3, #1114112	; 0x110000
 8101c82:	623b      	str	r3, [r7, #32]
  GPIO_InitStruct.Pull = GPIO_NOPULL;
 8101c84:	2300      	movs	r3, #0
 8101c86:	627b      	str	r3, [r7, #36]	; 0x24
  HAL_GPIO_Init(GPIOC, &GPIO_InitStruct);
 8101c88:	f107 031c 	add.w	r3, r7, #28
 8101c8c:	4619      	mov	r1, r3
 8101c8e:	4816      	ldr	r0, [pc, #88]	; (8101ce8 <MX_GPIO_Init+0x2ec>)
 8101c90:	f002 fc76 	bl	8104580 <HAL_GPIO_Init>

  /*Configure GPIO pin : PtPin */
  GPIO_InitStruct.Pin = Read_EMO_Pin;
 8101c94:	2302      	movs	r3, #2
 8101c96:	61fb      	str	r3, [r7, #28]
  GPIO_InitStruct.Mode = GPIO_MODE_IT_RISING;
 8101c98:	f44f 1388 	mov.w	r3, #1114112	; 0x110000
 8101c9c:	623b      	str	r3, [r7, #32]
  GPIO_InitStruct.Pull = GPIO_NOPULL;
 8101c9e:	2300      	movs	r3, #0
 8101ca0:	627b      	str	r3, [r7, #36]	; 0x24
  HAL_GPIO_Init(Read_EMO_GPIO_Port, &GPIO_InitStruct);
 8101ca2:	f107 031c 	add.w	r3, r7, #28
 8101ca6:	4619      	mov	r1, r3
 8101ca8:	480e      	ldr	r0, [pc, #56]	; (8101ce4 <MX_GPIO_Init+0x2e8>)
 8101caa:	f002 fc69 	bl	8104580 <HAL_GPIO_Init>

  /*Configure GPIO pin : PtPin */
  GPIO_InitStruct.Pin = Direction_X_Pin;
 8101cae:	f44f 5380 	mov.w	r3, #4096	; 0x1000
 8101cb2:	61fb      	str	r3, [r7, #28]
  GPIO_InitStruct.Mode = GPIO_MODE_OUTPUT_PP;
 8101cb4:	2301      	movs	r3, #1
 8101cb6:	623b      	str	r3, [r7, #32]
  GPIO_InitStruct.Pull = GPIO_NOPULL;
 8101cb8:	2300      	movs	r3, #0
 8101cba:	627b      	str	r3, [r7, #36]	; 0x24
  GPIO_InitStruct.Speed = GPIO_SPEED_FREQ_LOW;
 8101cbc:	2300      	movs	r3, #0
 8101cbe:	62bb      	str	r3, [r7, #40]	; 0x28
  HAL_GPIO_Init(Direction_X_GPIO_Port, &GPIO_InitStruct);
 8101cc0:	f107 031c 	add.w	r3, r7, #28
 8101cc4:	4619      	mov	r1, r3
 8101cc6:	4809      	ldr	r0, [pc, #36]	; (8101cec <MX_GPIO_Init+0x2f0>)
 8101cc8:	f002 fc5a 	bl	8104580 <HAL_GPIO_Init>

}
 8101ccc:	bf00      	nop
 8101cce:	3730      	adds	r7, #48	; 0x30
 8101cd0:	46bd      	mov	sp, r7
 8101cd2:	bd80      	pop	{r7, pc}
 8101cd4:	58024400 	.word	0x58024400
 8101cd8:	58021000 	.word	0x58021000
 8101cdc:	58020000 	.word	0x58020000
 8101ce0:	58020400 	.word	0x58020400
 8101ce4:	58020c00 	.word	0x58020c00
 8101ce8:	58020800 	.word	0x58020800
 8101cec:	58021800 	.word	0x58021800
 8101cf0:	58021400 	.word	0x58021400

08101cf4 <set_Valve>:
	HAL_GPIO_WritePin(LD3_GPIO_Port, LD3_Pin, GPIO_PIN_RESET);
}



void set_Valve(void){
 8101cf4:	b580      	push	{r7, lr}
 8101cf6:	af00      	add	r7, sp, #0
	HAL_GPIO_WritePin(Vaccuum_Valve_GPIO_Port, Vaccuum_Valve_Pin, GPIO_PIN_RESET);
 8101cf8:	2200      	movs	r2, #0
 8101cfa:	2140      	movs	r1, #64	; 0x40
 8101cfc:	4802      	ldr	r0, [pc, #8]	; (8101d08 <set_Valve+0x14>)
 8101cfe:	f002 fe07 	bl	8104910 <HAL_GPIO_WritePin>
}
 8101d02:	bf00      	nop
 8101d04:	bd80      	pop	{r7, pc}
 8101d06:	bf00      	nop
 8101d08:	58020800 	.word	0x58020800

08101d0c <reset_Valve>:
void reset_Valve(void){
 8101d0c:	b580      	push	{r7, lr}
 8101d0e:	af00      	add	r7, sp, #0
	HAL_GPIO_WritePin(Vaccuum_Valve_GPIO_Port, Vaccuum_Valve_Pin, GPIO_PIN_SET);
 8101d10:	2201      	movs	r2, #1
 8101d12:	2140      	movs	r1, #64	; 0x40
 8101d14:	4802      	ldr	r0, [pc, #8]	; (8101d20 <reset_Valve+0x14>)
 8101d16:	f002 fdfb 	bl	8104910 <HAL_GPIO_WritePin>
}
 8101d1a:	bf00      	nop
 8101d1c:	bd80      	pop	{r7, pc}
 8101d1e:	bf00      	nop
 8101d20:	58020800 	.word	0x58020800

08101d24 <set_Pump>:

void set_Pump(void){
 8101d24:	b580      	push	{r7, lr}
 8101d26:	af00      	add	r7, sp, #0
	HAL_GPIO_WritePin(Vaccuum_Pump_GPIO_Port, Vaccuum_Pump_Pin, GPIO_PIN_RESET);
 8101d28:	2200      	movs	r2, #0
 8101d2a:	2180      	movs	r1, #128	; 0x80
 8101d2c:	4802      	ldr	r0, [pc, #8]	; (8101d38 <set_Pump+0x14>)
 8101d2e:	f002 fdef 	bl	8104910 <HAL_GPIO_WritePin>
}
 8101d32:	bf00      	nop
 8101d34:	bd80      	pop	{r7, pc}
 8101d36:	bf00      	nop
 8101d38:	58020800 	.word	0x58020800

08101d3c <reset_Pump>:
void reset_Pump(void){
 8101d3c:	b580      	push	{r7, lr}
 8101d3e:	af00      	add	r7, sp, #0
	HAL_GPIO_WritePin(Vaccuum_Pump_GPIO_Port, Vaccuum_Pump_Pin, GPIO_PIN_SET);
 8101d40:	2201      	movs	r2, #1
 8101d42:	2180      	movs	r1, #128	; 0x80
 8101d44:	4802      	ldr	r0, [pc, #8]	; (8101d50 <reset_Pump+0x14>)
 8101d46:	f002 fde3 	bl	8104910 <HAL_GPIO_WritePin>
}
 8101d4a:	bf00      	nop
 8101d4c:	bd80      	pop	{r7, pc}
 8101d4e:	bf00      	nop
 8101d50:	58020800 	.word	0x58020800

08101d54 <set_Direction_X>:
	HAL_GPIO_WritePin(Solenoid_GPIO_Port, Solenoid_Pin, GPIO_PIN_SET);
}



void set_Direction_X(void){
 8101d54:	b580      	push	{r7, lr}
 8101d56:	af00      	add	r7, sp, #0
	HAL_GPIO_WritePin(Direction_X_GPIO_Port, Direction_X_Pin, GPIO_PIN_SET);
 8101d58:	2201      	movs	r2, #1
 8101d5a:	f44f 5180 	mov.w	r1, #4096	; 0x1000
 8101d5e:	4802      	ldr	r0, [pc, #8]	; (8101d68 <set_Direction_X+0x14>)
 8101d60:	f002 fdd6 	bl	8104910 <HAL_GPIO_WritePin>
}
 8101d64:	bf00      	nop
 8101d66:	bd80      	pop	{r7, pc}
 8101d68:	58021800 	.word	0x58021800

08101d6c <reset_Direction_X>:
void reset_Direction_X(void){
 8101d6c:	b580      	push	{r7, lr}
 8101d6e:	af00      	add	r7, sp, #0
	HAL_GPIO_WritePin(Direction_X_GPIO_Port, Direction_X_Pin, GPIO_PIN_RESET);
 8101d70:	2200      	movs	r2, #0
 8101d72:	f44f 5180 	mov.w	r1, #4096	; 0x1000
 8101d76:	4802      	ldr	r0, [pc, #8]	; (8101d80 <reset_Direction_X+0x14>)
 8101d78:	f002 fdca 	bl	8104910 <HAL_GPIO_WritePin>
}
 8101d7c:	bf00      	nop
 8101d7e:	bd80      	pop	{r7, pc}
 8101d80:	58021800 	.word	0x58021800

08101d84 <set_Ready_X>:

void set_Ready_X(void){
 8101d84:	b580      	push	{r7, lr}
 8101d86:	af00      	add	r7, sp, #0
	HAL_GPIO_WritePin(Ready_X_GPIO_Port, Ready_X_Pin, GPIO_PIN_SET);
 8101d88:	2201      	movs	r2, #1
 8101d8a:	f44f 4100 	mov.w	r1, #32768	; 0x8000
 8101d8e:	4802      	ldr	r0, [pc, #8]	; (8101d98 <set_Ready_X+0x14>)
 8101d90:	f002 fdbe 	bl	8104910 <HAL_GPIO_WritePin>
}
 8101d94:	bf00      	nop
 8101d96:	bd80      	pop	{r7, pc}
 8101d98:	58020c00 	.word	0x58020c00

08101d9c <reset_Ready_X>:
void reset_Ready_X(void){
 8101d9c:	b580      	push	{r7, lr}
 8101d9e:	af00      	add	r7, sp, #0
	HAL_GPIO_WritePin(Ready_X_GPIO_Port, Ready_X_Pin, GPIO_PIN_RESET);
 8101da0:	2200      	movs	r2, #0
 8101da2:	f44f 4100 	mov.w	r1, #32768	; 0x8000
 8101da6:	4802      	ldr	r0, [pc, #8]	; (8101db0 <reset_Ready_X+0x14>)
 8101da8:	f002 fdb2 	bl	8104910 <HAL_GPIO_WritePin>
}
 8101dac:	bf00      	nop
 8101dae:	bd80      	pop	{r7, pc}
 8101db0:	58020c00 	.word	0x58020c00

08101db4 <set_Direction_Z>:
	HAL_GPIO_WritePin(DigiIN_OUT_X_GPIO_Port, DigiIN_OUT_X_Pin, GPIO_PIN_RESET);
}



void set_Direction_Z(void){
 8101db4:	b580      	push	{r7, lr}
 8101db6:	af00      	add	r7, sp, #0
	HAL_GPIO_WritePin(Direction_Z_GPIO_Port, Direction_Z_Pin, GPIO_PIN_SET);
 8101db8:	2201      	movs	r2, #1
 8101dba:	2101      	movs	r1, #1
 8101dbc:	4802      	ldr	r0, [pc, #8]	; (8101dc8 <set_Direction_Z+0x14>)
 8101dbe:	f002 fda7 	bl	8104910 <HAL_GPIO_WritePin>
}
 8101dc2:	bf00      	nop
 8101dc4:	bd80      	pop	{r7, pc}
 8101dc6:	bf00      	nop
 8101dc8:	58021000 	.word	0x58021000

08101dcc <reset_Direction_Z>:
void reset_Direction_Z(void){
 8101dcc:	b580      	push	{r7, lr}
 8101dce:	af00      	add	r7, sp, #0
	HAL_GPIO_WritePin(Direction_Z_GPIO_Port, Direction_Z_Pin, GPIO_PIN_RESET);
 8101dd0:	2200      	movs	r2, #0
 8101dd2:	2101      	movs	r1, #1
 8101dd4:	4802      	ldr	r0, [pc, #8]	; (8101de0 <reset_Direction_Z+0x14>)
 8101dd6:	f002 fd9b 	bl	8104910 <HAL_GPIO_WritePin>
}
 8101dda:	bf00      	nop
 8101ddc:	bd80      	pop	{r7, pc}
 8101dde:	bf00      	nop
 8101de0:	58021000 	.word	0x58021000

08101de4 <set_Ready_Z>:

void set_Ready_Z(void){
 8101de4:	b580      	push	{r7, lr}
 8101de6:	af00      	add	r7, sp, #0
	HAL_GPIO_WritePin(Ready_Z_GPIO_Port, Ready_Z_Pin, GPIO_PIN_SET);
 8101de8:	2201      	movs	r2, #1
 8101dea:	2101      	movs	r1, #1
 8101dec:	4802      	ldr	r0, [pc, #8]	; (8101df8 <set_Ready_Z+0x14>)
 8101dee:	f002 fd8f 	bl	8104910 <HAL_GPIO_WritePin>
}
 8101df2:	bf00      	nop
 8101df4:	bd80      	pop	{r7, pc}
 8101df6:	bf00      	nop
 8101df8:	58020000 	.word	0x58020000

08101dfc <reset_Ready_Z>:
void reset_Ready_Z(void){
 8101dfc:	b580      	push	{r7, lr}
 8101dfe:	af00      	add	r7, sp, #0
	HAL_GPIO_WritePin(Ready_Z_GPIO_Port, Ready_Z_Pin, GPIO_PIN_RESET);
 8101e00:	2200      	movs	r2, #0
 8101e02:	2101      	movs	r1, #1
 8101e04:	4802      	ldr	r0, [pc, #8]	; (8101e10 <reset_Ready_Z+0x14>)
 8101e06:	f002 fd83 	bl	8104910 <HAL_GPIO_WritePin>
}
 8101e0a:	bf00      	nop
 8101e0c:	bd80      	pop	{r7, pc}
 8101e0e:	bf00      	nop
 8101e10:	58020000 	.word	0x58020000

08101e14 <set_Enable_Power>:
	HAL_GPIO_WritePin(DigiIN_OUT_Z_GPIO_Port, DigiIN_OUT_Z_Pin, GPIO_PIN_RESET);
}



void set_Enable_Power(void){
 8101e14:	b580      	push	{r7, lr}
 8101e16:	af00      	add	r7, sp, #0
	HAL_GPIO_WritePin(Enable_PWR_GPIO_Port, Enable_PWR_Pin, GPIO_PIN_RESET);
 8101e18:	2200      	movs	r2, #0
 8101e1a:	2101      	movs	r1, #1
 8101e1c:	4802      	ldr	r0, [pc, #8]	; (8101e28 <set_Enable_Power+0x14>)
 8101e1e:	f002 fd77 	bl	8104910 <HAL_GPIO_WritePin>
}
 8101e22:	bf00      	nop
 8101e24:	bd80      	pop	{r7, pc}
 8101e26:	bf00      	nop
 8101e28:	58020c00 	.word	0x58020c00

08101e2c <reset_Enable_Power>:
void reset_Enable_Power(void){
 8101e2c:	b580      	push	{r7, lr}
 8101e2e:	af00      	add	r7, sp, #0
	HAL_GPIO_WritePin(Enable_PWR_GPIO_Port, Enable_PWR_Pin, GPIO_PIN_SET);
 8101e30:	2201      	movs	r2, #1
 8101e32:	2101      	movs	r1, #1
 8101e34:	4802      	ldr	r0, [pc, #8]	; (8101e40 <reset_Enable_Power+0x14>)
 8101e36:	f002 fd6b 	bl	8104910 <HAL_GPIO_WritePin>
}
 8101e3a:	bf00      	nop
 8101e3c:	bd80      	pop	{r7, pc}
 8101e3e:	bf00      	nop
 8101e40:	58020c00 	.word	0x58020c00

08101e44 <get_Homing_X>:

int get_Homing_X(void){
 8101e44:	b580      	push	{r7, lr}
 8101e46:	af00      	add	r7, sp, #0
	return HAL_GPIO_ReadPin(Homing_X_GPIO_Port, Homing_X_Pin) == GPIO_PIN_RESET;
 8101e48:	f44f 6100 	mov.w	r1, #2048	; 0x800
 8101e4c:	4805      	ldr	r0, [pc, #20]	; (8101e64 <get_Homing_X+0x20>)
 8101e4e:	f002 fd47 	bl	81048e0 <HAL_GPIO_ReadPin>
 8101e52:	4603      	mov	r3, r0
 8101e54:	2b00      	cmp	r3, #0
 8101e56:	bf0c      	ite	eq
 8101e58:	2301      	moveq	r3, #1
 8101e5a:	2300      	movne	r3, #0
 8101e5c:	b2db      	uxtb	r3, r3
}
 8101e5e:	4618      	mov	r0, r3
 8101e60:	bd80      	pop	{r7, pc}
 8101e62:	bf00      	nop
 8101e64:	58021000 	.word	0x58021000

08101e68 <get_Homing_Z>:
int get_Homing_Z(void){
 8101e68:	b580      	push	{r7, lr}
 8101e6a:	af00      	add	r7, sp, #0
	return HAL_GPIO_ReadPin(Homing_Z_GPIO_Port, Homing_Z_Pin) == GPIO_PIN_RESET;
 8101e6c:	2104      	movs	r1, #4
 8101e6e:	4805      	ldr	r0, [pc, #20]	; (8101e84 <get_Homing_Z+0x1c>)
 8101e70:	f002 fd36 	bl	81048e0 <HAL_GPIO_ReadPin>
 8101e74:	4603      	mov	r3, r0
 8101e76:	2b00      	cmp	r3, #0
 8101e78:	bf0c      	ite	eq
 8101e7a:	2301      	moveq	r3, #1
 8101e7c:	2300      	movne	r3, #0
 8101e7e:	b2db      	uxtb	r3, r3
}
 8101e80:	4618      	mov	r0, r3
 8101e82:	bd80      	pop	{r7, pc}
 8101e84:	58020400 	.word	0x58020400

08101e88 <MX_TIM2_Init>:
TIM_HandleTypeDef htim13;
TIM_HandleTypeDef htim14;

/* TIM2 init function */
void MX_TIM2_Init(void)
{
 8101e88:	b580      	push	{r7, lr}
 8101e8a:	b08a      	sub	sp, #40	; 0x28
 8101e8c:	af00      	add	r7, sp, #0

  /* USER CODE BEGIN TIM2_Init 0 */

  /* USER CODE END TIM2_Init 0 */

  TIM_MasterConfigTypeDef sMasterConfig = {0};
 8101e8e:	f107 031c 	add.w	r3, r7, #28
 8101e92:	2200      	movs	r2, #0
 8101e94:	601a      	str	r2, [r3, #0]
 8101e96:	605a      	str	r2, [r3, #4]
 8101e98:	609a      	str	r2, [r3, #8]
  TIM_OC_InitTypeDef sConfigOC = {0};
 8101e9a:	463b      	mov	r3, r7
 8101e9c:	2200      	movs	r2, #0
 8101e9e:	601a      	str	r2, [r3, #0]
 8101ea0:	605a      	str	r2, [r3, #4]
 8101ea2:	609a      	str	r2, [r3, #8]
 8101ea4:	60da      	str	r2, [r3, #12]
 8101ea6:	611a      	str	r2, [r3, #16]
 8101ea8:	615a      	str	r2, [r3, #20]
 8101eaa:	619a      	str	r2, [r3, #24]

  /* USER CODE BEGIN TIM2_Init 1 */

  /* USER CODE END TIM2_Init 1 */
  htim2.Instance = TIM2;
 8101eac:	4b27      	ldr	r3, [pc, #156]	; (8101f4c <MX_TIM2_Init+0xc4>)
 8101eae:	f04f 4280 	mov.w	r2, #1073741824	; 0x40000000
 8101eb2:	601a      	str	r2, [r3, #0]
  htim2.Init.Prescaler = 48-1;
 8101eb4:	4b25      	ldr	r3, [pc, #148]	; (8101f4c <MX_TIM2_Init+0xc4>)
 8101eb6:	222f      	movs	r2, #47	; 0x2f
 8101eb8:	605a      	str	r2, [r3, #4]
  htim2.Init.CounterMode = TIM_COUNTERMODE_UP;
 8101eba:	4b24      	ldr	r3, [pc, #144]	; (8101f4c <MX_TIM2_Init+0xc4>)
 8101ebc:	2200      	movs	r2, #0
 8101ebe:	609a      	str	r2, [r3, #8]
  htim2.Init.Period = 1000-1;
 8101ec0:	4b22      	ldr	r3, [pc, #136]	; (8101f4c <MX_TIM2_Init+0xc4>)
 8101ec2:	f240 32e7 	movw	r2, #999	; 0x3e7
 8101ec6:	60da      	str	r2, [r3, #12]
  htim2.Init.ClockDivision = TIM_CLOCKDIVISION_DIV1;
 8101ec8:	4b20      	ldr	r3, [pc, #128]	; (8101f4c <MX_TIM2_Init+0xc4>)
 8101eca:	2200      	movs	r2, #0
 8101ecc:	611a      	str	r2, [r3, #16]
  htim2.Init.AutoReloadPreload = TIM_AUTORELOAD_PRELOAD_DISABLE;
 8101ece:	4b1f      	ldr	r3, [pc, #124]	; (8101f4c <MX_TIM2_Init+0xc4>)
 8101ed0:	2200      	movs	r2, #0
 8101ed2:	619a      	str	r2, [r3, #24]
  if (HAL_TIM_PWM_Init(&htim2) != HAL_OK)
 8101ed4:	481d      	ldr	r0, [pc, #116]	; (8101f4c <MX_TIM2_Init+0xc4>)
 8101ed6:	f005 f9ae 	bl	8107236 <HAL_TIM_PWM_Init>
 8101eda:	4603      	mov	r3, r0
 8101edc:	2b00      	cmp	r3, #0
 8101ede:	d001      	beq.n	8101ee4 <MX_TIM2_Init+0x5c>
  {
    Error_Handler();
 8101ee0:	f7ff fc12 	bl	8101708 <Error_Handler>
  }
  sMasterConfig.MasterOutputTrigger = TIM_TRGO_RESET;
 8101ee4:	2300      	movs	r3, #0
 8101ee6:	61fb      	str	r3, [r7, #28]
  sMasterConfig.MasterSlaveMode = TIM_MASTERSLAVEMODE_DISABLE;
 8101ee8:	2300      	movs	r3, #0
 8101eea:	627b      	str	r3, [r7, #36]	; 0x24
  if (HAL_TIMEx_MasterConfigSynchronization(&htim2, &sMasterConfig) != HAL_OK)
 8101eec:	f107 031c 	add.w	r3, r7, #28
 8101ef0:	4619      	mov	r1, r3
 8101ef2:	4816      	ldr	r0, [pc, #88]	; (8101f4c <MX_TIM2_Init+0xc4>)
 8101ef4:	f006 f902 	bl	81080fc <HAL_TIMEx_MasterConfigSynchronization>
 8101ef8:	4603      	mov	r3, r0
 8101efa:	2b00      	cmp	r3, #0
 8101efc:	d001      	beq.n	8101f02 <MX_TIM2_Init+0x7a>
  {
    Error_Handler();
 8101efe:	f7ff fc03 	bl	8101708 <Error_Handler>
  }
  sConfigOC.OCMode = TIM_OCMODE_PWM1;
 8101f02:	2360      	movs	r3, #96	; 0x60
 8101f04:	603b      	str	r3, [r7, #0]
  sConfigOC.Pulse = 0;
 8101f06:	2300      	movs	r3, #0
 8101f08:	607b      	str	r3, [r7, #4]
  sConfigOC.OCPolarity = TIM_OCPOLARITY_HIGH;
 8101f0a:	2300      	movs	r3, #0
 8101f0c:	60bb      	str	r3, [r7, #8]
  sConfigOC.OCFastMode = TIM_OCFAST_DISABLE;
 8101f0e:	2300      	movs	r3, #0
 8101f10:	613b      	str	r3, [r7, #16]
  if (HAL_TIM_PWM_ConfigChannel(&htim2, &sConfigOC, TIM_CHANNEL_3) != HAL_OK)
 8101f12:	463b      	mov	r3, r7
 8101f14:	2208      	movs	r2, #8
 8101f16:	4619      	mov	r1, r3
 8101f18:	480c      	ldr	r0, [pc, #48]	; (8101f4c <MX_TIM2_Init+0xc4>)
 8101f1a:	f005 fc45 	bl	81077a8 <HAL_TIM_PWM_ConfigChannel>
 8101f1e:	4603      	mov	r3, r0
 8101f20:	2b00      	cmp	r3, #0
 8101f22:	d001      	beq.n	8101f28 <MX_TIM2_Init+0xa0>
  {
    Error_Handler();
 8101f24:	f7ff fbf0 	bl	8101708 <Error_Handler>
  }
  if (HAL_TIM_PWM_ConfigChannel(&htim2, &sConfigOC, TIM_CHANNEL_4) != HAL_OK)
 8101f28:	463b      	mov	r3, r7
 8101f2a:	220c      	movs	r2, #12
 8101f2c:	4619      	mov	r1, r3
 8101f2e:	4807      	ldr	r0, [pc, #28]	; (8101f4c <MX_TIM2_Init+0xc4>)
 8101f30:	f005 fc3a 	bl	81077a8 <HAL_TIM_PWM_ConfigChannel>
 8101f34:	4603      	mov	r3, r0
 8101f36:	2b00      	cmp	r3, #0
 8101f38:	d001      	beq.n	8101f3e <MX_TIM2_Init+0xb6>
  {
    Error_Handler();
 8101f3a:	f7ff fbe5 	bl	8101708 <Error_Handler>
  }
  /* USER CODE BEGIN TIM2_Init 2 */

  /* USER CODE END TIM2_Init 2 */
  HAL_TIM_MspPostInit(&htim2);
 8101f3e:	4803      	ldr	r0, [pc, #12]	; (8101f4c <MX_TIM2_Init+0xc4>)
 8101f40:	f000 fa4c 	bl	81023dc <HAL_TIM_MspPostInit>

}
 8101f44:	bf00      	nop
 8101f46:	3728      	adds	r7, #40	; 0x28
 8101f48:	46bd      	mov	sp, r7
 8101f4a:	bd80      	pop	{r7, pc}
 8101f4c:	1000012c 	.word	0x1000012c

08101f50 <MX_TIM3_Init>:
/* TIM3 init function */
void MX_TIM3_Init(void)
{
 8101f50:	b580      	push	{r7, lr}
 8101f52:	b08c      	sub	sp, #48	; 0x30
 8101f54:	af00      	add	r7, sp, #0

  /* USER CODE BEGIN TIM3_Init 0 */

  /* USER CODE END TIM3_Init 0 */

  TIM_Encoder_InitTypeDef sConfig = {0};
 8101f56:	f107 030c 	add.w	r3, r7, #12
 8101f5a:	2224      	movs	r2, #36	; 0x24
 8101f5c:	2100      	movs	r1, #0
 8101f5e:	4618      	mov	r0, r3
 8101f60:	f007 fa84 	bl	810946c <memset>
  TIM_MasterConfigTypeDef sMasterConfig = {0};
 8101f64:	463b      	mov	r3, r7
 8101f66:	2200      	movs	r2, #0
 8101f68:	601a      	str	r2, [r3, #0]
 8101f6a:	605a      	str	r2, [r3, #4]
 8101f6c:	609a      	str	r2, [r3, #8]

  /* USER CODE BEGIN TIM3_Init 1 */

  /* USER CODE END TIM3_Init 1 */
  htim3.Instance = TIM3;
 8101f6e:	4b21      	ldr	r3, [pc, #132]	; (8101ff4 <MX_TIM3_Init+0xa4>)
 8101f70:	4a21      	ldr	r2, [pc, #132]	; (8101ff8 <MX_TIM3_Init+0xa8>)
 8101f72:	601a      	str	r2, [r3, #0]
  htim3.Init.Prescaler = 0;
 8101f74:	4b1f      	ldr	r3, [pc, #124]	; (8101ff4 <MX_TIM3_Init+0xa4>)
 8101f76:	2200      	movs	r2, #0
 8101f78:	605a      	str	r2, [r3, #4]
  htim3.Init.CounterMode = TIM_COUNTERMODE_UP;
 8101f7a:	4b1e      	ldr	r3, [pc, #120]	; (8101ff4 <MX_TIM3_Init+0xa4>)
 8101f7c:	2200      	movs	r2, #0
 8101f7e:	609a      	str	r2, [r3, #8]
  htim3.Init.Period = 65535;
 8101f80:	4b1c      	ldr	r3, [pc, #112]	; (8101ff4 <MX_TIM3_Init+0xa4>)
 8101f82:	f64f 72ff 	movw	r2, #65535	; 0xffff
 8101f86:	60da      	str	r2, [r3, #12]
  htim3.Init.ClockDivision = TIM_CLOCKDIVISION_DIV1;
 8101f88:	4b1a      	ldr	r3, [pc, #104]	; (8101ff4 <MX_TIM3_Init+0xa4>)
 8101f8a:	2200      	movs	r2, #0
 8101f8c:	611a      	str	r2, [r3, #16]
  htim3.Init.AutoReloadPreload = TIM_AUTORELOAD_PRELOAD_DISABLE;
 8101f8e:	4b19      	ldr	r3, [pc, #100]	; (8101ff4 <MX_TIM3_Init+0xa4>)
 8101f90:	2200      	movs	r2, #0
 8101f92:	619a      	str	r2, [r3, #24]
  sConfig.EncoderMode = TIM_ENCODERMODE_TI1;
 8101f94:	2301      	movs	r3, #1
 8101f96:	60fb      	str	r3, [r7, #12]
  sConfig.IC1Polarity = TIM_ICPOLARITY_RISING;
 8101f98:	2300      	movs	r3, #0
 8101f9a:	613b      	str	r3, [r7, #16]
  sConfig.IC1Selection = TIM_ICSELECTION_DIRECTTI;
 8101f9c:	2301      	movs	r3, #1
 8101f9e:	617b      	str	r3, [r7, #20]
  sConfig.IC1Prescaler = TIM_ICPSC_DIV1;
 8101fa0:	2300      	movs	r3, #0
 8101fa2:	61bb      	str	r3, [r7, #24]
  sConfig.IC1Filter = 0;
 8101fa4:	2300      	movs	r3, #0
 8101fa6:	61fb      	str	r3, [r7, #28]
  sConfig.IC2Polarity = TIM_ICPOLARITY_FALLING;
 8101fa8:	2302      	movs	r3, #2
 8101faa:	623b      	str	r3, [r7, #32]
  sConfig.IC2Selection = TIM_ICSELECTION_DIRECTTI;
 8101fac:	2301      	movs	r3, #1
 8101fae:	627b      	str	r3, [r7, #36]	; 0x24
  sConfig.IC2Prescaler = TIM_ICPSC_DIV1;
 8101fb0:	2300      	movs	r3, #0
 8101fb2:	62bb      	str	r3, [r7, #40]	; 0x28
  sConfig.IC2Filter = 0;
 8101fb4:	2300      	movs	r3, #0
 8101fb6:	62fb      	str	r3, [r7, #44]	; 0x2c
  if (HAL_TIM_Encoder_Init(&htim3, &sConfig) != HAL_OK)
 8101fb8:	f107 030c 	add.w	r3, r7, #12
 8101fbc:	4619      	mov	r1, r3
 8101fbe:	480d      	ldr	r0, [pc, #52]	; (8101ff4 <MX_TIM3_Init+0xa4>)
 8101fc0:	f005 fa9e 	bl	8107500 <HAL_TIM_Encoder_Init>
 8101fc4:	4603      	mov	r3, r0
 8101fc6:	2b00      	cmp	r3, #0
 8101fc8:	d001      	beq.n	8101fce <MX_TIM3_Init+0x7e>
  {
    Error_Handler();
 8101fca:	f7ff fb9d 	bl	8101708 <Error_Handler>
  }
  sMasterConfig.MasterOutputTrigger = TIM_TRGO_RESET;
 8101fce:	2300      	movs	r3, #0
 8101fd0:	603b      	str	r3, [r7, #0]
  sMasterConfig.MasterSlaveMode = TIM_MASTERSLAVEMODE_DISABLE;
 8101fd2:	2300      	movs	r3, #0
 8101fd4:	60bb      	str	r3, [r7, #8]
  if (HAL_TIMEx_MasterConfigSynchronization(&htim3, &sMasterConfig) != HAL_OK)
 8101fd6:	463b      	mov	r3, r7
 8101fd8:	4619      	mov	r1, r3
 8101fda:	4806      	ldr	r0, [pc, #24]	; (8101ff4 <MX_TIM3_Init+0xa4>)
 8101fdc:	f006 f88e 	bl	81080fc <HAL_TIMEx_MasterConfigSynchronization>
 8101fe0:	4603      	mov	r3, r0
 8101fe2:	2b00      	cmp	r3, #0
 8101fe4:	d001      	beq.n	8101fea <MX_TIM3_Init+0x9a>
  {
    Error_Handler();
 8101fe6:	f7ff fb8f 	bl	8101708 <Error_Handler>
  }
  /* USER CODE BEGIN TIM3_Init 2 */

  /* USER CODE END TIM3_Init 2 */

}
 8101fea:	bf00      	nop
 8101fec:	3730      	adds	r7, #48	; 0x30
 8101fee:	46bd      	mov	sp, r7
 8101ff0:	bd80      	pop	{r7, pc}
 8101ff2:	bf00      	nop
 8101ff4:	10000178 	.word	0x10000178
 8101ff8:	40000400 	.word	0x40000400

08101ffc <MX_TIM4_Init>:
/* TIM4 init function */
void MX_TIM4_Init(void)
{
 8101ffc:	b580      	push	{r7, lr}
 8101ffe:	b08c      	sub	sp, #48	; 0x30
 8102000:	af00      	add	r7, sp, #0

  /* USER CODE BEGIN TIM4_Init 0 */

  /* USER CODE END TIM4_Init 0 */

  TIM_Encoder_InitTypeDef sConfig = {0};
 8102002:	f107 030c 	add.w	r3, r7, #12
 8102006:	2224      	movs	r2, #36	; 0x24
 8102008:	2100      	movs	r1, #0
 810200a:	4618      	mov	r0, r3
 810200c:	f007 fa2e 	bl	810946c <memset>
  TIM_MasterConfigTypeDef sMasterConfig = {0};
 8102010:	463b      	mov	r3, r7
 8102012:	2200      	movs	r2, #0
 8102014:	601a      	str	r2, [r3, #0]
 8102016:	605a      	str	r2, [r3, #4]
 8102018:	609a      	str	r2, [r3, #8]

  /* USER CODE BEGIN TIM4_Init 1 */

  /* USER CODE END TIM4_Init 1 */
  htim4.Instance = TIM4;
 810201a:	4b21      	ldr	r3, [pc, #132]	; (81020a0 <MX_TIM4_Init+0xa4>)
 810201c:	4a21      	ldr	r2, [pc, #132]	; (81020a4 <MX_TIM4_Init+0xa8>)
 810201e:	601a      	str	r2, [r3, #0]
  htim4.Init.Prescaler = 0;
 8102020:	4b1f      	ldr	r3, [pc, #124]	; (81020a0 <MX_TIM4_Init+0xa4>)
 8102022:	2200      	movs	r2, #0
 8102024:	605a      	str	r2, [r3, #4]
  htim4.Init.CounterMode = TIM_COUNTERMODE_UP;
 8102026:	4b1e      	ldr	r3, [pc, #120]	; (81020a0 <MX_TIM4_Init+0xa4>)
 8102028:	2200      	movs	r2, #0
 810202a:	609a      	str	r2, [r3, #8]
  htim4.Init.Period = 65535;
 810202c:	4b1c      	ldr	r3, [pc, #112]	; (81020a0 <MX_TIM4_Init+0xa4>)
 810202e:	f64f 72ff 	movw	r2, #65535	; 0xffff
 8102032:	60da      	str	r2, [r3, #12]
  htim4.Init.ClockDivision = TIM_CLOCKDIVISION_DIV1;
 8102034:	4b1a      	ldr	r3, [pc, #104]	; (81020a0 <MX_TIM4_Init+0xa4>)
 8102036:	2200      	movs	r2, #0
 8102038:	611a      	str	r2, [r3, #16]
  htim4.Init.AutoReloadPreload = TIM_AUTORELOAD_PRELOAD_DISABLE;
 810203a:	4b19      	ldr	r3, [pc, #100]	; (81020a0 <MX_TIM4_Init+0xa4>)
 810203c:	2200      	movs	r2, #0
 810203e:	619a      	str	r2, [r3, #24]
  sConfig.EncoderMode = TIM_ENCODERMODE_TI1;
 8102040:	2301      	movs	r3, #1
 8102042:	60fb      	str	r3, [r7, #12]
  sConfig.IC1Polarity = TIM_ICPOLARITY_RISING;
 8102044:	2300      	movs	r3, #0
 8102046:	613b      	str	r3, [r7, #16]
  sConfig.IC1Selection = TIM_ICSELECTION_DIRECTTI;
 8102048:	2301      	movs	r3, #1
 810204a:	617b      	str	r3, [r7, #20]
  sConfig.IC1Prescaler = TIM_ICPSC_DIV1;
 810204c:	2300      	movs	r3, #0
 810204e:	61bb      	str	r3, [r7, #24]
  sConfig.IC1Filter = 0;
 8102050:	2300      	movs	r3, #0
 8102052:	61fb      	str	r3, [r7, #28]
  sConfig.IC2Polarity = TIM_ICPOLARITY_FALLING;
 8102054:	2302      	movs	r3, #2
 8102056:	623b      	str	r3, [r7, #32]
  sConfig.IC2Selection = TIM_ICSELECTION_DIRECTTI;
 8102058:	2301      	movs	r3, #1
 810205a:	627b      	str	r3, [r7, #36]	; 0x24
  sConfig.IC2Prescaler = TIM_ICPSC_DIV1;
 810205c:	2300      	movs	r3, #0
 810205e:	62bb      	str	r3, [r7, #40]	; 0x28
  sConfig.IC2Filter = 0;
 8102060:	2300      	movs	r3, #0
 8102062:	62fb      	str	r3, [r7, #44]	; 0x2c
  if (HAL_TIM_Encoder_Init(&htim4, &sConfig) != HAL_OK)
 8102064:	f107 030c 	add.w	r3, r7, #12
 8102068:	4619      	mov	r1, r3
 810206a:	480d      	ldr	r0, [pc, #52]	; (81020a0 <MX_TIM4_Init+0xa4>)
 810206c:	f005 fa48 	bl	8107500 <HAL_TIM_Encoder_Init>
 8102070:	4603      	mov	r3, r0
 8102072:	2b00      	cmp	r3, #0
 8102074:	d001      	beq.n	810207a <MX_TIM4_Init+0x7e>
  {
    Error_Handler();
 8102076:	f7ff fb47 	bl	8101708 <Error_Handler>
  }
  sMasterConfig.MasterOutputTrigger = TIM_TRGO_RESET;
 810207a:	2300      	movs	r3, #0
 810207c:	603b      	str	r3, [r7, #0]
  sMasterConfig.MasterSlaveMode = TIM_MASTERSLAVEMODE_DISABLE;
 810207e:	2300      	movs	r3, #0
 8102080:	60bb      	str	r3, [r7, #8]
  if (HAL_TIMEx_MasterConfigSynchronization(&htim4, &sMasterConfig) != HAL_OK)
 8102082:	463b      	mov	r3, r7
 8102084:	4619      	mov	r1, r3
 8102086:	4806      	ldr	r0, [pc, #24]	; (81020a0 <MX_TIM4_Init+0xa4>)
 8102088:	f006 f838 	bl	81080fc <HAL_TIMEx_MasterConfigSynchronization>
 810208c:	4603      	mov	r3, r0
 810208e:	2b00      	cmp	r3, #0
 8102090:	d001      	beq.n	8102096 <MX_TIM4_Init+0x9a>
  {
    Error_Handler();
 8102092:	f7ff fb39 	bl	8101708 <Error_Handler>
  }
  /* USER CODE BEGIN TIM4_Init 2 */

  /* USER CODE END TIM4_Init 2 */

}
 8102096:	bf00      	nop
 8102098:	3730      	adds	r7, #48	; 0x30
 810209a:	46bd      	mov	sp, r7
 810209c:	bd80      	pop	{r7, pc}
 810209e:	bf00      	nop
 81020a0:	100001c4 	.word	0x100001c4
 81020a4:	40000800 	.word	0x40000800

081020a8 <MX_TIM13_Init>:
/* TIM13 init function */
void MX_TIM13_Init(void)
{
 81020a8:	b580      	push	{r7, lr}
 81020aa:	b088      	sub	sp, #32
 81020ac:	af00      	add	r7, sp, #0

  /* USER CODE BEGIN TIM13_Init 0 */

  /* USER CODE END TIM13_Init 0 */

  TIM_OC_InitTypeDef sConfigOC = {0};
 81020ae:	1d3b      	adds	r3, r7, #4
 81020b0:	2200      	movs	r2, #0
 81020b2:	601a      	str	r2, [r3, #0]
 81020b4:	605a      	str	r2, [r3, #4]
 81020b6:	609a      	str	r2, [r3, #8]
 81020b8:	60da      	str	r2, [r3, #12]
 81020ba:	611a      	str	r2, [r3, #16]
 81020bc:	615a      	str	r2, [r3, #20]
 81020be:	619a      	str	r2, [r3, #24]

  /* USER CODE BEGIN TIM13_Init 1 */

  /* USER CODE END TIM13_Init 1 */
  htim13.Instance = TIM13;
 81020c0:	4b1e      	ldr	r3, [pc, #120]	; (810213c <MX_TIM13_Init+0x94>)
 81020c2:	4a1f      	ldr	r2, [pc, #124]	; (8102140 <MX_TIM13_Init+0x98>)
 81020c4:	601a      	str	r2, [r3, #0]
  htim13.Init.Prescaler = 80-1;
 81020c6:	4b1d      	ldr	r3, [pc, #116]	; (810213c <MX_TIM13_Init+0x94>)
 81020c8:	224f      	movs	r2, #79	; 0x4f
 81020ca:	605a      	str	r2, [r3, #4]
  htim13.Init.CounterMode = TIM_COUNTERMODE_UP;
 81020cc:	4b1b      	ldr	r3, [pc, #108]	; (810213c <MX_TIM13_Init+0x94>)
 81020ce:	2200      	movs	r2, #0
 81020d0:	609a      	str	r2, [r3, #8]
  htim13.Init.Period = 60000-1;
 81020d2:	4b1a      	ldr	r3, [pc, #104]	; (810213c <MX_TIM13_Init+0x94>)
 81020d4:	f64e 225f 	movw	r2, #59999	; 0xea5f
 81020d8:	60da      	str	r2, [r3, #12]
  htim13.Init.ClockDivision = TIM_CLOCKDIVISION_DIV1;
 81020da:	4b18      	ldr	r3, [pc, #96]	; (810213c <MX_TIM13_Init+0x94>)
 81020dc:	2200      	movs	r2, #0
 81020de:	611a      	str	r2, [r3, #16]
  htim13.Init.AutoReloadPreload = TIM_AUTORELOAD_PRELOAD_DISABLE;
 81020e0:	4b16      	ldr	r3, [pc, #88]	; (810213c <MX_TIM13_Init+0x94>)
 81020e2:	2200      	movs	r2, #0
 81020e4:	619a      	str	r2, [r3, #24]
  if (HAL_TIM_Base_Init(&htim13) != HAL_OK)
 81020e6:	4815      	ldr	r0, [pc, #84]	; (810213c <MX_TIM13_Init+0x94>)
 81020e8:	f005 f84e 	bl	8107188 <HAL_TIM_Base_Init>
 81020ec:	4603      	mov	r3, r0
 81020ee:	2b00      	cmp	r3, #0
 81020f0:	d001      	beq.n	81020f6 <MX_TIM13_Init+0x4e>
  {
    Error_Handler();
 81020f2:	f7ff fb09 	bl	8101708 <Error_Handler>
  }
  if (HAL_TIM_PWM_Init(&htim13) != HAL_OK)
 81020f6:	4811      	ldr	r0, [pc, #68]	; (810213c <MX_TIM13_Init+0x94>)
 81020f8:	f005 f89d 	bl	8107236 <HAL_TIM_PWM_Init>
 81020fc:	4603      	mov	r3, r0
 81020fe:	2b00      	cmp	r3, #0
 8102100:	d001      	beq.n	8102106 <MX_TIM13_Init+0x5e>
  {
    Error_Handler();
 8102102:	f7ff fb01 	bl	8101708 <Error_Handler>
  }
  sConfigOC.OCMode = TIM_OCMODE_PWM1;
 8102106:	2360      	movs	r3, #96	; 0x60
 8102108:	607b      	str	r3, [r7, #4]
  sConfigOC.Pulse = 0;
 810210a:	2300      	movs	r3, #0
 810210c:	60bb      	str	r3, [r7, #8]
  sConfigOC.OCPolarity = TIM_OCPOLARITY_HIGH;
 810210e:	2300      	movs	r3, #0
 8102110:	60fb      	str	r3, [r7, #12]
  sConfigOC.OCFastMode = TIM_OCFAST_DISABLE;
 8102112:	2300      	movs	r3, #0
 8102114:	617b      	str	r3, [r7, #20]
  if (HAL_TIM_PWM_ConfigChannel(&htim13, &sConfigOC, TIM_CHANNEL_1) != HAL_OK)
 8102116:	1d3b      	adds	r3, r7, #4
 8102118:	2200      	movs	r2, #0
 810211a:	4619      	mov	r1, r3
 810211c:	4807      	ldr	r0, [pc, #28]	; (810213c <MX_TIM13_Init+0x94>)
 810211e:	f005 fb43 	bl	81077a8 <HAL_TIM_PWM_ConfigChannel>
 8102122:	4603      	mov	r3, r0
 8102124:	2b00      	cmp	r3, #0
 8102126:	d001      	beq.n	810212c <MX_TIM13_Init+0x84>
  {
    Error_Handler();
 8102128:	f7ff faee 	bl	8101708 <Error_Handler>
  }
  /* USER CODE BEGIN TIM13_Init 2 */

  /* USER CODE END TIM13_Init 2 */
  HAL_TIM_MspPostInit(&htim13);
 810212c:	4803      	ldr	r0, [pc, #12]	; (810213c <MX_TIM13_Init+0x94>)
 810212e:	f000 f955 	bl	81023dc <HAL_TIM_MspPostInit>

}
 8102132:	bf00      	nop
 8102134:	3720      	adds	r7, #32
 8102136:	46bd      	mov	sp, r7
 8102138:	bd80      	pop	{r7, pc}
 810213a:	bf00      	nop
 810213c:	10000210 	.word	0x10000210
 8102140:	40001c00 	.word	0x40001c00

08102144 <MX_TIM14_Init>:
/* TIM14 init function */
void MX_TIM14_Init(void)
{
 8102144:	b580      	push	{r7, lr}
 8102146:	b088      	sub	sp, #32
 8102148:	af00      	add	r7, sp, #0

  /* USER CODE BEGIN TIM14_Init 0 */

  /* USER CODE END TIM14_Init 0 */

  TIM_OC_InitTypeDef sConfigOC = {0};
 810214a:	1d3b      	adds	r3, r7, #4
 810214c:	2200      	movs	r2, #0
 810214e:	601a      	str	r2, [r3, #0]
 8102150:	605a      	str	r2, [r3, #4]
 8102152:	609a      	str	r2, [r3, #8]
 8102154:	60da      	str	r2, [r3, #12]
 8102156:	611a      	str	r2, [r3, #16]
 8102158:	615a      	str	r2, [r3, #20]
 810215a:	619a      	str	r2, [r3, #24]

  /* USER CODE BEGIN TIM14_Init 1 */

  /* USER CODE END TIM14_Init 1 */
  htim14.Instance = TIM14;
 810215c:	4b1e      	ldr	r3, [pc, #120]	; (81021d8 <MX_TIM14_Init+0x94>)
 810215e:	4a1f      	ldr	r2, [pc, #124]	; (81021dc <MX_TIM14_Init+0x98>)
 8102160:	601a      	str	r2, [r3, #0]
  htim14.Init.Prescaler = 80-1;
 8102162:	4b1d      	ldr	r3, [pc, #116]	; (81021d8 <MX_TIM14_Init+0x94>)
 8102164:	224f      	movs	r2, #79	; 0x4f
 8102166:	605a      	str	r2, [r3, #4]
  htim14.Init.CounterMode = TIM_COUNTERMODE_UP;
 8102168:	4b1b      	ldr	r3, [pc, #108]	; (81021d8 <MX_TIM14_Init+0x94>)
 810216a:	2200      	movs	r2, #0
 810216c:	609a      	str	r2, [r3, #8]
  htim14.Init.Period = 60000-1;
 810216e:	4b1a      	ldr	r3, [pc, #104]	; (81021d8 <MX_TIM14_Init+0x94>)
 8102170:	f64e 225f 	movw	r2, #59999	; 0xea5f
 8102174:	60da      	str	r2, [r3, #12]
  htim14.Init.ClockDivision = TIM_CLOCKDIVISION_DIV1;
 8102176:	4b18      	ldr	r3, [pc, #96]	; (81021d8 <MX_TIM14_Init+0x94>)
 8102178:	2200      	movs	r2, #0
 810217a:	611a      	str	r2, [r3, #16]
  htim14.Init.AutoReloadPreload = TIM_AUTORELOAD_PRELOAD_DISABLE;
 810217c:	4b16      	ldr	r3, [pc, #88]	; (81021d8 <MX_TIM14_Init+0x94>)
 810217e:	2200      	movs	r2, #0
 8102180:	619a      	str	r2, [r3, #24]
  if (HAL_TIM_Base_Init(&htim14) != HAL_OK)
 8102182:	4815      	ldr	r0, [pc, #84]	; (81021d8 <MX_TIM14_Init+0x94>)
 8102184:	f005 f800 	bl	8107188 <HAL_TIM_Base_Init>
 8102188:	4603      	mov	r3, r0
 810218a:	2b00      	cmp	r3, #0
 810218c:	d001      	beq.n	8102192 <MX_TIM14_Init+0x4e>
  {
    Error_Handler();
 810218e:	f7ff fabb 	bl	8101708 <Error_Handler>
  }
  if (HAL_TIM_PWM_Init(&htim14) != HAL_OK)
 8102192:	4811      	ldr	r0, [pc, #68]	; (81021d8 <MX_TIM14_Init+0x94>)
 8102194:	f005 f84f 	bl	8107236 <HAL_TIM_PWM_Init>
 8102198:	4603      	mov	r3, r0
 810219a:	2b00      	cmp	r3, #0
 810219c:	d001      	beq.n	81021a2 <MX_TIM14_Init+0x5e>
  {
    Error_Handler();
 810219e:	f7ff fab3 	bl	8101708 <Error_Handler>
  }
  sConfigOC.OCMode = TIM_OCMODE_PWM1;
 81021a2:	2360      	movs	r3, #96	; 0x60
 81021a4:	607b      	str	r3, [r7, #4]
  sConfigOC.Pulse = 0;
 81021a6:	2300      	movs	r3, #0
 81021a8:	60bb      	str	r3, [r7, #8]
  sConfigOC.OCPolarity = TIM_OCPOLARITY_HIGH;
 81021aa:	2300      	movs	r3, #0
 81021ac:	60fb      	str	r3, [r7, #12]
  sConfigOC.OCFastMode = TIM_OCFAST_DISABLE;
 81021ae:	2300      	movs	r3, #0
 81021b0:	617b      	str	r3, [r7, #20]
  if (HAL_TIM_PWM_ConfigChannel(&htim14, &sConfigOC, TIM_CHANNEL_1) != HAL_OK)
 81021b2:	1d3b      	adds	r3, r7, #4
 81021b4:	2200      	movs	r2, #0
 81021b6:	4619      	mov	r1, r3
 81021b8:	4807      	ldr	r0, [pc, #28]	; (81021d8 <MX_TIM14_Init+0x94>)
 81021ba:	f005 faf5 	bl	81077a8 <HAL_TIM_PWM_ConfigChannel>
 81021be:	4603      	mov	r3, r0
 81021c0:	2b00      	cmp	r3, #0
 81021c2:	d001      	beq.n	81021c8 <MX_TIM14_Init+0x84>
  {
    Error_Handler();
 81021c4:	f7ff faa0 	bl	8101708 <Error_Handler>
  }
  /* USER CODE BEGIN TIM14_Init 2 */

  /* USER CODE END TIM14_Init 2 */
  HAL_TIM_MspPostInit(&htim14);
 81021c8:	4803      	ldr	r0, [pc, #12]	; (81021d8 <MX_TIM14_Init+0x94>)
 81021ca:	f000 f907 	bl	81023dc <HAL_TIM_MspPostInit>

}
 81021ce:	bf00      	nop
 81021d0:	3720      	adds	r7, #32
 81021d2:	46bd      	mov	sp, r7
 81021d4:	bd80      	pop	{r7, pc}
 81021d6:	bf00      	nop
 81021d8:	1000025c 	.word	0x1000025c
 81021dc:	40002000 	.word	0x40002000

081021e0 <HAL_TIM_PWM_MspInit>:

void HAL_TIM_PWM_MspInit(TIM_HandleTypeDef* tim_pwmHandle)
{
 81021e0:	b480      	push	{r7}
 81021e2:	b085      	sub	sp, #20
 81021e4:	af00      	add	r7, sp, #0
 81021e6:	6078      	str	r0, [r7, #4]

  if(tim_pwmHandle->Instance==TIM2)
 81021e8:	687b      	ldr	r3, [r7, #4]
 81021ea:	681b      	ldr	r3, [r3, #0]
 81021ec:	f1b3 4f80 	cmp.w	r3, #1073741824	; 0x40000000
 81021f0:	d10e      	bne.n	8102210 <HAL_TIM_PWM_MspInit+0x30>
  {
  /* USER CODE BEGIN TIM2_MspInit 0 */

  /* USER CODE END TIM2_MspInit 0 */
    /* TIM2 clock enable */
    __HAL_RCC_TIM2_CLK_ENABLE();
 81021f2:	4b0a      	ldr	r3, [pc, #40]	; (810221c <HAL_TIM_PWM_MspInit+0x3c>)
 81021f4:	f8d3 30e8 	ldr.w	r3, [r3, #232]	; 0xe8
 81021f8:	4a08      	ldr	r2, [pc, #32]	; (810221c <HAL_TIM_PWM_MspInit+0x3c>)
 81021fa:	f043 0301 	orr.w	r3, r3, #1
 81021fe:	f8c2 30e8 	str.w	r3, [r2, #232]	; 0xe8
 8102202:	4b06      	ldr	r3, [pc, #24]	; (810221c <HAL_TIM_PWM_MspInit+0x3c>)
 8102204:	f8d3 30e8 	ldr.w	r3, [r3, #232]	; 0xe8
 8102208:	f003 0301 	and.w	r3, r3, #1
 810220c:	60fb      	str	r3, [r7, #12]
 810220e:	68fb      	ldr	r3, [r7, #12]
  /* USER CODE BEGIN TIM2_MspInit 1 */

  /* USER CODE END TIM2_MspInit 1 */
  }
}
 8102210:	bf00      	nop
 8102212:	3714      	adds	r7, #20
 8102214:	46bd      	mov	sp, r7
 8102216:	f85d 7b04 	ldr.w	r7, [sp], #4
 810221a:	4770      	bx	lr
 810221c:	58024400 	.word	0x58024400

08102220 <HAL_TIM_Encoder_MspInit>:

void HAL_TIM_Encoder_MspInit(TIM_HandleTypeDef* tim_encoderHandle)
{
 8102220:	b580      	push	{r7, lr}
 8102222:	b08c      	sub	sp, #48	; 0x30
 8102224:	af00      	add	r7, sp, #0
 8102226:	6078      	str	r0, [r7, #4]

  GPIO_InitTypeDef GPIO_InitStruct = {0};
 8102228:	f107 031c 	add.w	r3, r7, #28
 810222c:	2200      	movs	r2, #0
 810222e:	601a      	str	r2, [r3, #0]
 8102230:	605a      	str	r2, [r3, #4]
 8102232:	609a      	str	r2, [r3, #8]
 8102234:	60da      	str	r2, [r3, #12]
 8102236:	611a      	str	r2, [r3, #16]
  if(tim_encoderHandle->Instance==TIM3)
 8102238:	687b      	ldr	r3, [r7, #4]
 810223a:	681b      	ldr	r3, [r3, #0]
 810223c:	4a44      	ldr	r2, [pc, #272]	; (8102350 <HAL_TIM_Encoder_MspInit+0x130>)
 810223e:	4293      	cmp	r3, r2
 8102240:	d14d      	bne.n	81022de <HAL_TIM_Encoder_MspInit+0xbe>
  {
  /* USER CODE BEGIN TIM3_MspInit 0 */

  /* USER CODE END TIM3_MspInit 0 */
    /* TIM3 clock enable */
    __HAL_RCC_TIM3_CLK_ENABLE();
 8102242:	4b44      	ldr	r3, [pc, #272]	; (8102354 <HAL_TIM_Encoder_MspInit+0x134>)
 8102244:	f8d3 30e8 	ldr.w	r3, [r3, #232]	; 0xe8
 8102248:	4a42      	ldr	r2, [pc, #264]	; (8102354 <HAL_TIM_Encoder_MspInit+0x134>)
 810224a:	f043 0302 	orr.w	r3, r3, #2
 810224e:	f8c2 30e8 	str.w	r3, [r2, #232]	; 0xe8
 8102252:	4b40      	ldr	r3, [pc, #256]	; (8102354 <HAL_TIM_Encoder_MspInit+0x134>)
 8102254:	f8d3 30e8 	ldr.w	r3, [r3, #232]	; 0xe8
 8102258:	f003 0302 	and.w	r3, r3, #2
 810225c:	61bb      	str	r3, [r7, #24]
 810225e:	69bb      	ldr	r3, [r7, #24]

    __HAL_RCC_GPIOA_CLK_ENABLE();
 8102260:	4b3c      	ldr	r3, [pc, #240]	; (8102354 <HAL_TIM_Encoder_MspInit+0x134>)
 8102262:	f8d3 30e0 	ldr.w	r3, [r3, #224]	; 0xe0
 8102266:	4a3b      	ldr	r2, [pc, #236]	; (8102354 <HAL_TIM_Encoder_MspInit+0x134>)
 8102268:	f043 0301 	orr.w	r3, r3, #1
 810226c:	f8c2 30e0 	str.w	r3, [r2, #224]	; 0xe0
 8102270:	4b38      	ldr	r3, [pc, #224]	; (8102354 <HAL_TIM_Encoder_MspInit+0x134>)
 8102272:	f8d3 30e0 	ldr.w	r3, [r3, #224]	; 0xe0
 8102276:	f003 0301 	and.w	r3, r3, #1
 810227a:	617b      	str	r3, [r7, #20]
 810227c:	697b      	ldr	r3, [r7, #20]
    __HAL_RCC_GPIOB_CLK_ENABLE();
 810227e:	4b35      	ldr	r3, [pc, #212]	; (8102354 <HAL_TIM_Encoder_MspInit+0x134>)
 8102280:	f8d3 30e0 	ldr.w	r3, [r3, #224]	; 0xe0
 8102284:	4a33      	ldr	r2, [pc, #204]	; (8102354 <HAL_TIM_Encoder_MspInit+0x134>)
 8102286:	f043 0302 	orr.w	r3, r3, #2
 810228a:	f8c2 30e0 	str.w	r3, [r2, #224]	; 0xe0
 810228e:	4b31      	ldr	r3, [pc, #196]	; (8102354 <HAL_TIM_Encoder_MspInit+0x134>)
 8102290:	f8d3 30e0 	ldr.w	r3, [r3, #224]	; 0xe0
 8102294:	f003 0302 	and.w	r3, r3, #2
 8102298:	613b      	str	r3, [r7, #16]
 810229a:	693b      	ldr	r3, [r7, #16]
    /**TIM3 GPIO Configuration
    PA6     ------> TIM3_CH1
    PB5     ------> TIM3_CH2
    */
    GPIO_InitStruct.Pin = Encoder_X_A_Pin;
 810229c:	2340      	movs	r3, #64	; 0x40
 810229e:	61fb      	str	r3, [r7, #28]
    GPIO_InitStruct.Mode = GPIO_MODE_AF_PP;
 81022a0:	2302      	movs	r3, #2
 81022a2:	623b      	str	r3, [r7, #32]
    GPIO_InitStruct.Pull = GPIO_NOPULL;
 81022a4:	2300      	movs	r3, #0
 81022a6:	627b      	str	r3, [r7, #36]	; 0x24
    GPIO_InitStruct.Speed = GPIO_SPEED_FREQ_LOW;
 81022a8:	2300      	movs	r3, #0
 81022aa:	62bb      	str	r3, [r7, #40]	; 0x28
    GPIO_InitStruct.Alternate = GPIO_AF2_TIM3;
 81022ac:	2302      	movs	r3, #2
 81022ae:	62fb      	str	r3, [r7, #44]	; 0x2c
    HAL_GPIO_Init(Encoder_X_A_GPIO_Port, &GPIO_InitStruct);
 81022b0:	f107 031c 	add.w	r3, r7, #28
 81022b4:	4619      	mov	r1, r3
 81022b6:	4828      	ldr	r0, [pc, #160]	; (8102358 <HAL_TIM_Encoder_MspInit+0x138>)
 81022b8:	f002 f962 	bl	8104580 <HAL_GPIO_Init>

    GPIO_InitStruct.Pin = Encoder_X_B_Pin;
 81022bc:	2320      	movs	r3, #32
 81022be:	61fb      	str	r3, [r7, #28]
    GPIO_InitStruct.Mode = GPIO_MODE_AF_PP;
 81022c0:	2302      	movs	r3, #2
 81022c2:	623b      	str	r3, [r7, #32]
    GPIO_InitStruct.Pull = GPIO_NOPULL;
 81022c4:	2300      	movs	r3, #0
 81022c6:	627b      	str	r3, [r7, #36]	; 0x24
    GPIO_InitStruct.Speed = GPIO_SPEED_FREQ_LOW;
 81022c8:	2300      	movs	r3, #0
 81022ca:	62bb      	str	r3, [r7, #40]	; 0x28
    GPIO_InitStruct.Alternate = GPIO_AF2_TIM3;
 81022cc:	2302      	movs	r3, #2
 81022ce:	62fb      	str	r3, [r7, #44]	; 0x2c
    HAL_GPIO_Init(Encoder_X_B_GPIO_Port, &GPIO_InitStruct);
 81022d0:	f107 031c 	add.w	r3, r7, #28
 81022d4:	4619      	mov	r1, r3
 81022d6:	4821      	ldr	r0, [pc, #132]	; (810235c <HAL_TIM_Encoder_MspInit+0x13c>)
 81022d8:	f002 f952 	bl	8104580 <HAL_GPIO_Init>

  /* USER CODE BEGIN TIM4_MspInit 1 */

  /* USER CODE END TIM4_MspInit 1 */
  }
}
 81022dc:	e033      	b.n	8102346 <HAL_TIM_Encoder_MspInit+0x126>
  else if(tim_encoderHandle->Instance==TIM4)
 81022de:	687b      	ldr	r3, [r7, #4]
 81022e0:	681b      	ldr	r3, [r3, #0]
 81022e2:	4a1f      	ldr	r2, [pc, #124]	; (8102360 <HAL_TIM_Encoder_MspInit+0x140>)
 81022e4:	4293      	cmp	r3, r2
 81022e6:	d12e      	bne.n	8102346 <HAL_TIM_Encoder_MspInit+0x126>
    __HAL_RCC_TIM4_CLK_ENABLE();
 81022e8:	4b1a      	ldr	r3, [pc, #104]	; (8102354 <HAL_TIM_Encoder_MspInit+0x134>)
 81022ea:	f8d3 30e8 	ldr.w	r3, [r3, #232]	; 0xe8
 81022ee:	4a19      	ldr	r2, [pc, #100]	; (8102354 <HAL_TIM_Encoder_MspInit+0x134>)
 81022f0:	f043 0304 	orr.w	r3, r3, #4
 81022f4:	f8c2 30e8 	str.w	r3, [r2, #232]	; 0xe8
 81022f8:	4b16      	ldr	r3, [pc, #88]	; (8102354 <HAL_TIM_Encoder_MspInit+0x134>)
 81022fa:	f8d3 30e8 	ldr.w	r3, [r3, #232]	; 0xe8
 81022fe:	f003 0304 	and.w	r3, r3, #4
 8102302:	60fb      	str	r3, [r7, #12]
 8102304:	68fb      	ldr	r3, [r7, #12]
    __HAL_RCC_GPIOD_CLK_ENABLE();
 8102306:	4b13      	ldr	r3, [pc, #76]	; (8102354 <HAL_TIM_Encoder_MspInit+0x134>)
 8102308:	f8d3 30e0 	ldr.w	r3, [r3, #224]	; 0xe0
 810230c:	4a11      	ldr	r2, [pc, #68]	; (8102354 <HAL_TIM_Encoder_MspInit+0x134>)
 810230e:	f043 0308 	orr.w	r3, r3, #8
 8102312:	f8c2 30e0 	str.w	r3, [r2, #224]	; 0xe0
 8102316:	4b0f      	ldr	r3, [pc, #60]	; (8102354 <HAL_TIM_Encoder_MspInit+0x134>)
 8102318:	f8d3 30e0 	ldr.w	r3, [r3, #224]	; 0xe0
 810231c:	f003 0308 	and.w	r3, r3, #8
 8102320:	60bb      	str	r3, [r7, #8]
 8102322:	68bb      	ldr	r3, [r7, #8]
    GPIO_InitStruct.Pin = Encoder_Z_A_Pin|Encoder_Z_B_Pin;
 8102324:	f44f 5340 	mov.w	r3, #12288	; 0x3000
 8102328:	61fb      	str	r3, [r7, #28]
    GPIO_InitStruct.Mode = GPIO_MODE_AF_PP;
 810232a:	2302      	movs	r3, #2
 810232c:	623b      	str	r3, [r7, #32]
    GPIO_InitStruct.Pull = GPIO_NOPULL;
 810232e:	2300      	movs	r3, #0
 8102330:	627b      	str	r3, [r7, #36]	; 0x24
    GPIO_InitStruct.Speed = GPIO_SPEED_FREQ_LOW;
 8102332:	2300      	movs	r3, #0
 8102334:	62bb      	str	r3, [r7, #40]	; 0x28
    GPIO_InitStruct.Alternate = GPIO_AF2_TIM4;
 8102336:	2302      	movs	r3, #2
 8102338:	62fb      	str	r3, [r7, #44]	; 0x2c
    HAL_GPIO_Init(GPIOD, &GPIO_InitStruct);
 810233a:	f107 031c 	add.w	r3, r7, #28
 810233e:	4619      	mov	r1, r3
 8102340:	4808      	ldr	r0, [pc, #32]	; (8102364 <HAL_TIM_Encoder_MspInit+0x144>)
 8102342:	f002 f91d 	bl	8104580 <HAL_GPIO_Init>
}
 8102346:	bf00      	nop
 8102348:	3730      	adds	r7, #48	; 0x30
 810234a:	46bd      	mov	sp, r7
 810234c:	bd80      	pop	{r7, pc}
 810234e:	bf00      	nop
 8102350:	40000400 	.word	0x40000400
 8102354:	58024400 	.word	0x58024400
 8102358:	58020000 	.word	0x58020000
 810235c:	58020400 	.word	0x58020400
 8102360:	40000800 	.word	0x40000800
 8102364:	58020c00 	.word	0x58020c00

08102368 <HAL_TIM_Base_MspInit>:

void HAL_TIM_Base_MspInit(TIM_HandleTypeDef* tim_baseHandle)
{
 8102368:	b480      	push	{r7}
 810236a:	b085      	sub	sp, #20
 810236c:	af00      	add	r7, sp, #0
 810236e:	6078      	str	r0, [r7, #4]

  if(tim_baseHandle->Instance==TIM13)
 8102370:	687b      	ldr	r3, [r7, #4]
 8102372:	681b      	ldr	r3, [r3, #0]
 8102374:	4a16      	ldr	r2, [pc, #88]	; (81023d0 <HAL_TIM_Base_MspInit+0x68>)
 8102376:	4293      	cmp	r3, r2
 8102378:	d10f      	bne.n	810239a <HAL_TIM_Base_MspInit+0x32>
  {
  /* USER CODE BEGIN TIM13_MspInit 0 */

  /* USER CODE END TIM13_MspInit 0 */
    /* TIM13 clock enable */
    __HAL_RCC_TIM13_CLK_ENABLE();
 810237a:	4b16      	ldr	r3, [pc, #88]	; (81023d4 <HAL_TIM_Base_MspInit+0x6c>)
 810237c:	f8d3 30e8 	ldr.w	r3, [r3, #232]	; 0xe8
 8102380:	4a14      	ldr	r2, [pc, #80]	; (81023d4 <HAL_TIM_Base_MspInit+0x6c>)
 8102382:	f043 0380 	orr.w	r3, r3, #128	; 0x80
 8102386:	f8c2 30e8 	str.w	r3, [r2, #232]	; 0xe8
 810238a:	4b12      	ldr	r3, [pc, #72]	; (81023d4 <HAL_TIM_Base_MspInit+0x6c>)
 810238c:	f8d3 30e8 	ldr.w	r3, [r3, #232]	; 0xe8
 8102390:	f003 0380 	and.w	r3, r3, #128	; 0x80
 8102394:	60fb      	str	r3, [r7, #12]
 8102396:	68fb      	ldr	r3, [r7, #12]
    __HAL_RCC_TIM14_CLK_ENABLE();
  /* USER CODE BEGIN TIM14_MspInit 1 */

  /* USER CODE END TIM14_MspInit 1 */
  }
}
 8102398:	e013      	b.n	81023c2 <HAL_TIM_Base_MspInit+0x5a>
  else if(tim_baseHandle->Instance==TIM14)
 810239a:	687b      	ldr	r3, [r7, #4]
 810239c:	681b      	ldr	r3, [r3, #0]
 810239e:	4a0e      	ldr	r2, [pc, #56]	; (81023d8 <HAL_TIM_Base_MspInit+0x70>)
 81023a0:	4293      	cmp	r3, r2
 81023a2:	d10e      	bne.n	81023c2 <HAL_TIM_Base_MspInit+0x5a>
    __HAL_RCC_TIM14_CLK_ENABLE();
 81023a4:	4b0b      	ldr	r3, [pc, #44]	; (81023d4 <HAL_TIM_Base_MspInit+0x6c>)
 81023a6:	f8d3 30e8 	ldr.w	r3, [r3, #232]	; 0xe8
 81023aa:	4a0a      	ldr	r2, [pc, #40]	; (81023d4 <HAL_TIM_Base_MspInit+0x6c>)
 81023ac:	f443 7380 	orr.w	r3, r3, #256	; 0x100
 81023b0:	f8c2 30e8 	str.w	r3, [r2, #232]	; 0xe8
 81023b4:	4b07      	ldr	r3, [pc, #28]	; (81023d4 <HAL_TIM_Base_MspInit+0x6c>)
 81023b6:	f8d3 30e8 	ldr.w	r3, [r3, #232]	; 0xe8
 81023ba:	f403 7380 	and.w	r3, r3, #256	; 0x100
 81023be:	60bb      	str	r3, [r7, #8]
 81023c0:	68bb      	ldr	r3, [r7, #8]
}
 81023c2:	bf00      	nop
 81023c4:	3714      	adds	r7, #20
 81023c6:	46bd      	mov	sp, r7
 81023c8:	f85d 7b04 	ldr.w	r7, [sp], #4
 81023cc:	4770      	bx	lr
 81023ce:	bf00      	nop
 81023d0:	40001c00 	.word	0x40001c00
 81023d4:	58024400 	.word	0x58024400
 81023d8:	40002000 	.word	0x40002000

081023dc <HAL_TIM_MspPostInit>:
void HAL_TIM_MspPostInit(TIM_HandleTypeDef* timHandle)
{
 81023dc:	b580      	push	{r7, lr}
 81023de:	b08a      	sub	sp, #40	; 0x28
 81023e0:	af00      	add	r7, sp, #0
 81023e2:	6078      	str	r0, [r7, #4]

  GPIO_InitTypeDef GPIO_InitStruct = {0};
 81023e4:	f107 0314 	add.w	r3, r7, #20
 81023e8:	2200      	movs	r2, #0
 81023ea:	601a      	str	r2, [r3, #0]
 81023ec:	605a      	str	r2, [r3, #4]
 81023ee:	609a      	str	r2, [r3, #8]
 81023f0:	60da      	str	r2, [r3, #12]
 81023f2:	611a      	str	r2, [r3, #16]
  if(timHandle->Instance==TIM2)
 81023f4:	687b      	ldr	r3, [r7, #4]
 81023f6:	681b      	ldr	r3, [r3, #0]
 81023f8:	f1b3 4f80 	cmp.w	r3, #1073741824	; 0x40000000
 81023fc:	d120      	bne.n	8102440 <HAL_TIM_MspPostInit+0x64>
  {
  /* USER CODE BEGIN TIM2_MspPostInit 0 */

  /* USER CODE END TIM2_MspPostInit 0 */
    __HAL_RCC_GPIOB_CLK_ENABLE();
 81023fe:	4b38      	ldr	r3, [pc, #224]	; (81024e0 <HAL_TIM_MspPostInit+0x104>)
 8102400:	f8d3 30e0 	ldr.w	r3, [r3, #224]	; 0xe0
 8102404:	4a36      	ldr	r2, [pc, #216]	; (81024e0 <HAL_TIM_MspPostInit+0x104>)
 8102406:	f043 0302 	orr.w	r3, r3, #2
 810240a:	f8c2 30e0 	str.w	r3, [r2, #224]	; 0xe0
 810240e:	4b34      	ldr	r3, [pc, #208]	; (81024e0 <HAL_TIM_MspPostInit+0x104>)
 8102410:	f8d3 30e0 	ldr.w	r3, [r3, #224]	; 0xe0
 8102414:	f003 0302 	and.w	r3, r3, #2
 8102418:	613b      	str	r3, [r7, #16]
 810241a:	693b      	ldr	r3, [r7, #16]
    /**TIM2 GPIO Configuration
    PB10     ------> TIM2_CH3
    PB11     ------> TIM2_CH4
    */
    GPIO_InitStruct.Pin = PWM_X_Pin|PWM_Z_Pin;
 810241c:	f44f 6340 	mov.w	r3, #3072	; 0xc00
 8102420:	617b      	str	r3, [r7, #20]
    GPIO_InitStruct.Mode = GPIO_MODE_AF_PP;
 8102422:	2302      	movs	r3, #2
 8102424:	61bb      	str	r3, [r7, #24]
    GPIO_InitStruct.Pull = GPIO_NOPULL;
 8102426:	2300      	movs	r3, #0
 8102428:	61fb      	str	r3, [r7, #28]
    GPIO_InitStruct.Speed = GPIO_SPEED_FREQ_LOW;
 810242a:	2300      	movs	r3, #0
 810242c:	623b      	str	r3, [r7, #32]
    GPIO_InitStruct.Alternate = GPIO_AF1_TIM2;
 810242e:	2301      	movs	r3, #1
 8102430:	627b      	str	r3, [r7, #36]	; 0x24
    HAL_GPIO_Init(GPIOB, &GPIO_InitStruct);
 8102432:	f107 0314 	add.w	r3, r7, #20
 8102436:	4619      	mov	r1, r3
 8102438:	482a      	ldr	r0, [pc, #168]	; (81024e4 <HAL_TIM_MspPostInit+0x108>)
 810243a:	f002 f8a1 	bl	8104580 <HAL_GPIO_Init>
  /* USER CODE BEGIN TIM14_MspPostInit 1 */

  /* USER CODE END TIM14_MspPostInit 1 */
  }

}
 810243e:	e04a      	b.n	81024d6 <HAL_TIM_MspPostInit+0xfa>
  else if(timHandle->Instance==TIM13)
 8102440:	687b      	ldr	r3, [r7, #4]
 8102442:	681b      	ldr	r3, [r3, #0]
 8102444:	4a28      	ldr	r2, [pc, #160]	; (81024e8 <HAL_TIM_MspPostInit+0x10c>)
 8102446:	4293      	cmp	r3, r2
 8102448:	d120      	bne.n	810248c <HAL_TIM_MspPostInit+0xb0>
    __HAL_RCC_GPIOF_CLK_ENABLE();
 810244a:	4b25      	ldr	r3, [pc, #148]	; (81024e0 <HAL_TIM_MspPostInit+0x104>)
 810244c:	f8d3 30e0 	ldr.w	r3, [r3, #224]	; 0xe0
 8102450:	4a23      	ldr	r2, [pc, #140]	; (81024e0 <HAL_TIM_MspPostInit+0x104>)
 8102452:	f043 0320 	orr.w	r3, r3, #32
 8102456:	f8c2 30e0 	str.w	r3, [r2, #224]	; 0xe0
 810245a:	4b21      	ldr	r3, [pc, #132]	; (81024e0 <HAL_TIM_MspPostInit+0x104>)
 810245c:	f8d3 30e0 	ldr.w	r3, [r3, #224]	; 0xe0
 8102460:	f003 0320 	and.w	r3, r3, #32
 8102464:	60fb      	str	r3, [r7, #12]
 8102466:	68fb      	ldr	r3, [r7, #12]
    GPIO_InitStruct.Pin = PWM_Servo_Rotate_Pin;
 8102468:	f44f 7380 	mov.w	r3, #256	; 0x100
 810246c:	617b      	str	r3, [r7, #20]
    GPIO_InitStruct.Mode = GPIO_MODE_AF_PP;
 810246e:	2302      	movs	r3, #2
 8102470:	61bb      	str	r3, [r7, #24]
    GPIO_InitStruct.Pull = GPIO_NOPULL;
 8102472:	2300      	movs	r3, #0
 8102474:	61fb      	str	r3, [r7, #28]
    GPIO_InitStruct.Speed = GPIO_SPEED_FREQ_LOW;
 8102476:	2300      	movs	r3, #0
 8102478:	623b      	str	r3, [r7, #32]
    GPIO_InitStruct.Alternate = GPIO_AF9_TIM13;
 810247a:	2309      	movs	r3, #9
 810247c:	627b      	str	r3, [r7, #36]	; 0x24
    HAL_GPIO_Init(PWM_Servo_Rotate_GPIO_Port, &GPIO_InitStruct);
 810247e:	f107 0314 	add.w	r3, r7, #20
 8102482:	4619      	mov	r1, r3
 8102484:	4819      	ldr	r0, [pc, #100]	; (81024ec <HAL_TIM_MspPostInit+0x110>)
 8102486:	f002 f87b 	bl	8104580 <HAL_GPIO_Init>
}
 810248a:	e024      	b.n	81024d6 <HAL_TIM_MspPostInit+0xfa>
  else if(timHandle->Instance==TIM14)
 810248c:	687b      	ldr	r3, [r7, #4]
 810248e:	681b      	ldr	r3, [r3, #0]
 8102490:	4a17      	ldr	r2, [pc, #92]	; (81024f0 <HAL_TIM_MspPostInit+0x114>)
 8102492:	4293      	cmp	r3, r2
 8102494:	d11f      	bne.n	81024d6 <HAL_TIM_MspPostInit+0xfa>
    __HAL_RCC_GPIOF_CLK_ENABLE();
 8102496:	4b12      	ldr	r3, [pc, #72]	; (81024e0 <HAL_TIM_MspPostInit+0x104>)
 8102498:	f8d3 30e0 	ldr.w	r3, [r3, #224]	; 0xe0
 810249c:	4a10      	ldr	r2, [pc, #64]	; (81024e0 <HAL_TIM_MspPostInit+0x104>)
 810249e:	f043 0320 	orr.w	r3, r3, #32
 81024a2:	f8c2 30e0 	str.w	r3, [r2, #224]	; 0xe0
 81024a6:	4b0e      	ldr	r3, [pc, #56]	; (81024e0 <HAL_TIM_MspPostInit+0x104>)
 81024a8:	f8d3 30e0 	ldr.w	r3, [r3, #224]	; 0xe0
 81024ac:	f003 0320 	and.w	r3, r3, #32
 81024b0:	60bb      	str	r3, [r7, #8]
 81024b2:	68bb      	ldr	r3, [r7, #8]
    GPIO_InitStruct.Pin = PWM_Servo_Slider_Pin;
 81024b4:	f44f 7300 	mov.w	r3, #512	; 0x200
 81024b8:	617b      	str	r3, [r7, #20]
    GPIO_InitStruct.Mode = GPIO_MODE_AF_PP;
 81024ba:	2302      	movs	r3, #2
 81024bc:	61bb      	str	r3, [r7, #24]
    GPIO_InitStruct.Pull = GPIO_NOPULL;
 81024be:	2300      	movs	r3, #0
 81024c0:	61fb      	str	r3, [r7, #28]
    GPIO_InitStruct.Speed = GPIO_SPEED_FREQ_LOW;
 81024c2:	2300      	movs	r3, #0
 81024c4:	623b      	str	r3, [r7, #32]
    GPIO_InitStruct.Alternate = GPIO_AF9_TIM14;
 81024c6:	2309      	movs	r3, #9
 81024c8:	627b      	str	r3, [r7, #36]	; 0x24
    HAL_GPIO_Init(PWM_Servo_Slider_GPIO_Port, &GPIO_InitStruct);
 81024ca:	f107 0314 	add.w	r3, r7, #20
 81024ce:	4619      	mov	r1, r3
 81024d0:	4806      	ldr	r0, [pc, #24]	; (81024ec <HAL_TIM_MspPostInit+0x110>)
 81024d2:	f002 f855 	bl	8104580 <HAL_GPIO_Init>
}
 81024d6:	bf00      	nop
 81024d8:	3728      	adds	r7, #40	; 0x28
 81024da:	46bd      	mov	sp, r7
 81024dc:	bd80      	pop	{r7, pc}
 81024de:	bf00      	nop
 81024e0:	58024400 	.word	0x58024400
 81024e4:	58020400 	.word	0x58020400
 81024e8:	40001c00 	.word	0x40001c00
 81024ec:	58021400 	.word	0x58021400
 81024f0:	40002000 	.word	0x40002000

081024f4 <MX_USART3_UART_Init>:

}
/* USART3 init function */

void MX_USART3_UART_Init(void)
{
 81024f4:	b580      	push	{r7, lr}
 81024f6:	af00      	add	r7, sp, #0
  /* USER CODE END USART3_Init 0 */

  /* USER CODE BEGIN USART3_Init 1 */

  /* USER CODE END USART3_Init 1 */
  huart3.Instance = USART3;
 81024f8:	4b22      	ldr	r3, [pc, #136]	; (8102584 <MX_USART3_UART_Init+0x90>)
 81024fa:	4a23      	ldr	r2, [pc, #140]	; (8102588 <MX_USART3_UART_Init+0x94>)
 81024fc:	601a      	str	r2, [r3, #0]
  huart3.Init.BaudRate = 115200;
 81024fe:	4b21      	ldr	r3, [pc, #132]	; (8102584 <MX_USART3_UART_Init+0x90>)
 8102500:	f44f 32e1 	mov.w	r2, #115200	; 0x1c200
 8102504:	605a      	str	r2, [r3, #4]
  huart3.Init.WordLength = UART_WORDLENGTH_8B;
 8102506:	4b1f      	ldr	r3, [pc, #124]	; (8102584 <MX_USART3_UART_Init+0x90>)
 8102508:	2200      	movs	r2, #0
 810250a:	609a      	str	r2, [r3, #8]
  huart3.Init.StopBits = UART_STOPBITS_1;
 810250c:	4b1d      	ldr	r3, [pc, #116]	; (8102584 <MX_USART3_UART_Init+0x90>)
 810250e:	2200      	movs	r2, #0
 8102510:	60da      	str	r2, [r3, #12]
  huart3.Init.Parity = UART_PARITY_NONE;
 8102512:	4b1c      	ldr	r3, [pc, #112]	; (8102584 <MX_USART3_UART_Init+0x90>)
 8102514:	2200      	movs	r2, #0
 8102516:	611a      	str	r2, [r3, #16]
  huart3.Init.Mode = UART_MODE_TX_RX;
 8102518:	4b1a      	ldr	r3, [pc, #104]	; (8102584 <MX_USART3_UART_Init+0x90>)
 810251a:	220c      	movs	r2, #12
 810251c:	615a      	str	r2, [r3, #20]
  huart3.Init.HwFlowCtl = UART_HWCONTROL_NONE;
 810251e:	4b19      	ldr	r3, [pc, #100]	; (8102584 <MX_USART3_UART_Init+0x90>)
 8102520:	2200      	movs	r2, #0
 8102522:	619a      	str	r2, [r3, #24]
  huart3.Init.OverSampling = UART_OVERSAMPLING_16;
 8102524:	4b17      	ldr	r3, [pc, #92]	; (8102584 <MX_USART3_UART_Init+0x90>)
 8102526:	2200      	movs	r2, #0
 8102528:	61da      	str	r2, [r3, #28]
  huart3.Init.OneBitSampling = UART_ONE_BIT_SAMPLE_DISABLE;
 810252a:	4b16      	ldr	r3, [pc, #88]	; (8102584 <MX_USART3_UART_Init+0x90>)
 810252c:	2200      	movs	r2, #0
 810252e:	621a      	str	r2, [r3, #32]
  huart3.Init.ClockPrescaler = UART_PRESCALER_DIV1;
 8102530:	4b14      	ldr	r3, [pc, #80]	; (8102584 <MX_USART3_UART_Init+0x90>)
 8102532:	2200      	movs	r2, #0
 8102534:	625a      	str	r2, [r3, #36]	; 0x24
  huart3.AdvancedInit.AdvFeatureInit = UART_ADVFEATURE_NO_INIT;
 8102536:	4b13      	ldr	r3, [pc, #76]	; (8102584 <MX_USART3_UART_Init+0x90>)
 8102538:	2200      	movs	r2, #0
 810253a:	629a      	str	r2, [r3, #40]	; 0x28
  if (HAL_UART_Init(&huart3) != HAL_OK)
 810253c:	4811      	ldr	r0, [pc, #68]	; (8102584 <MX_USART3_UART_Init+0x90>)
 810253e:	f005 fe6b 	bl	8108218 <HAL_UART_Init>
 8102542:	4603      	mov	r3, r0
 8102544:	2b00      	cmp	r3, #0
 8102546:	d001      	beq.n	810254c <MX_USART3_UART_Init+0x58>
  {
    Error_Handler();
 8102548:	f7ff f8de 	bl	8101708 <Error_Handler>
  }
  if (HAL_UARTEx_SetTxFifoThreshold(&huart3, UART_TXFIFO_THRESHOLD_1_8) != HAL_OK)
 810254c:	2100      	movs	r1, #0
 810254e:	480d      	ldr	r0, [pc, #52]	; (8102584 <MX_USART3_UART_Init+0x90>)
 8102550:	f006 fe9e 	bl	8109290 <HAL_UARTEx_SetTxFifoThreshold>
 8102554:	4603      	mov	r3, r0
 8102556:	2b00      	cmp	r3, #0
 8102558:	d001      	beq.n	810255e <MX_USART3_UART_Init+0x6a>
  {
    Error_Handler();
 810255a:	f7ff f8d5 	bl	8101708 <Error_Handler>
  }
  if (HAL_UARTEx_SetRxFifoThreshold(&huart3, UART_RXFIFO_THRESHOLD_1_8) != HAL_OK)
 810255e:	2100      	movs	r1, #0
 8102560:	4808      	ldr	r0, [pc, #32]	; (8102584 <MX_USART3_UART_Init+0x90>)
 8102562:	f006 fed3 	bl	810930c <HAL_UARTEx_SetRxFifoThreshold>
 8102566:	4603      	mov	r3, r0
 8102568:	2b00      	cmp	r3, #0
 810256a:	d001      	beq.n	8102570 <MX_USART3_UART_Init+0x7c>
  {
    Error_Handler();
 810256c:	f7ff f8cc 	bl	8101708 <Error_Handler>
  }
  if (HAL_UARTEx_DisableFifoMode(&huart3) != HAL_OK)
 8102570:	4804      	ldr	r0, [pc, #16]	; (8102584 <MX_USART3_UART_Init+0x90>)
 8102572:	f006 fe54 	bl	810921e <HAL_UARTEx_DisableFifoMode>
 8102576:	4603      	mov	r3, r0
 8102578:	2b00      	cmp	r3, #0
 810257a:	d001      	beq.n	8102580 <MX_USART3_UART_Init+0x8c>
  {
    Error_Handler();
 810257c:	f7ff f8c4 	bl	8101708 <Error_Handler>
  }
  /* USER CODE BEGIN USART3_Init 2 */

  /* USER CODE END USART3_Init 2 */

}
 8102580:	bf00      	nop
 8102582:	bd80      	pop	{r7, pc}
 8102584:	100002a8 	.word	0x100002a8
 8102588:	40004800 	.word	0x40004800

0810258c <HAL_UART_MspInit>:

void HAL_UART_MspInit(UART_HandleTypeDef* uartHandle)
{
 810258c:	b580      	push	{r7, lr}
 810258e:	b0bc      	sub	sp, #240	; 0xf0
 8102590:	af00      	add	r7, sp, #0
 8102592:	6078      	str	r0, [r7, #4]

  GPIO_InitTypeDef GPIO_InitStruct = {0};
 8102594:	f107 03dc 	add.w	r3, r7, #220	; 0xdc
 8102598:	2200      	movs	r2, #0
 810259a:	601a      	str	r2, [r3, #0]
 810259c:	605a      	str	r2, [r3, #4]
 810259e:	609a      	str	r2, [r3, #8]
 81025a0:	60da      	str	r2, [r3, #12]
 81025a2:	611a      	str	r2, [r3, #16]
  RCC_PeriphCLKInitTypeDef PeriphClkInitStruct = {0};
 81025a4:	f107 0320 	add.w	r3, r7, #32
 81025a8:	22bc      	movs	r2, #188	; 0xbc
 81025aa:	2100      	movs	r1, #0
 81025ac:	4618      	mov	r0, r3
 81025ae:	f006 ff5d 	bl	810946c <memset>
  if(uartHandle->Instance==UART5)
 81025b2:	687b      	ldr	r3, [r7, #4]
 81025b4:	681b      	ldr	r3, [r3, #0]
 81025b6:	4a5c      	ldr	r2, [pc, #368]	; (8102728 <HAL_UART_MspInit+0x19c>)
 81025b8:	4293      	cmp	r3, r2
 81025ba:	d168      	bne.n	810268e <HAL_UART_MspInit+0x102>

  /* USER CODE END UART5_MspInit 0 */

  /** Initializes the peripherals clock
  */
    PeriphClkInitStruct.PeriphClockSelection = RCC_PERIPHCLK_UART5;
 81025bc:	2302      	movs	r3, #2
 81025be:	623b      	str	r3, [r7, #32]
    PeriphClkInitStruct.Usart234578ClockSelection = RCC_USART234578CLKSOURCE_D2PCLK1;
 81025c0:	2300      	movs	r3, #0
 81025c2:	f8c7 3094 	str.w	r3, [r7, #148]	; 0x94
    if (HAL_RCCEx_PeriphCLKConfig(&PeriphClkInitStruct) != HAL_OK)
 81025c6:	f107 0320 	add.w	r3, r7, #32
 81025ca:	4618      	mov	r0, r3
 81025cc:	f002 fc50 	bl	8104e70 <HAL_RCCEx_PeriphCLKConfig>
 81025d0:	4603      	mov	r3, r0
 81025d2:	2b00      	cmp	r3, #0
 81025d4:	d001      	beq.n	81025da <HAL_UART_MspInit+0x4e>
    {
      Error_Handler();
 81025d6:	f7ff f897 	bl	8101708 <Error_Handler>
    }

    /* UART5 clock enable */
    __HAL_RCC_UART5_CLK_ENABLE();
 81025da:	4b54      	ldr	r3, [pc, #336]	; (810272c <HAL_UART_MspInit+0x1a0>)
 81025dc:	f8d3 30e8 	ldr.w	r3, [r3, #232]	; 0xe8
 81025e0:	4a52      	ldr	r2, [pc, #328]	; (810272c <HAL_UART_MspInit+0x1a0>)
 81025e2:	f443 1380 	orr.w	r3, r3, #1048576	; 0x100000
 81025e6:	f8c2 30e8 	str.w	r3, [r2, #232]	; 0xe8
 81025ea:	4b50      	ldr	r3, [pc, #320]	; (810272c <HAL_UART_MspInit+0x1a0>)
 81025ec:	f8d3 30e8 	ldr.w	r3, [r3, #232]	; 0xe8
 81025f0:	f403 1380 	and.w	r3, r3, #1048576	; 0x100000
 81025f4:	61fb      	str	r3, [r7, #28]
 81025f6:	69fb      	ldr	r3, [r7, #28]

    __HAL_RCC_GPIOB_CLK_ENABLE();
 81025f8:	4b4c      	ldr	r3, [pc, #304]	; (810272c <HAL_UART_MspInit+0x1a0>)
 81025fa:	f8d3 30e0 	ldr.w	r3, [r3, #224]	; 0xe0
 81025fe:	4a4b      	ldr	r2, [pc, #300]	; (810272c <HAL_UART_MspInit+0x1a0>)
 8102600:	f043 0302 	orr.w	r3, r3, #2
 8102604:	f8c2 30e0 	str.w	r3, [r2, #224]	; 0xe0
 8102608:	4b48      	ldr	r3, [pc, #288]	; (810272c <HAL_UART_MspInit+0x1a0>)
 810260a:	f8d3 30e0 	ldr.w	r3, [r3, #224]	; 0xe0
 810260e:	f003 0302 	and.w	r3, r3, #2
 8102612:	61bb      	str	r3, [r7, #24]
 8102614:	69bb      	ldr	r3, [r7, #24]
    __HAL_RCC_GPIOC_CLK_ENABLE();
 8102616:	4b45      	ldr	r3, [pc, #276]	; (810272c <HAL_UART_MspInit+0x1a0>)
 8102618:	f8d3 30e0 	ldr.w	r3, [r3, #224]	; 0xe0
 810261c:	4a43      	ldr	r2, [pc, #268]	; (810272c <HAL_UART_MspInit+0x1a0>)
 810261e:	f043 0304 	orr.w	r3, r3, #4
 8102622:	f8c2 30e0 	str.w	r3, [r2, #224]	; 0xe0
 8102626:	4b41      	ldr	r3, [pc, #260]	; (810272c <HAL_UART_MspInit+0x1a0>)
 8102628:	f8d3 30e0 	ldr.w	r3, [r3, #224]	; 0xe0
 810262c:	f003 0304 	and.w	r3, r3, #4
 8102630:	617b      	str	r3, [r7, #20]
 8102632:	697b      	ldr	r3, [r7, #20]
    /**UART5 GPIO Configuration
    PB12     ------> UART5_RX
    PC12     ------> UART5_TX
    */
    GPIO_InitStruct.Pin = GPIO_PIN_12;
 8102634:	f44f 5380 	mov.w	r3, #4096	; 0x1000
 8102638:	f8c7 30dc 	str.w	r3, [r7, #220]	; 0xdc
    GPIO_InitStruct.Mode = GPIO_MODE_AF_PP;
 810263c:	2302      	movs	r3, #2
 810263e:	f8c7 30e0 	str.w	r3, [r7, #224]	; 0xe0
    GPIO_InitStruct.Pull = GPIO_NOPULL;
 8102642:	2300      	movs	r3, #0
 8102644:	f8c7 30e4 	str.w	r3, [r7, #228]	; 0xe4
    GPIO_InitStruct.Speed = GPIO_SPEED_FREQ_LOW;
 8102648:	2300      	movs	r3, #0
 810264a:	f8c7 30e8 	str.w	r3, [r7, #232]	; 0xe8
    GPIO_InitStruct.Alternate = GPIO_AF14_UART5;
 810264e:	230e      	movs	r3, #14
 8102650:	f8c7 30ec 	str.w	r3, [r7, #236]	; 0xec
    HAL_GPIO_Init(GPIOB, &GPIO_InitStruct);
 8102654:	f107 03dc 	add.w	r3, r7, #220	; 0xdc
 8102658:	4619      	mov	r1, r3
 810265a:	4835      	ldr	r0, [pc, #212]	; (8102730 <HAL_UART_MspInit+0x1a4>)
 810265c:	f001 ff90 	bl	8104580 <HAL_GPIO_Init>

    GPIO_InitStruct.Pin = GPIO_PIN_12;
 8102660:	f44f 5380 	mov.w	r3, #4096	; 0x1000
 8102664:	f8c7 30dc 	str.w	r3, [r7, #220]	; 0xdc
    GPIO_InitStruct.Mode = GPIO_MODE_AF_PP;
 8102668:	2302      	movs	r3, #2
 810266a:	f8c7 30e0 	str.w	r3, [r7, #224]	; 0xe0
    GPIO_InitStruct.Pull = GPIO_NOPULL;
 810266e:	2300      	movs	r3, #0
 8102670:	f8c7 30e4 	str.w	r3, [r7, #228]	; 0xe4
    GPIO_InitStruct.Speed = GPIO_SPEED_FREQ_LOW;
 8102674:	2300      	movs	r3, #0
 8102676:	f8c7 30e8 	str.w	r3, [r7, #232]	; 0xe8
    GPIO_InitStruct.Alternate = GPIO_AF8_UART5;
 810267a:	2308      	movs	r3, #8
 810267c:	f8c7 30ec 	str.w	r3, [r7, #236]	; 0xec
    HAL_GPIO_Init(GPIOC, &GPIO_InitStruct);
 8102680:	f107 03dc 	add.w	r3, r7, #220	; 0xdc
 8102684:	4619      	mov	r1, r3
 8102686:	482b      	ldr	r0, [pc, #172]	; (8102734 <HAL_UART_MspInit+0x1a8>)
 8102688:	f001 ff7a 	bl	8104580 <HAL_GPIO_Init>

  /* USER CODE BEGIN USART3_MspInit 1 */

  /* USER CODE END USART3_MspInit 1 */
  }
}
 810268c:	e047      	b.n	810271e <HAL_UART_MspInit+0x192>
  else if(uartHandle->Instance==USART3)
 810268e:	687b      	ldr	r3, [r7, #4]
 8102690:	681b      	ldr	r3, [r3, #0]
 8102692:	4a29      	ldr	r2, [pc, #164]	; (8102738 <HAL_UART_MspInit+0x1ac>)
 8102694:	4293      	cmp	r3, r2
 8102696:	d142      	bne.n	810271e <HAL_UART_MspInit+0x192>
    PeriphClkInitStruct.PeriphClockSelection = RCC_PERIPHCLK_USART3;
 8102698:	2302      	movs	r3, #2
 810269a:	623b      	str	r3, [r7, #32]
    PeriphClkInitStruct.Usart234578ClockSelection = RCC_USART234578CLKSOURCE_D2PCLK1;
 810269c:	2300      	movs	r3, #0
 810269e:	f8c7 3094 	str.w	r3, [r7, #148]	; 0x94
    if (HAL_RCCEx_PeriphCLKConfig(&PeriphClkInitStruct) != HAL_OK)
 81026a2:	f107 0320 	add.w	r3, r7, #32
 81026a6:	4618      	mov	r0, r3
 81026a8:	f002 fbe2 	bl	8104e70 <HAL_RCCEx_PeriphCLKConfig>
 81026ac:	4603      	mov	r3, r0
 81026ae:	2b00      	cmp	r3, #0
 81026b0:	d001      	beq.n	81026b6 <HAL_UART_MspInit+0x12a>
      Error_Handler();
 81026b2:	f7ff f829 	bl	8101708 <Error_Handler>
    __HAL_RCC_USART3_CLK_ENABLE();
 81026b6:	4b1d      	ldr	r3, [pc, #116]	; (810272c <HAL_UART_MspInit+0x1a0>)
 81026b8:	f8d3 30e8 	ldr.w	r3, [r3, #232]	; 0xe8
 81026bc:	4a1b      	ldr	r2, [pc, #108]	; (810272c <HAL_UART_MspInit+0x1a0>)
 81026be:	f443 2380 	orr.w	r3, r3, #262144	; 0x40000
 81026c2:	f8c2 30e8 	str.w	r3, [r2, #232]	; 0xe8
 81026c6:	4b19      	ldr	r3, [pc, #100]	; (810272c <HAL_UART_MspInit+0x1a0>)
 81026c8:	f8d3 30e8 	ldr.w	r3, [r3, #232]	; 0xe8
 81026cc:	f403 2380 	and.w	r3, r3, #262144	; 0x40000
 81026d0:	613b      	str	r3, [r7, #16]
 81026d2:	693b      	ldr	r3, [r7, #16]
    __HAL_RCC_GPIOD_CLK_ENABLE();
 81026d4:	4b15      	ldr	r3, [pc, #84]	; (810272c <HAL_UART_MspInit+0x1a0>)
 81026d6:	f8d3 30e0 	ldr.w	r3, [r3, #224]	; 0xe0
 81026da:	4a14      	ldr	r2, [pc, #80]	; (810272c <HAL_UART_MspInit+0x1a0>)
 81026dc:	f043 0308 	orr.w	r3, r3, #8
 81026e0:	f8c2 30e0 	str.w	r3, [r2, #224]	; 0xe0
 81026e4:	4b11      	ldr	r3, [pc, #68]	; (810272c <HAL_UART_MspInit+0x1a0>)
 81026e6:	f8d3 30e0 	ldr.w	r3, [r3, #224]	; 0xe0
 81026ea:	f003 0308 	and.w	r3, r3, #8
 81026ee:	60fb      	str	r3, [r7, #12]
 81026f0:	68fb      	ldr	r3, [r7, #12]
    GPIO_InitStruct.Pin = STLINK_RX_Pin|STLINK_TX_Pin;
 81026f2:	f44f 7340 	mov.w	r3, #768	; 0x300
 81026f6:	f8c7 30dc 	str.w	r3, [r7, #220]	; 0xdc
    GPIO_InitStruct.Mode = GPIO_MODE_AF_PP;
 81026fa:	2302      	movs	r3, #2
 81026fc:	f8c7 30e0 	str.w	r3, [r7, #224]	; 0xe0
    GPIO_InitStruct.Pull = GPIO_NOPULL;
 8102700:	2300      	movs	r3, #0
 8102702:	f8c7 30e4 	str.w	r3, [r7, #228]	; 0xe4
    GPIO_InitStruct.Speed = GPIO_SPEED_FREQ_LOW;
 8102706:	2300      	movs	r3, #0
 8102708:	f8c7 30e8 	str.w	r3, [r7, #232]	; 0xe8
    GPIO_InitStruct.Alternate = GPIO_AF7_USART3;
 810270c:	2307      	movs	r3, #7
 810270e:	f8c7 30ec 	str.w	r3, [r7, #236]	; 0xec
    HAL_GPIO_Init(GPIOD, &GPIO_InitStruct);
 8102712:	f107 03dc 	add.w	r3, r7, #220	; 0xdc
 8102716:	4619      	mov	r1, r3
 8102718:	4808      	ldr	r0, [pc, #32]	; (810273c <HAL_UART_MspInit+0x1b0>)
 810271a:	f001 ff31 	bl	8104580 <HAL_GPIO_Init>
}
 810271e:	bf00      	nop
 8102720:	37f0      	adds	r7, #240	; 0xf0
 8102722:	46bd      	mov	sp, r7
 8102724:	bd80      	pop	{r7, pc}
 8102726:	bf00      	nop
 8102728:	40005000 	.word	0x40005000
 810272c:	58024400 	.word	0x58024400
 8102730:	58020400 	.word	0x58020400
 8102734:	58020800 	.word	0x58020800
 8102738:	40004800 	.word	0x40004800
 810273c:	58020c00 	.word	0x58020c00

08102740 <ST_LINK_WRITE>:
  /* USER CODE END USART3_MspDeInit 1 */
  }
}

/* USER CODE BEGIN 1 */
void ST_LINK_WRITE(uint8_t * msg, uint8_t length){
 8102740:	b580      	push	{r7, lr}
 8102742:	b082      	sub	sp, #8
 8102744:	af00      	add	r7, sp, #0
 8102746:	6078      	str	r0, [r7, #4]
 8102748:	460b      	mov	r3, r1
 810274a:	70fb      	strb	r3, [r7, #3]
	HAL_UART_Transmit(&huart3,msg,length,100);// Sending in normal mode
 810274c:	78fb      	ldrb	r3, [r7, #3]
 810274e:	b29a      	uxth	r2, r3
 8102750:	2364      	movs	r3, #100	; 0x64
 8102752:	6879      	ldr	r1, [r7, #4]
 8102754:	4803      	ldr	r0, [pc, #12]	; (8102764 <ST_LINK_WRITE+0x24>)
 8102756:	f005 fdaf 	bl	81082b8 <HAL_UART_Transmit>
}
 810275a:	bf00      	nop
 810275c:	3708      	adds	r7, #8
 810275e:	46bd      	mov	sp, r7
 8102760:	bd80      	pop	{r7, pc}
 8102762:	bf00      	nop
 8102764:	100002a8 	.word	0x100002a8

08102768 <Reset_Handler>:

    .section  .text.Reset_Handler
  .weak  Reset_Handler
  .type  Reset_Handler, %function
Reset_Handler:
  ldr   sp, =_estack      /* set stack pointer */
 8102768:	f8df d034 	ldr.w	sp, [pc, #52]	; 81027a0 <LoopFillZerobss+0xe>

/* Call the clock system initialization function.*/
  bl  SystemInit
 810276c:	f7fe fa46 	bl	8100bfc <SystemInit>

/* Copy the data segment initializers from flash to SRAM */
  ldr r0, =_sdata
 8102770:	480c      	ldr	r0, [pc, #48]	; (81027a4 <LoopFillZerobss+0x12>)
  ldr r1, =_edata
 8102772:	490d      	ldr	r1, [pc, #52]	; (81027a8 <LoopFillZerobss+0x16>)
  ldr r2, =_sidata
 8102774:	4a0d      	ldr	r2, [pc, #52]	; (81027ac <LoopFillZerobss+0x1a>)
  movs r3, #0
 8102776:	2300      	movs	r3, #0
  b LoopCopyDataInit
 8102778:	e002      	b.n	8102780 <LoopCopyDataInit>

0810277a <CopyDataInit>:

CopyDataInit:
  ldr r4, [r2, r3]
 810277a:	58d4      	ldr	r4, [r2, r3]
  str r4, [r0, r3]
 810277c:	50c4      	str	r4, [r0, r3]
  adds r3, r3, #4
 810277e:	3304      	adds	r3, #4

08102780 <LoopCopyDataInit>:

LoopCopyDataInit:
  adds r4, r0, r3
 8102780:	18c4      	adds	r4, r0, r3
  cmp r4, r1
 8102782:	428c      	cmp	r4, r1
  bcc CopyDataInit
 8102784:	d3f9      	bcc.n	810277a <CopyDataInit>
/* Zero fill the bss segment. */
  ldr r2, =_sbss
 8102786:	4a0a      	ldr	r2, [pc, #40]	; (81027b0 <LoopFillZerobss+0x1e>)
  ldr r4, =_ebss
 8102788:	4c0a      	ldr	r4, [pc, #40]	; (81027b4 <LoopFillZerobss+0x22>)
  movs r3, #0
 810278a:	2300      	movs	r3, #0
  b LoopFillZerobss
 810278c:	e001      	b.n	8102792 <LoopFillZerobss>

0810278e <FillZerobss>:

FillZerobss:
  str  r3, [r2]
 810278e:	6013      	str	r3, [r2, #0]
  adds r2, r2, #4
 8102790:	3204      	adds	r2, #4

08102792 <LoopFillZerobss>:

LoopFillZerobss:
  cmp r2, r4
 8102792:	42a2      	cmp	r2, r4
  bcc FillZerobss
 8102794:	d3fb      	bcc.n	810278e <FillZerobss>

/* Call static constructors */
    bl __libc_init_array
 8102796:	f006 fe45 	bl	8109424 <__libc_init_array>
/* Call the application's entry point.*/
  bl  main
 810279a:	f7fe fe25 	bl	81013e8 <main>
  bx  lr
 810279e:	4770      	bx	lr
  ldr   sp, =_estack      /* set stack pointer */
 81027a0:	10048000 	.word	0x10048000
  ldr r0, =_sdata
 81027a4:	10000000 	.word	0x10000000
  ldr r1, =_edata
 81027a8:	10000078 	.word	0x10000078
  ldr r2, =_sidata
 81027ac:	08109e34 	.word	0x08109e34
  ldr r2, =_sbss
 81027b0:	10000078 	.word	0x10000078
  ldr r4, =_ebss
 81027b4:	10000350 	.word	0x10000350

081027b8 <ADC3_IRQHandler>:
 * @retval None
*/
    .section  .text.Default_Handler,"ax",%progbits
Default_Handler:
Infinite_Loop:
  b  Infinite_Loop
 81027b8:	e7fe      	b.n	81027b8 <ADC3_IRQHandler>
	...

081027bc <HAL_Init>:
  *         need to ensure that the SysTick time base is always set to 1 millisecond
  *         to have correct HAL operation.
  * @retval HAL status
  */
HAL_StatusTypeDef HAL_Init(void)
{
 81027bc:	b580      	push	{r7, lr}
 81027be:	b082      	sub	sp, #8
 81027c0:	af00      	add	r7, sp, #0

uint32_t common_system_clock;

#if defined(DUAL_CORE) && defined(CORE_CM4)
   /* Configure Cortex-M4 Instruction cache through ART accelerator */
   __HAL_RCC_ART_CLK_ENABLE();                   /* Enable the Cortex-M4 ART Clock */
 81027c2:	4b28      	ldr	r3, [pc, #160]	; (8102864 <HAL_Init+0xa8>)
 81027c4:	f8d3 30d8 	ldr.w	r3, [r3, #216]	; 0xd8
 81027c8:	4a26      	ldr	r2, [pc, #152]	; (8102864 <HAL_Init+0xa8>)
 81027ca:	f443 4380 	orr.w	r3, r3, #16384	; 0x4000
 81027ce:	f8c2 30d8 	str.w	r3, [r2, #216]	; 0xd8
 81027d2:	4b24      	ldr	r3, [pc, #144]	; (8102864 <HAL_Init+0xa8>)
 81027d4:	f8d3 30d8 	ldr.w	r3, [r3, #216]	; 0xd8
 81027d8:	f403 4380 	and.w	r3, r3, #16384	; 0x4000
 81027dc:	603b      	str	r3, [r7, #0]
 81027de:	683b      	ldr	r3, [r7, #0]
   __HAL_ART_CONFIG_BASE_ADDRESS(0x08100000UL);  /* Configure the Cortex-M4 ART Base address to the Flash Bank 2 : */
 81027e0:	4b21      	ldr	r3, [pc, #132]	; (8102868 <HAL_Init+0xac>)
 81027e2:	681b      	ldr	r3, [r3, #0]
 81027e4:	f423 237f 	bic.w	r3, r3, #1044480	; 0xff000
 81027e8:	f423 6370 	bic.w	r3, r3, #3840	; 0xf00
 81027ec:	4a1e      	ldr	r2, [pc, #120]	; (8102868 <HAL_Init+0xac>)
 81027ee:	f443 4301 	orr.w	r3, r3, #33024	; 0x8100
 81027f2:	6013      	str	r3, [r2, #0]
   __HAL_ART_ENABLE();                           /* Enable the Cortex-M4 ART */
 81027f4:	4b1c      	ldr	r3, [pc, #112]	; (8102868 <HAL_Init+0xac>)
 81027f6:	681b      	ldr	r3, [r3, #0]
 81027f8:	4a1b      	ldr	r2, [pc, #108]	; (8102868 <HAL_Init+0xac>)
 81027fa:	f043 0301 	orr.w	r3, r3, #1
 81027fe:	6013      	str	r3, [r2, #0]
#endif /* DUAL_CORE &&  CORE_CM4 */

  /* Set Interrupt Group Priority */
  HAL_NVIC_SetPriorityGrouping(NVIC_PRIORITYGROUP_4);
 8102800:	2003      	movs	r0, #3
 8102802:	f001 fe69 	bl	81044d8 <HAL_NVIC_SetPriorityGrouping>

  /* Update the SystemCoreClock global variable */
#if defined(RCC_D1CFGR_D1CPRE)
  common_system_clock = HAL_RCC_GetSysClockFreq() >> ((D1CorePrescTable[(RCC->D1CFGR & RCC_D1CFGR_D1CPRE)>> RCC_D1CFGR_D1CPRE_Pos]) & 0x1FU);
 8102806:	f002 f95b 	bl	8104ac0 <HAL_RCC_GetSysClockFreq>
 810280a:	4602      	mov	r2, r0
 810280c:	4b15      	ldr	r3, [pc, #84]	; (8102864 <HAL_Init+0xa8>)
 810280e:	699b      	ldr	r3, [r3, #24]
 8102810:	0a1b      	lsrs	r3, r3, #8
 8102812:	f003 030f 	and.w	r3, r3, #15
 8102816:	4915      	ldr	r1, [pc, #84]	; (810286c <HAL_Init+0xb0>)
 8102818:	5ccb      	ldrb	r3, [r1, r3]
 810281a:	f003 031f 	and.w	r3, r3, #31
 810281e:	fa22 f303 	lsr.w	r3, r2, r3
 8102822:	607b      	str	r3, [r7, #4]
  common_system_clock = HAL_RCC_GetSysClockFreq() >> ((D1CorePrescTable[(RCC->CDCFGR1 & RCC_CDCFGR1_CDCPRE)>> RCC_CDCFGR1_CDCPRE_Pos]) & 0x1FU);
#endif

  /* Update the SystemD2Clock global variable */
#if defined(RCC_D1CFGR_HPRE)
  SystemD2Clock = (common_system_clock >> ((D1CorePrescTable[(RCC->D1CFGR & RCC_D1CFGR_HPRE)>> RCC_D1CFGR_HPRE_Pos]) & 0x1FU));
 8102824:	4b0f      	ldr	r3, [pc, #60]	; (8102864 <HAL_Init+0xa8>)
 8102826:	699b      	ldr	r3, [r3, #24]
 8102828:	f003 030f 	and.w	r3, r3, #15
 810282c:	4a0f      	ldr	r2, [pc, #60]	; (810286c <HAL_Init+0xb0>)
 810282e:	5cd3      	ldrb	r3, [r2, r3]
 8102830:	f003 031f 	and.w	r3, r3, #31
 8102834:	687a      	ldr	r2, [r7, #4]
 8102836:	fa22 f303 	lsr.w	r3, r2, r3
 810283a:	4a0d      	ldr	r2, [pc, #52]	; (8102870 <HAL_Init+0xb4>)
 810283c:	6013      	str	r3, [r2, #0]
#else
  SystemD2Clock = (common_system_clock >> ((D1CorePrescTable[(RCC->CDCFGR1 & RCC_CDCFGR1_HPRE)>> RCC_CDCFGR1_HPRE_Pos]) & 0x1FU));
#endif

#if defined(DUAL_CORE) && defined(CORE_CM4)
  SystemCoreClock = SystemD2Clock;
 810283e:	4b0c      	ldr	r3, [pc, #48]	; (8102870 <HAL_Init+0xb4>)
 8102840:	681b      	ldr	r3, [r3, #0]
 8102842:	4a0c      	ldr	r2, [pc, #48]	; (8102874 <HAL_Init+0xb8>)
 8102844:	6013      	str	r3, [r2, #0]
#else
  SystemCoreClock = common_system_clock;
#endif /* DUAL_CORE && CORE_CM4 */

  /* Use systick as time base source and configure 1ms tick (default clock after Reset is HSI) */
  if(HAL_InitTick(TICK_INT_PRIORITY) != HAL_OK)
 8102846:	2000      	movs	r0, #0
 8102848:	f000 f816 	bl	8102878 <HAL_InitTick>
 810284c:	4603      	mov	r3, r0
 810284e:	2b00      	cmp	r3, #0
 8102850:	d001      	beq.n	8102856 <HAL_Init+0x9a>
  {
    return HAL_ERROR;
 8102852:	2301      	movs	r3, #1
 8102854:	e002      	b.n	810285c <HAL_Init+0xa0>
  }

  /* Init the low level hardware */
  HAL_MspInit();
 8102856:	f7fe ff6d 	bl	8101734 <HAL_MspInit>

  /* Return function status */
  return HAL_OK;
 810285a:	2300      	movs	r3, #0
}
 810285c:	4618      	mov	r0, r3
 810285e:	3708      	adds	r7, #8
 8102860:	46bd      	mov	sp, r7
 8102862:	bd80      	pop	{r7, pc}
 8102864:	58024400 	.word	0x58024400
 8102868:	40024400 	.word	0x40024400
 810286c:	08109db8 	.word	0x08109db8
 8102870:	10000004 	.word	0x10000004
 8102874:	10000000 	.word	0x10000000

08102878 <HAL_InitTick>:
  *       implementation  in user file.
  * @param TickPriority: Tick interrupt priority.
  * @retval HAL status
  */
__weak HAL_StatusTypeDef HAL_InitTick(uint32_t TickPriority)
{
 8102878:	b580      	push	{r7, lr}
 810287a:	b082      	sub	sp, #8
 810287c:	af00      	add	r7, sp, #0
 810287e:	6078      	str	r0, [r7, #4]
  /* Check uwTickFreq for MisraC 2012 (even if uwTickFreq is a enum type that don't take the value zero)*/
  if((uint32_t)uwTickFreq == 0UL)
 8102880:	4b15      	ldr	r3, [pc, #84]	; (81028d8 <HAL_InitTick+0x60>)
 8102882:	781b      	ldrb	r3, [r3, #0]
 8102884:	2b00      	cmp	r3, #0
 8102886:	d101      	bne.n	810288c <HAL_InitTick+0x14>
  {
    return HAL_ERROR;
 8102888:	2301      	movs	r3, #1
 810288a:	e021      	b.n	81028d0 <HAL_InitTick+0x58>
  }

    /* Configure the SysTick to have interrupt in 1ms time basis*/
    if (HAL_SYSTICK_Config(SystemCoreClock / (1000UL / (uint32_t)uwTickFreq)) > 0U)
 810288c:	4b13      	ldr	r3, [pc, #76]	; (81028dc <HAL_InitTick+0x64>)
 810288e:	681a      	ldr	r2, [r3, #0]
 8102890:	4b11      	ldr	r3, [pc, #68]	; (81028d8 <HAL_InitTick+0x60>)
 8102892:	781b      	ldrb	r3, [r3, #0]
 8102894:	4619      	mov	r1, r3
 8102896:	f44f 737a 	mov.w	r3, #1000	; 0x3e8
 810289a:	fbb3 f3f1 	udiv	r3, r3, r1
 810289e:	fbb2 f3f3 	udiv	r3, r2, r3
 81028a2:	4618      	mov	r0, r3
 81028a4:	f001 fe4b 	bl	810453e <HAL_SYSTICK_Config>
 81028a8:	4603      	mov	r3, r0
 81028aa:	2b00      	cmp	r3, #0
 81028ac:	d001      	beq.n	81028b2 <HAL_InitTick+0x3a>
    {
      return HAL_ERROR;
 81028ae:	2301      	movs	r3, #1
 81028b0:	e00e      	b.n	81028d0 <HAL_InitTick+0x58>
    }

  /* Configure the SysTick IRQ priority */
  if (TickPriority < (1UL << __NVIC_PRIO_BITS))
 81028b2:	687b      	ldr	r3, [r7, #4]
 81028b4:	2b0f      	cmp	r3, #15
 81028b6:	d80a      	bhi.n	81028ce <HAL_InitTick+0x56>
  {
    HAL_NVIC_SetPriority(SysTick_IRQn, TickPriority, 0U);
 81028b8:	2200      	movs	r2, #0
 81028ba:	6879      	ldr	r1, [r7, #4]
 81028bc:	f04f 30ff 	mov.w	r0, #4294967295
 81028c0:	f001 fe15 	bl	81044ee <HAL_NVIC_SetPriority>
    uwTickPrio = TickPriority;
 81028c4:	4a06      	ldr	r2, [pc, #24]	; (81028e0 <HAL_InitTick+0x68>)
 81028c6:	687b      	ldr	r3, [r7, #4]
 81028c8:	6013      	str	r3, [r2, #0]
  {
    return HAL_ERROR;
  }

  /* Return function status */
  return HAL_OK;
 81028ca:	2300      	movs	r3, #0
 81028cc:	e000      	b.n	81028d0 <HAL_InitTick+0x58>
    return HAL_ERROR;
 81028ce:	2301      	movs	r3, #1
}
 81028d0:	4618      	mov	r0, r3
 81028d2:	3708      	adds	r7, #8
 81028d4:	46bd      	mov	sp, r7
 81028d6:	bd80      	pop	{r7, pc}
 81028d8:	10000010 	.word	0x10000010
 81028dc:	10000000 	.word	0x10000000
 81028e0:	1000000c 	.word	0x1000000c

081028e4 <HAL_IncTick>:
 * @note This function is declared as __weak to be overwritten in case of other
  *      implementations in user file.
  * @retval None
  */
__weak void HAL_IncTick(void)
{
 81028e4:	b480      	push	{r7}
 81028e6:	af00      	add	r7, sp, #0
  uwTick += (uint32_t)uwTickFreq;
 81028e8:	4b06      	ldr	r3, [pc, #24]	; (8102904 <HAL_IncTick+0x20>)
 81028ea:	781b      	ldrb	r3, [r3, #0]
 81028ec:	461a      	mov	r2, r3
 81028ee:	4b06      	ldr	r3, [pc, #24]	; (8102908 <HAL_IncTick+0x24>)
 81028f0:	681b      	ldr	r3, [r3, #0]
 81028f2:	4413      	add	r3, r2
 81028f4:	4a04      	ldr	r2, [pc, #16]	; (8102908 <HAL_IncTick+0x24>)
 81028f6:	6013      	str	r3, [r2, #0]
}
 81028f8:	bf00      	nop
 81028fa:	46bd      	mov	sp, r7
 81028fc:	f85d 7b04 	ldr.w	r7, [sp], #4
 8102900:	4770      	bx	lr
 8102902:	bf00      	nop
 8102904:	10000010 	.word	0x10000010
 8102908:	10000338 	.word	0x10000338

0810290c <HAL_GetTick>:
  * @note This function is declared as __weak to be overwritten in case of other
  *       implementations in user file.
  * @retval tick value
  */
__weak uint32_t HAL_GetTick(void)
{
 810290c:	b480      	push	{r7}
 810290e:	af00      	add	r7, sp, #0
  return uwTick;
 8102910:	4b03      	ldr	r3, [pc, #12]	; (8102920 <HAL_GetTick+0x14>)
 8102912:	681b      	ldr	r3, [r3, #0]
}
 8102914:	4618      	mov	r0, r3
 8102916:	46bd      	mov	sp, r7
 8102918:	f85d 7b04 	ldr.w	r7, [sp], #4
 810291c:	4770      	bx	lr
 810291e:	bf00      	nop
 8102920:	10000338 	.word	0x10000338

08102924 <HAL_Delay>:
  *       implementations in user file.
  * @param Delay  specifies the delay time length, in milliseconds.
  * @retval None
  */
__weak void HAL_Delay(uint32_t Delay)
{
 8102924:	b580      	push	{r7, lr}
 8102926:	b084      	sub	sp, #16
 8102928:	af00      	add	r7, sp, #0
 810292a:	6078      	str	r0, [r7, #4]
  uint32_t tickstart = HAL_GetTick();
 810292c:	f7ff ffee 	bl	810290c <HAL_GetTick>
 8102930:	60b8      	str	r0, [r7, #8]
  uint32_t wait = Delay;
 8102932:	687b      	ldr	r3, [r7, #4]
 8102934:	60fb      	str	r3, [r7, #12]

  /* Add a freq to guarantee minimum wait */
  if (wait < HAL_MAX_DELAY)
 8102936:	68fb      	ldr	r3, [r7, #12]
 8102938:	f1b3 3fff 	cmp.w	r3, #4294967295
 810293c:	d005      	beq.n	810294a <HAL_Delay+0x26>
  {
    wait += (uint32_t)(uwTickFreq);
 810293e:	4b0a      	ldr	r3, [pc, #40]	; (8102968 <HAL_Delay+0x44>)
 8102940:	781b      	ldrb	r3, [r3, #0]
 8102942:	461a      	mov	r2, r3
 8102944:	68fb      	ldr	r3, [r7, #12]
 8102946:	4413      	add	r3, r2
 8102948:	60fb      	str	r3, [r7, #12]
  }

  while ((HAL_GetTick() - tickstart) < wait)
 810294a:	bf00      	nop
 810294c:	f7ff ffde 	bl	810290c <HAL_GetTick>
 8102950:	4602      	mov	r2, r0
 8102952:	68bb      	ldr	r3, [r7, #8]
 8102954:	1ad3      	subs	r3, r2, r3
 8102956:	68fa      	ldr	r2, [r7, #12]
 8102958:	429a      	cmp	r2, r3
 810295a:	d8f7      	bhi.n	810294c <HAL_Delay+0x28>
  {
  }
}
 810295c:	bf00      	nop
 810295e:	bf00      	nop
 8102960:	3710      	adds	r7, #16
 8102962:	46bd      	mov	sp, r7
 8102964:	bd80      	pop	{r7, pc}
 8102966:	bf00      	nop
 8102968:	10000010 	.word	0x10000010

0810296c <HAL_GetREVID>:
/**
  * @brief  Returns the device revision identifier.
  * @retval Device revision identifier
  */
uint32_t HAL_GetREVID(void)
{
 810296c:	b480      	push	{r7}
 810296e:	af00      	add	r7, sp, #0
   return((DBGMCU->IDCODE) >> 16);
 8102970:	4b03      	ldr	r3, [pc, #12]	; (8102980 <HAL_GetREVID+0x14>)
 8102972:	681b      	ldr	r3, [r3, #0]
 8102974:	0c1b      	lsrs	r3, r3, #16
}
 8102976:	4618      	mov	r0, r3
 8102978:	46bd      	mov	sp, r7
 810297a:	f85d 7b04 	ldr.w	r7, [sp], #4
 810297e:	4770      	bx	lr
 8102980:	5c001000 	.word	0x5c001000

08102984 <LL_ADC_SetCommonClock>:
  *         @arg @ref LL_ADC_CLOCK_ASYNC_DIV128
  *         @arg @ref LL_ADC_CLOCK_ASYNC_DIV256
  * @retval None
  */
__STATIC_INLINE void LL_ADC_SetCommonClock(ADC_Common_TypeDef *ADCxy_COMMON, uint32_t CommonClock)
{
 8102984:	b480      	push	{r7}
 8102986:	b083      	sub	sp, #12
 8102988:	af00      	add	r7, sp, #0
 810298a:	6078      	str	r0, [r7, #4]
 810298c:	6039      	str	r1, [r7, #0]
  MODIFY_REG(ADCxy_COMMON->CCR, ADC_CCR_CKMODE | ADC_CCR_PRESC, CommonClock);
 810298e:	687b      	ldr	r3, [r7, #4]
 8102990:	689b      	ldr	r3, [r3, #8]
 8102992:	f423 127c 	bic.w	r2, r3, #4128768	; 0x3f0000
 8102996:	683b      	ldr	r3, [r7, #0]
 8102998:	431a      	orrs	r2, r3
 810299a:	687b      	ldr	r3, [r7, #4]
 810299c:	609a      	str	r2, [r3, #8]
}
 810299e:	bf00      	nop
 81029a0:	370c      	adds	r7, #12
 81029a2:	46bd      	mov	sp, r7
 81029a4:	f85d 7b04 	ldr.w	r7, [sp], #4
 81029a8:	4770      	bx	lr

081029aa <LL_ADC_SetCommonPathInternalCh>:
  *         @arg @ref LL_ADC_PATH_INTERNAL_TEMPSENSOR
  *         @arg @ref LL_ADC_PATH_INTERNAL_VBAT
  * @retval None
  */
__STATIC_INLINE void LL_ADC_SetCommonPathInternalCh(ADC_Common_TypeDef *ADCxy_COMMON, uint32_t PathInternal)
{
 81029aa:	b480      	push	{r7}
 81029ac:	b083      	sub	sp, #12
 81029ae:	af00      	add	r7, sp, #0
 81029b0:	6078      	str	r0, [r7, #4]
 81029b2:	6039      	str	r1, [r7, #0]
  MODIFY_REG(ADCxy_COMMON->CCR, ADC_CCR_VREFEN | ADC_CCR_TSEN | ADC_CCR_VBATEN, PathInternal);
 81029b4:	687b      	ldr	r3, [r7, #4]
 81029b6:	689b      	ldr	r3, [r3, #8]
 81029b8:	f023 72e0 	bic.w	r2, r3, #29360128	; 0x1c00000
 81029bc:	683b      	ldr	r3, [r7, #0]
 81029be:	431a      	orrs	r2, r3
 81029c0:	687b      	ldr	r3, [r7, #4]
 81029c2:	609a      	str	r2, [r3, #8]
}
 81029c4:	bf00      	nop
 81029c6:	370c      	adds	r7, #12
 81029c8:	46bd      	mov	sp, r7
 81029ca:	f85d 7b04 	ldr.w	r7, [sp], #4
 81029ce:	4770      	bx	lr

081029d0 <LL_ADC_GetCommonPathInternalCh>:
  *         @arg @ref LL_ADC_PATH_INTERNAL_VREFINT
  *         @arg @ref LL_ADC_PATH_INTERNAL_TEMPSENSOR
  *         @arg @ref LL_ADC_PATH_INTERNAL_VBAT
  */
__STATIC_INLINE uint32_t LL_ADC_GetCommonPathInternalCh(ADC_Common_TypeDef *ADCxy_COMMON)
{
 81029d0:	b480      	push	{r7}
 81029d2:	b083      	sub	sp, #12
 81029d4:	af00      	add	r7, sp, #0
 81029d6:	6078      	str	r0, [r7, #4]
  return (uint32_t)(READ_BIT(ADCxy_COMMON->CCR, ADC_CCR_VREFEN | ADC_CCR_TSEN | ADC_CCR_VBATEN));
 81029d8:	687b      	ldr	r3, [r7, #4]
 81029da:	689b      	ldr	r3, [r3, #8]
 81029dc:	f003 73e0 	and.w	r3, r3, #29360128	; 0x1c00000
}
 81029e0:	4618      	mov	r0, r3
 81029e2:	370c      	adds	r7, #12
 81029e4:	46bd      	mov	sp, r7
 81029e6:	f85d 7b04 	ldr.w	r7, [sp], #4
 81029ea:	4770      	bx	lr

081029ec <LL_ADC_SetOffset>:
  *             Other channels are slow channels (conversion rate: refer to reference manual).
  * @param  OffsetLevel Value between Min_Data=0x000 and Max_Data=0x1FFFFFF
  * @retval None
  */
__STATIC_INLINE void LL_ADC_SetOffset(ADC_TypeDef *ADCx, uint32_t Offsety, uint32_t Channel, uint32_t OffsetLevel)
{
 81029ec:	b480      	push	{r7}
 81029ee:	b087      	sub	sp, #28
 81029f0:	af00      	add	r7, sp, #0
 81029f2:	60f8      	str	r0, [r7, #12]
 81029f4:	60b9      	str	r1, [r7, #8]
 81029f6:	607a      	str	r2, [r7, #4]
 81029f8:	603b      	str	r3, [r7, #0]
  __IO uint32_t *preg = __ADC_PTR_REG_OFFSET(ADCx->OFR1, Offsety);
 81029fa:	68fb      	ldr	r3, [r7, #12]
 81029fc:	3360      	adds	r3, #96	; 0x60
 81029fe:	461a      	mov	r2, r3
 8102a00:	68bb      	ldr	r3, [r7, #8]
 8102a02:	009b      	lsls	r3, r3, #2
 8102a04:	4413      	add	r3, r2
 8102a06:	617b      	str	r3, [r7, #20]
               ADC3_OFR1_OFFSET1_EN | (Channel & ADC_CHANNEL_ID_NUMBER_MASK) | OffsetLevel);
  }
  else
#endif /* ADC_VER_V5_V90 */
  {
    MODIFY_REG(*preg,
 8102a08:	697b      	ldr	r3, [r7, #20]
 8102a0a:	681b      	ldr	r3, [r3, #0]
 8102a0c:	f003 4200 	and.w	r2, r3, #2147483648	; 0x80000000
 8102a10:	687b      	ldr	r3, [r7, #4]
 8102a12:	f003 41f8 	and.w	r1, r3, #2080374784	; 0x7c000000
 8102a16:	683b      	ldr	r3, [r7, #0]
 8102a18:	430b      	orrs	r3, r1
 8102a1a:	431a      	orrs	r2, r3
 8102a1c:	697b      	ldr	r3, [r7, #20]
 8102a1e:	601a      	str	r2, [r3, #0]
               ADC_OFR1_OFFSET1_CH | ADC_OFR1_OFFSET1,
               (Channel & ADC_CHANNEL_ID_NUMBER_MASK) | OffsetLevel);
  }
}
 8102a20:	bf00      	nop
 8102a22:	371c      	adds	r7, #28
 8102a24:	46bd      	mov	sp, r7
 8102a26:	f85d 7b04 	ldr.w	r7, [sp], #4
 8102a2a:	4770      	bx	lr

08102a2c <LL_ADC_SetDataRightShift>:
  *         @arg @ref LL_ADC_OFFSET_RSHIFT_ENABLE
  *         @arg @ref LL_ADC_OFFSET_RSHIFT_DISABLE
  * @retval Returned None
  */
__STATIC_INLINE void LL_ADC_SetDataRightShift(ADC_TypeDef *ADCx, uint32_t Offsety, uint32_t RigthShift)
{
 8102a2c:	b480      	push	{r7}
 8102a2e:	b085      	sub	sp, #20
 8102a30:	af00      	add	r7, sp, #0
 8102a32:	60f8      	str	r0, [r7, #12]
 8102a34:	60b9      	str	r1, [r7, #8]
 8102a36:	607a      	str	r2, [r7, #4]
  MODIFY_REG(ADCx->CFGR2, (ADC_CFGR2_RSHIFT1 | ADC_CFGR2_RSHIFT2 | ADC_CFGR2_RSHIFT3 | ADC_CFGR2_RSHIFT4), RigthShift << (Offsety & 0x1FUL));
 8102a38:	68fb      	ldr	r3, [r7, #12]
 8102a3a:	691b      	ldr	r3, [r3, #16]
 8102a3c:	f423 42f0 	bic.w	r2, r3, #30720	; 0x7800
 8102a40:	68bb      	ldr	r3, [r7, #8]
 8102a42:	f003 031f 	and.w	r3, r3, #31
 8102a46:	6879      	ldr	r1, [r7, #4]
 8102a48:	fa01 f303 	lsl.w	r3, r1, r3
 8102a4c:	431a      	orrs	r2, r3
 8102a4e:	68fb      	ldr	r3, [r7, #12]
 8102a50:	611a      	str	r2, [r3, #16]
}
 8102a52:	bf00      	nop
 8102a54:	3714      	adds	r7, #20
 8102a56:	46bd      	mov	sp, r7
 8102a58:	f85d 7b04 	ldr.w	r7, [sp], #4
 8102a5c:	4770      	bx	lr

08102a5e <LL_ADC_SetOffsetSignedSaturation>:
  *         @arg @ref LL_ADC_OFFSET_SIGNED_SATURATION_ENABLE
  *         @arg @ref LL_ADC_OFFSET_SIGNED_SATURATION_DISABLE
  * @retval Returned None
  */
__STATIC_INLINE void LL_ADC_SetOffsetSignedSaturation(ADC_TypeDef *ADCx, uint32_t Offsety, uint32_t OffsetSignedSaturation)
{
 8102a5e:	b480      	push	{r7}
 8102a60:	b087      	sub	sp, #28
 8102a62:	af00      	add	r7, sp, #0
 8102a64:	60f8      	str	r0, [r7, #12]
 8102a66:	60b9      	str	r1, [r7, #8]
 8102a68:	607a      	str	r2, [r7, #4]
    /* Function not available on this instance */
  }
  else
#endif  /* ADC_VER_V5_V90 */
  {
    __IO uint32_t *preg = __ADC_PTR_REG_OFFSET(ADCx->OFR1, Offsety);
 8102a6a:	68fb      	ldr	r3, [r7, #12]
 8102a6c:	3360      	adds	r3, #96	; 0x60
 8102a6e:	461a      	mov	r2, r3
 8102a70:	68bb      	ldr	r3, [r7, #8]
 8102a72:	009b      	lsls	r3, r3, #2
 8102a74:	4413      	add	r3, r2
 8102a76:	617b      	str	r3, [r7, #20]
    MODIFY_REG(*preg, ADC_OFR1_SSATE, OffsetSignedSaturation);
 8102a78:	697b      	ldr	r3, [r7, #20]
 8102a7a:	681b      	ldr	r3, [r3, #0]
 8102a7c:	f023 4200 	bic.w	r2, r3, #2147483648	; 0x80000000
 8102a80:	687b      	ldr	r3, [r7, #4]
 8102a82:	431a      	orrs	r2, r3
 8102a84:	697b      	ldr	r3, [r7, #20]
 8102a86:	601a      	str	r2, [r3, #0]
  }
}
 8102a88:	bf00      	nop
 8102a8a:	371c      	adds	r7, #28
 8102a8c:	46bd      	mov	sp, r7
 8102a8e:	f85d 7b04 	ldr.w	r7, [sp], #4
 8102a92:	4770      	bx	lr

08102a94 <LL_ADC_REG_IsTriggerSourceSWStart>:
  * @param  ADCx ADC instance
  * @retval Value "0" if trigger source external trigger
  *         Value "1" if trigger source SW start.
  */
__STATIC_INLINE uint32_t LL_ADC_REG_IsTriggerSourceSWStart(ADC_TypeDef *ADCx)
{
 8102a94:	b480      	push	{r7}
 8102a96:	b083      	sub	sp, #12
 8102a98:	af00      	add	r7, sp, #0
 8102a9a:	6078      	str	r0, [r7, #4]
  return ((READ_BIT(ADCx->CFGR, ADC_CFGR_EXTEN) == (LL_ADC_REG_TRIG_SOFTWARE & ADC_CFGR_EXTEN)) ? 1UL : 0UL);
 8102a9c:	687b      	ldr	r3, [r7, #4]
 8102a9e:	68db      	ldr	r3, [r3, #12]
 8102aa0:	f403 6340 	and.w	r3, r3, #3072	; 0xc00
 8102aa4:	2b00      	cmp	r3, #0
 8102aa6:	d101      	bne.n	8102aac <LL_ADC_REG_IsTriggerSourceSWStart+0x18>
 8102aa8:	2301      	movs	r3, #1
 8102aaa:	e000      	b.n	8102aae <LL_ADC_REG_IsTriggerSourceSWStart+0x1a>
 8102aac:	2300      	movs	r3, #0
}
 8102aae:	4618      	mov	r0, r3
 8102ab0:	370c      	adds	r7, #12
 8102ab2:	46bd      	mov	sp, r7
 8102ab4:	f85d 7b04 	ldr.w	r7, [sp], #4
 8102ab8:	4770      	bx	lr

08102aba <LL_ADC_REG_SetSequencerRanks>:
  *         (3) On STM32H7, fast channel (0.125 us for 14-bit resolution (ADC conversion rate up to 8 Ms/s)).
  *             Other channels are slow channels (conversion rate: refer to reference manual).
  * @retval None
  */
__STATIC_INLINE void LL_ADC_REG_SetSequencerRanks(ADC_TypeDef *ADCx, uint32_t Rank, uint32_t Channel)
{
 8102aba:	b480      	push	{r7}
 8102abc:	b087      	sub	sp, #28
 8102abe:	af00      	add	r7, sp, #0
 8102ac0:	60f8      	str	r0, [r7, #12]
 8102ac2:	60b9      	str	r1, [r7, #8]
 8102ac4:	607a      	str	r2, [r7, #4]
  /* Set bits with content of parameter "Channel" with bits position          */
  /* in register and register position depending on parameter "Rank".         */
  /* Parameters "Rank" and "Channel" are used with masks because containing   */
  /* other bits reserved for other purpose.                                   */
  __IO uint32_t *preg = __ADC_PTR_REG_OFFSET(ADCx->SQR1, ((Rank & ADC_REG_SQRX_REGOFFSET_MASK) >> ADC_SQRX_REGOFFSET_POS));
 8102ac6:	68fb      	ldr	r3, [r7, #12]
 8102ac8:	3330      	adds	r3, #48	; 0x30
 8102aca:	461a      	mov	r2, r3
 8102acc:	68bb      	ldr	r3, [r7, #8]
 8102ace:	0a1b      	lsrs	r3, r3, #8
 8102ad0:	009b      	lsls	r3, r3, #2
 8102ad2:	f003 030c 	and.w	r3, r3, #12
 8102ad6:	4413      	add	r3, r2
 8102ad8:	617b      	str	r3, [r7, #20]

  MODIFY_REG(*preg,
 8102ada:	697b      	ldr	r3, [r7, #20]
 8102adc:	681a      	ldr	r2, [r3, #0]
 8102ade:	68bb      	ldr	r3, [r7, #8]
 8102ae0:	f003 031f 	and.w	r3, r3, #31
 8102ae4:	211f      	movs	r1, #31
 8102ae6:	fa01 f303 	lsl.w	r3, r1, r3
 8102aea:	43db      	mvns	r3, r3
 8102aec:	401a      	ands	r2, r3
 8102aee:	687b      	ldr	r3, [r7, #4]
 8102af0:	0e9b      	lsrs	r3, r3, #26
 8102af2:	f003 011f 	and.w	r1, r3, #31
 8102af6:	68bb      	ldr	r3, [r7, #8]
 8102af8:	f003 031f 	and.w	r3, r3, #31
 8102afc:	fa01 f303 	lsl.w	r3, r1, r3
 8102b00:	431a      	orrs	r2, r3
 8102b02:	697b      	ldr	r3, [r7, #20]
 8102b04:	601a      	str	r2, [r3, #0]
             ADC_CHANNEL_ID_NUMBER_MASK_POSBIT0 << (Rank & ADC_REG_RANK_ID_SQRX_MASK),
             ((Channel & ADC_CHANNEL_ID_NUMBER_MASK) >> ADC_CHANNEL_ID_NUMBER_BITOFFSET_POS) << (Rank & ADC_REG_RANK_ID_SQRX_MASK));
}
 8102b06:	bf00      	nop
 8102b08:	371c      	adds	r7, #28
 8102b0a:	46bd      	mov	sp, r7
 8102b0c:	f85d 7b04 	ldr.w	r7, [sp], #4
 8102b10:	4770      	bx	lr

08102b12 <LL_ADC_SetChannelSamplingTime>:
  *         @arg @ref LL_ADC_SAMPLINGTIME_387CYCLES_5
  *         @arg @ref LL_ADC_SAMPLINGTIME_810CYCLES_5
  * @retval None
  */
__STATIC_INLINE void LL_ADC_SetChannelSamplingTime(ADC_TypeDef *ADCx, uint32_t Channel, uint32_t SamplingTime)
{
 8102b12:	b480      	push	{r7}
 8102b14:	b087      	sub	sp, #28
 8102b16:	af00      	add	r7, sp, #0
 8102b18:	60f8      	str	r0, [r7, #12]
 8102b1a:	60b9      	str	r1, [r7, #8]
 8102b1c:	607a      	str	r2, [r7, #4]
  /* Set bits with content of parameter "SamplingTime" with bits position     */
  /* in register and register position depending on parameter "Channel".      */
  /* Parameter "Channel" is used with masks because containing                */
  /* other bits reserved for other purpose.                                   */
  __IO uint32_t *preg = __ADC_PTR_REG_OFFSET(ADCx->SMPR1, ((Channel & ADC_CHANNEL_SMPRX_REGOFFSET_MASK) >> ADC_SMPRX_REGOFFSET_POS));
 8102b1e:	68fb      	ldr	r3, [r7, #12]
 8102b20:	3314      	adds	r3, #20
 8102b22:	461a      	mov	r2, r3
 8102b24:	68bb      	ldr	r3, [r7, #8]
 8102b26:	0e5b      	lsrs	r3, r3, #25
 8102b28:	009b      	lsls	r3, r3, #2
 8102b2a:	f003 0304 	and.w	r3, r3, #4
 8102b2e:	4413      	add	r3, r2
 8102b30:	617b      	str	r3, [r7, #20]

  MODIFY_REG(*preg,
 8102b32:	697b      	ldr	r3, [r7, #20]
 8102b34:	681a      	ldr	r2, [r3, #0]
 8102b36:	68bb      	ldr	r3, [r7, #8]
 8102b38:	0d1b      	lsrs	r3, r3, #20
 8102b3a:	f003 031f 	and.w	r3, r3, #31
 8102b3e:	2107      	movs	r1, #7
 8102b40:	fa01 f303 	lsl.w	r3, r1, r3
 8102b44:	43db      	mvns	r3, r3
 8102b46:	401a      	ands	r2, r3
 8102b48:	68bb      	ldr	r3, [r7, #8]
 8102b4a:	0d1b      	lsrs	r3, r3, #20
 8102b4c:	f003 031f 	and.w	r3, r3, #31
 8102b50:	6879      	ldr	r1, [r7, #4]
 8102b52:	fa01 f303 	lsl.w	r3, r1, r3
 8102b56:	431a      	orrs	r2, r3
 8102b58:	697b      	ldr	r3, [r7, #20]
 8102b5a:	601a      	str	r2, [r3, #0]
             ADC_SMPR1_SMP0 << ((Channel & ADC_CHANNEL_SMPx_BITOFFSET_MASK) >> ADC_CHANNEL_SMPx_BITOFFSET_POS),
             SamplingTime   << ((Channel & ADC_CHANNEL_SMPx_BITOFFSET_MASK) >> ADC_CHANNEL_SMPx_BITOFFSET_POS));
}
 8102b5c:	bf00      	nop
 8102b5e:	371c      	adds	r7, #28
 8102b60:	46bd      	mov	sp, r7
 8102b62:	f85d 7b04 	ldr.w	r7, [sp], #4
 8102b66:	4770      	bx	lr

08102b68 <LL_ADC_SetChannelSingleDiff>:
  *         @arg @ref LL_ADC_SINGLE_ENDED
  *         @arg @ref LL_ADC_DIFFERENTIAL_ENDED
  * @retval None
  */
__STATIC_INLINE void LL_ADC_SetChannelSingleDiff(ADC_TypeDef *ADCx, uint32_t Channel, uint32_t SingleDiff)
{
 8102b68:	b480      	push	{r7}
 8102b6a:	b085      	sub	sp, #20
 8102b6c:	af00      	add	r7, sp, #0
 8102b6e:	60f8      	str	r0, [r7, #12]
 8102b70:	60b9      	str	r1, [r7, #8]
 8102b72:	607a      	str	r2, [r7, #4]
  }
#else  /* ADC_VER_V5_V90 */
  /* Bits of channels in single or differential mode are set only for         */
  /* differential mode (for single mode, mask of bits allowed to be set is    */
  /* shifted out of range of bits of channels in single or differential mode. */
  MODIFY_REG(ADCx->DIFSEL,
 8102b74:	68fb      	ldr	r3, [r7, #12]
 8102b76:	f8d3 20c0 	ldr.w	r2, [r3, #192]	; 0xc0
 8102b7a:	68bb      	ldr	r3, [r7, #8]
 8102b7c:	f3c3 0313 	ubfx	r3, r3, #0, #20
 8102b80:	43db      	mvns	r3, r3
 8102b82:	401a      	ands	r2, r3
 8102b84:	687b      	ldr	r3, [r7, #4]
 8102b86:	f003 0318 	and.w	r3, r3, #24
 8102b8a:	4908      	ldr	r1, [pc, #32]	; (8102bac <LL_ADC_SetChannelSingleDiff+0x44>)
 8102b8c:	40d9      	lsrs	r1, r3
 8102b8e:	68bb      	ldr	r3, [r7, #8]
 8102b90:	400b      	ands	r3, r1
 8102b92:	f3c3 0313 	ubfx	r3, r3, #0, #20
 8102b96:	431a      	orrs	r2, r3
 8102b98:	68fb      	ldr	r3, [r7, #12]
 8102b9a:	f8c3 20c0 	str.w	r2, [r3, #192]	; 0xc0
             Channel & ADC_SINGLEDIFF_CHANNEL_MASK,
             (Channel & ADC_SINGLEDIFF_CHANNEL_MASK) & (ADC_DIFSEL_DIFSEL >> (SingleDiff & ADC_SINGLEDIFF_CHANNEL_SHIFT_MASK)));
#endif
}
 8102b9e:	bf00      	nop
 8102ba0:	3714      	adds	r7, #20
 8102ba2:	46bd      	mov	sp, r7
 8102ba4:	f85d 7b04 	ldr.w	r7, [sp], #4
 8102ba8:	4770      	bx	lr
 8102baa:	bf00      	nop
 8102bac:	000fffff 	.word	0x000fffff

08102bb0 <LL_ADC_GetMultimode>:
  *         @arg @ref LL_ADC_MULTI_DUAL_REG_SIM_INJ_SIM
  *         @arg @ref LL_ADC_MULTI_DUAL_REG_SIM_INJ_ALT
  *         @arg @ref LL_ADC_MULTI_DUAL_REG_INT_INJ_SIM
  */
__STATIC_INLINE uint32_t LL_ADC_GetMultimode(ADC_Common_TypeDef *ADCxy_COMMON)
{
 8102bb0:	b480      	push	{r7}
 8102bb2:	b083      	sub	sp, #12
 8102bb4:	af00      	add	r7, sp, #0
 8102bb6:	6078      	str	r0, [r7, #4]
  return (uint32_t)(READ_BIT(ADCxy_COMMON->CCR, ADC_CCR_DUAL));
 8102bb8:	687b      	ldr	r3, [r7, #4]
 8102bba:	689b      	ldr	r3, [r3, #8]
 8102bbc:	f003 031f 	and.w	r3, r3, #31
}
 8102bc0:	4618      	mov	r0, r3
 8102bc2:	370c      	adds	r7, #12
 8102bc4:	46bd      	mov	sp, r7
 8102bc6:	f85d 7b04 	ldr.w	r7, [sp], #4
 8102bca:	4770      	bx	lr

08102bcc <LL_ADC_GetMultiDMATransfer>:
  *         @arg @ref LL_ADC_MULTI_REG_DMA_EACH_ADC
  *         @arg @ref LL_ADC_MULTI_REG_DMA_RES_32_10B
  *         @arg @ref LL_ADC_MULTI_REG_DMA_RES_8B
  */
__STATIC_INLINE uint32_t LL_ADC_GetMultiDMATransfer(ADC_Common_TypeDef *ADCxy_COMMON)
{
 8102bcc:	b480      	push	{r7}
 8102bce:	b083      	sub	sp, #12
 8102bd0:	af00      	add	r7, sp, #0
 8102bd2:	6078      	str	r0, [r7, #4]
  return (uint32_t)(READ_BIT(ADCxy_COMMON->CCR, ADC_CCR_DAMDF));
 8102bd4:	687b      	ldr	r3, [r7, #4]
 8102bd6:	689b      	ldr	r3, [r3, #8]
 8102bd8:	f403 4340 	and.w	r3, r3, #49152	; 0xc000
}
 8102bdc:	4618      	mov	r0, r3
 8102bde:	370c      	adds	r7, #12
 8102be0:	46bd      	mov	sp, r7
 8102be2:	f85d 7b04 	ldr.w	r7, [sp], #4
 8102be6:	4770      	bx	lr

08102be8 <LL_ADC_DisableDeepPowerDown>:
  * @rmtoll CR       DEEPPWD        LL_ADC_DisableDeepPowerDown
  * @param  ADCx ADC instance
  * @retval None
  */
__STATIC_INLINE void LL_ADC_DisableDeepPowerDown(ADC_TypeDef *ADCx)
{
 8102be8:	b480      	push	{r7}
 8102bea:	b083      	sub	sp, #12
 8102bec:	af00      	add	r7, sp, #0
 8102bee:	6078      	str	r0, [r7, #4]
  /* Note: Write register with some additional bits forced to state reset     */
  /*       instead of modifying only the selected bit for this function,      */
  /*       to not interfere with bits with HW property "rs".                  */
  CLEAR_BIT(ADCx->CR, (ADC_CR_DEEPPWD | ADC_CR_BITS_PROPERTY_RS));
 8102bf0:	687b      	ldr	r3, [r7, #4]
 8102bf2:	689b      	ldr	r3, [r3, #8]
 8102bf4:	f023 4320 	bic.w	r3, r3, #2684354560	; 0xa0000000
 8102bf8:	f023 033f 	bic.w	r3, r3, #63	; 0x3f
 8102bfc:	687a      	ldr	r2, [r7, #4]
 8102bfe:	6093      	str	r3, [r2, #8]
}
 8102c00:	bf00      	nop
 8102c02:	370c      	adds	r7, #12
 8102c04:	46bd      	mov	sp, r7
 8102c06:	f85d 7b04 	ldr.w	r7, [sp], #4
 8102c0a:	4770      	bx	lr

08102c0c <LL_ADC_IsDeepPowerDownEnabled>:
  * @rmtoll CR       DEEPPWD        LL_ADC_IsDeepPowerDownEnabled
  * @param  ADCx ADC instance
  * @retval 0: deep power down is disabled, 1: deep power down is enabled.
  */
__STATIC_INLINE uint32_t LL_ADC_IsDeepPowerDownEnabled(ADC_TypeDef *ADCx)
{
 8102c0c:	b480      	push	{r7}
 8102c0e:	b083      	sub	sp, #12
 8102c10:	af00      	add	r7, sp, #0
 8102c12:	6078      	str	r0, [r7, #4]
  return ((READ_BIT(ADCx->CR, ADC_CR_DEEPPWD) == (ADC_CR_DEEPPWD)) ? 1UL : 0UL);
 8102c14:	687b      	ldr	r3, [r7, #4]
 8102c16:	689b      	ldr	r3, [r3, #8]
 8102c18:	f003 5300 	and.w	r3, r3, #536870912	; 0x20000000
 8102c1c:	f1b3 5f00 	cmp.w	r3, #536870912	; 0x20000000
 8102c20:	d101      	bne.n	8102c26 <LL_ADC_IsDeepPowerDownEnabled+0x1a>
 8102c22:	2301      	movs	r3, #1
 8102c24:	e000      	b.n	8102c28 <LL_ADC_IsDeepPowerDownEnabled+0x1c>
 8102c26:	2300      	movs	r3, #0
}
 8102c28:	4618      	mov	r0, r3
 8102c2a:	370c      	adds	r7, #12
 8102c2c:	46bd      	mov	sp, r7
 8102c2e:	f85d 7b04 	ldr.w	r7, [sp], #4
 8102c32:	4770      	bx	lr

08102c34 <LL_ADC_EnableInternalRegulator>:
  * @rmtoll CR       ADVREGEN       LL_ADC_EnableInternalRegulator
  * @param  ADCx ADC instance
  * @retval None
  */
__STATIC_INLINE void LL_ADC_EnableInternalRegulator(ADC_TypeDef *ADCx)
{
 8102c34:	b480      	push	{r7}
 8102c36:	b083      	sub	sp, #12
 8102c38:	af00      	add	r7, sp, #0
 8102c3a:	6078      	str	r0, [r7, #4]
  /* Note: Write register with some additional bits forced to state reset     */
  /*       instead of modifying only the selected bit for this function,      */
  /*       to not interfere with bits with HW property "rs".                  */
  MODIFY_REG(ADCx->CR,
 8102c3c:	687b      	ldr	r3, [r7, #4]
 8102c3e:	689b      	ldr	r3, [r3, #8]
 8102c40:	f023 4310 	bic.w	r3, r3, #2415919104	; 0x90000000
 8102c44:	f023 033f 	bic.w	r3, r3, #63	; 0x3f
 8102c48:	f043 5280 	orr.w	r2, r3, #268435456	; 0x10000000
 8102c4c:	687b      	ldr	r3, [r7, #4]
 8102c4e:	609a      	str	r2, [r3, #8]
             ADC_CR_BITS_PROPERTY_RS,
             ADC_CR_ADVREGEN);
}
 8102c50:	bf00      	nop
 8102c52:	370c      	adds	r7, #12
 8102c54:	46bd      	mov	sp, r7
 8102c56:	f85d 7b04 	ldr.w	r7, [sp], #4
 8102c5a:	4770      	bx	lr

08102c5c <LL_ADC_IsInternalRegulatorEnabled>:
  * @rmtoll CR       ADVREGEN       LL_ADC_IsInternalRegulatorEnabled
  * @param  ADCx ADC instance
  * @retval 0: internal regulator is disabled, 1: internal regulator is enabled.
  */
__STATIC_INLINE uint32_t LL_ADC_IsInternalRegulatorEnabled(ADC_TypeDef *ADCx)
{
 8102c5c:	b480      	push	{r7}
 8102c5e:	b083      	sub	sp, #12
 8102c60:	af00      	add	r7, sp, #0
 8102c62:	6078      	str	r0, [r7, #4]
  return ((READ_BIT(ADCx->CR, ADC_CR_ADVREGEN) == (ADC_CR_ADVREGEN)) ? 1UL : 0UL);
 8102c64:	687b      	ldr	r3, [r7, #4]
 8102c66:	689b      	ldr	r3, [r3, #8]
 8102c68:	f003 5380 	and.w	r3, r3, #268435456	; 0x10000000
 8102c6c:	f1b3 5f80 	cmp.w	r3, #268435456	; 0x10000000
 8102c70:	d101      	bne.n	8102c76 <LL_ADC_IsInternalRegulatorEnabled+0x1a>
 8102c72:	2301      	movs	r3, #1
 8102c74:	e000      	b.n	8102c78 <LL_ADC_IsInternalRegulatorEnabled+0x1c>
 8102c76:	2300      	movs	r3, #0
}
 8102c78:	4618      	mov	r0, r3
 8102c7a:	370c      	adds	r7, #12
 8102c7c:	46bd      	mov	sp, r7
 8102c7e:	f85d 7b04 	ldr.w	r7, [sp], #4
 8102c82:	4770      	bx	lr

08102c84 <LL_ADC_Enable>:
  * @rmtoll CR       ADEN           LL_ADC_Enable
  * @param  ADCx ADC instance
  * @retval None
  */
__STATIC_INLINE void LL_ADC_Enable(ADC_TypeDef *ADCx)
{
 8102c84:	b480      	push	{r7}
 8102c86:	b083      	sub	sp, #12
 8102c88:	af00      	add	r7, sp, #0
 8102c8a:	6078      	str	r0, [r7, #4]
  /* Note: Write register with some additional bits forced to state reset     */
  /*       instead of modifying only the selected bit for this function,      */
  /*       to not interfere with bits with HW property "rs".                  */
  MODIFY_REG(ADCx->CR,
 8102c8c:	687b      	ldr	r3, [r7, #4]
 8102c8e:	689b      	ldr	r3, [r3, #8]
 8102c90:	f023 4300 	bic.w	r3, r3, #2147483648	; 0x80000000
 8102c94:	f023 033f 	bic.w	r3, r3, #63	; 0x3f
 8102c98:	f043 0201 	orr.w	r2, r3, #1
 8102c9c:	687b      	ldr	r3, [r7, #4]
 8102c9e:	609a      	str	r2, [r3, #8]
             ADC_CR_BITS_PROPERTY_RS,
             ADC_CR_ADEN);
}
 8102ca0:	bf00      	nop
 8102ca2:	370c      	adds	r7, #12
 8102ca4:	46bd      	mov	sp, r7
 8102ca6:	f85d 7b04 	ldr.w	r7, [sp], #4
 8102caa:	4770      	bx	lr

08102cac <LL_ADC_Disable>:
  * @rmtoll CR       ADDIS          LL_ADC_Disable
  * @param  ADCx ADC instance
  * @retval None
  */
__STATIC_INLINE void LL_ADC_Disable(ADC_TypeDef *ADCx)
{
 8102cac:	b480      	push	{r7}
 8102cae:	b083      	sub	sp, #12
 8102cb0:	af00      	add	r7, sp, #0
 8102cb2:	6078      	str	r0, [r7, #4]
  /* Note: Write register with some additional bits forced to state reset     */
  /*       instead of modifying only the selected bit for this function,      */
  /*       to not interfere with bits with HW property "rs".                  */
  MODIFY_REG(ADCx->CR,
 8102cb4:	687b      	ldr	r3, [r7, #4]
 8102cb6:	689b      	ldr	r3, [r3, #8]
 8102cb8:	f023 4300 	bic.w	r3, r3, #2147483648	; 0x80000000
 8102cbc:	f023 033f 	bic.w	r3, r3, #63	; 0x3f
 8102cc0:	f043 0202 	orr.w	r2, r3, #2
 8102cc4:	687b      	ldr	r3, [r7, #4]
 8102cc6:	609a      	str	r2, [r3, #8]
             ADC_CR_BITS_PROPERTY_RS,
             ADC_CR_ADDIS);
}
 8102cc8:	bf00      	nop
 8102cca:	370c      	adds	r7, #12
 8102ccc:	46bd      	mov	sp, r7
 8102cce:	f85d 7b04 	ldr.w	r7, [sp], #4
 8102cd2:	4770      	bx	lr

08102cd4 <LL_ADC_IsEnabled>:
  * @rmtoll CR       ADEN           LL_ADC_IsEnabled
  * @param  ADCx ADC instance
  * @retval 0: ADC is disabled, 1: ADC is enabled.
  */
__STATIC_INLINE uint32_t LL_ADC_IsEnabled(ADC_TypeDef *ADCx)
{
 8102cd4:	b480      	push	{r7}
 8102cd6:	b083      	sub	sp, #12
 8102cd8:	af00      	add	r7, sp, #0
 8102cda:	6078      	str	r0, [r7, #4]
  return ((READ_BIT(ADCx->CR, ADC_CR_ADEN) == (ADC_CR_ADEN)) ? 1UL : 0UL);
 8102cdc:	687b      	ldr	r3, [r7, #4]
 8102cde:	689b      	ldr	r3, [r3, #8]
 8102ce0:	f003 0301 	and.w	r3, r3, #1
 8102ce4:	2b01      	cmp	r3, #1
 8102ce6:	d101      	bne.n	8102cec <LL_ADC_IsEnabled+0x18>
 8102ce8:	2301      	movs	r3, #1
 8102cea:	e000      	b.n	8102cee <LL_ADC_IsEnabled+0x1a>
 8102cec:	2300      	movs	r3, #0
}
 8102cee:	4618      	mov	r0, r3
 8102cf0:	370c      	adds	r7, #12
 8102cf2:	46bd      	mov	sp, r7
 8102cf4:	f85d 7b04 	ldr.w	r7, [sp], #4
 8102cf8:	4770      	bx	lr

08102cfa <LL_ADC_IsDisableOngoing>:
  * @rmtoll CR       ADDIS          LL_ADC_IsDisableOngoing
  * @param  ADCx ADC instance
  * @retval 0: no ADC disable command on going.
  */
__STATIC_INLINE uint32_t LL_ADC_IsDisableOngoing(ADC_TypeDef *ADCx)
{
 8102cfa:	b480      	push	{r7}
 8102cfc:	b083      	sub	sp, #12
 8102cfe:	af00      	add	r7, sp, #0
 8102d00:	6078      	str	r0, [r7, #4]
  return ((READ_BIT(ADCx->CR, ADC_CR_ADDIS) == (ADC_CR_ADDIS)) ? 1UL : 0UL);
 8102d02:	687b      	ldr	r3, [r7, #4]
 8102d04:	689b      	ldr	r3, [r3, #8]
 8102d06:	f003 0302 	and.w	r3, r3, #2
 8102d0a:	2b02      	cmp	r3, #2
 8102d0c:	d101      	bne.n	8102d12 <LL_ADC_IsDisableOngoing+0x18>
 8102d0e:	2301      	movs	r3, #1
 8102d10:	e000      	b.n	8102d14 <LL_ADC_IsDisableOngoing+0x1a>
 8102d12:	2300      	movs	r3, #0
}
 8102d14:	4618      	mov	r0, r3
 8102d16:	370c      	adds	r7, #12
 8102d18:	46bd      	mov	sp, r7
 8102d1a:	f85d 7b04 	ldr.w	r7, [sp], #4
 8102d1e:	4770      	bx	lr

08102d20 <LL_ADC_REG_StartConversion>:
  * @rmtoll CR       ADSTART        LL_ADC_REG_StartConversion
  * @param  ADCx ADC instance
  * @retval None
  */
__STATIC_INLINE void LL_ADC_REG_StartConversion(ADC_TypeDef *ADCx)
{
 8102d20:	b480      	push	{r7}
 8102d22:	b083      	sub	sp, #12
 8102d24:	af00      	add	r7, sp, #0
 8102d26:	6078      	str	r0, [r7, #4]
  /* Note: Write register with some additional bits forced to state reset     */
  /*       instead of modifying only the selected bit for this function,      */
  /*       to not interfere with bits with HW property "rs".                  */
  MODIFY_REG(ADCx->CR,
 8102d28:	687b      	ldr	r3, [r7, #4]
 8102d2a:	689b      	ldr	r3, [r3, #8]
 8102d2c:	f023 4300 	bic.w	r3, r3, #2147483648	; 0x80000000
 8102d30:	f023 033f 	bic.w	r3, r3, #63	; 0x3f
 8102d34:	f043 0204 	orr.w	r2, r3, #4
 8102d38:	687b      	ldr	r3, [r7, #4]
 8102d3a:	609a      	str	r2, [r3, #8]
             ADC_CR_BITS_PROPERTY_RS,
             ADC_CR_ADSTART);
}
 8102d3c:	bf00      	nop
 8102d3e:	370c      	adds	r7, #12
 8102d40:	46bd      	mov	sp, r7
 8102d42:	f85d 7b04 	ldr.w	r7, [sp], #4
 8102d46:	4770      	bx	lr

08102d48 <LL_ADC_REG_StopConversion>:
  * @rmtoll CR       ADSTP          LL_ADC_REG_StopConversion
  * @param  ADCx ADC instance
  * @retval None
  */
__STATIC_INLINE void LL_ADC_REG_StopConversion(ADC_TypeDef *ADCx)
{
 8102d48:	b480      	push	{r7}
 8102d4a:	b083      	sub	sp, #12
 8102d4c:	af00      	add	r7, sp, #0
 8102d4e:	6078      	str	r0, [r7, #4]
  /* Note: Write register with some additional bits forced to state reset     */
  /*       instead of modifying only the selected bit for this function,      */
  /*       to not interfere with bits with HW property "rs".                  */
  MODIFY_REG(ADCx->CR,
 8102d50:	687b      	ldr	r3, [r7, #4]
 8102d52:	689b      	ldr	r3, [r3, #8]
 8102d54:	f023 4300 	bic.w	r3, r3, #2147483648	; 0x80000000
 8102d58:	f023 033f 	bic.w	r3, r3, #63	; 0x3f
 8102d5c:	f043 0210 	orr.w	r2, r3, #16
 8102d60:	687b      	ldr	r3, [r7, #4]
 8102d62:	609a      	str	r2, [r3, #8]
             ADC_CR_BITS_PROPERTY_RS,
             ADC_CR_ADSTP);
}
 8102d64:	bf00      	nop
 8102d66:	370c      	adds	r7, #12
 8102d68:	46bd      	mov	sp, r7
 8102d6a:	f85d 7b04 	ldr.w	r7, [sp], #4
 8102d6e:	4770      	bx	lr

08102d70 <LL_ADC_REG_IsConversionOngoing>:
  * @rmtoll CR       ADSTART        LL_ADC_REG_IsConversionOngoing
  * @param  ADCx ADC instance
  * @retval 0: no conversion is on going on ADC group regular.
  */
__STATIC_INLINE uint32_t LL_ADC_REG_IsConversionOngoing(ADC_TypeDef *ADCx)
{
 8102d70:	b480      	push	{r7}
 8102d72:	b083      	sub	sp, #12
 8102d74:	af00      	add	r7, sp, #0
 8102d76:	6078      	str	r0, [r7, #4]
  return ((READ_BIT(ADCx->CR, ADC_CR_ADSTART) == (ADC_CR_ADSTART)) ? 1UL : 0UL);
 8102d78:	687b      	ldr	r3, [r7, #4]
 8102d7a:	689b      	ldr	r3, [r3, #8]
 8102d7c:	f003 0304 	and.w	r3, r3, #4
 8102d80:	2b04      	cmp	r3, #4
 8102d82:	d101      	bne.n	8102d88 <LL_ADC_REG_IsConversionOngoing+0x18>
 8102d84:	2301      	movs	r3, #1
 8102d86:	e000      	b.n	8102d8a <LL_ADC_REG_IsConversionOngoing+0x1a>
 8102d88:	2300      	movs	r3, #0
}
 8102d8a:	4618      	mov	r0, r3
 8102d8c:	370c      	adds	r7, #12
 8102d8e:	46bd      	mov	sp, r7
 8102d90:	f85d 7b04 	ldr.w	r7, [sp], #4
 8102d94:	4770      	bx	lr

08102d96 <LL_ADC_INJ_StopConversion>:
  * @rmtoll CR       JADSTP         LL_ADC_INJ_StopConversion
  * @param  ADCx ADC instance
  * @retval None
  */
__STATIC_INLINE void LL_ADC_INJ_StopConversion(ADC_TypeDef *ADCx)
{
 8102d96:	b480      	push	{r7}
 8102d98:	b083      	sub	sp, #12
 8102d9a:	af00      	add	r7, sp, #0
 8102d9c:	6078      	str	r0, [r7, #4]
  /* Note: Write register with some additional bits forced to state reset     */
  /*       instead of modifying only the selected bit for this function,      */
  /*       to not interfere with bits with HW property "rs".                  */
  MODIFY_REG(ADCx->CR,
 8102d9e:	687b      	ldr	r3, [r7, #4]
 8102da0:	689b      	ldr	r3, [r3, #8]
 8102da2:	f023 4300 	bic.w	r3, r3, #2147483648	; 0x80000000
 8102da6:	f023 033f 	bic.w	r3, r3, #63	; 0x3f
 8102daa:	f043 0220 	orr.w	r2, r3, #32
 8102dae:	687b      	ldr	r3, [r7, #4]
 8102db0:	609a      	str	r2, [r3, #8]
             ADC_CR_BITS_PROPERTY_RS,
             ADC_CR_JADSTP);
}
 8102db2:	bf00      	nop
 8102db4:	370c      	adds	r7, #12
 8102db6:	46bd      	mov	sp, r7
 8102db8:	f85d 7b04 	ldr.w	r7, [sp], #4
 8102dbc:	4770      	bx	lr

08102dbe <LL_ADC_INJ_IsConversionOngoing>:
  * @rmtoll CR       JADSTART       LL_ADC_INJ_IsConversionOngoing
  * @param  ADCx ADC instance
  * @retval 0: no conversion is on going on ADC group injected.
  */
__STATIC_INLINE uint32_t LL_ADC_INJ_IsConversionOngoing(ADC_TypeDef *ADCx)
{
 8102dbe:	b480      	push	{r7}
 8102dc0:	b083      	sub	sp, #12
 8102dc2:	af00      	add	r7, sp, #0
 8102dc4:	6078      	str	r0, [r7, #4]
  return ((READ_BIT(ADCx->CR, ADC_CR_JADSTART) == (ADC_CR_JADSTART)) ? 1UL : 0UL);
 8102dc6:	687b      	ldr	r3, [r7, #4]
 8102dc8:	689b      	ldr	r3, [r3, #8]
 8102dca:	f003 0308 	and.w	r3, r3, #8
 8102dce:	2b08      	cmp	r3, #8
 8102dd0:	d101      	bne.n	8102dd6 <LL_ADC_INJ_IsConversionOngoing+0x18>
 8102dd2:	2301      	movs	r3, #1
 8102dd4:	e000      	b.n	8102dd8 <LL_ADC_INJ_IsConversionOngoing+0x1a>
 8102dd6:	2300      	movs	r3, #0
}
 8102dd8:	4618      	mov	r0, r3
 8102dda:	370c      	adds	r7, #12
 8102ddc:	46bd      	mov	sp, r7
 8102dde:	f85d 7b04 	ldr.w	r7, [sp], #4
 8102de2:	4770      	bx	lr

08102de4 <HAL_ADC_Init>:
  *         without  disabling the other ADCs.
  * @param hadc ADC handle
  * @retval HAL status
  */
HAL_StatusTypeDef HAL_ADC_Init(ADC_HandleTypeDef *hadc)
{
 8102de4:	b590      	push	{r4, r7, lr}
 8102de6:	b089      	sub	sp, #36	; 0x24
 8102de8:	af00      	add	r7, sp, #0
 8102dea:	6078      	str	r0, [r7, #4]
  HAL_StatusTypeDef tmp_hal_status = HAL_OK;
 8102dec:	2300      	movs	r3, #0
 8102dee:	77fb      	strb	r3, [r7, #31]
  uint32_t tmpCFGR;
  uint32_t tmp_adc_reg_is_conversion_on_going;
  __IO uint32_t wait_loop_index = 0UL;
 8102df0:	2300      	movs	r3, #0
 8102df2:	60bb      	str	r3, [r7, #8]
  uint32_t tmp_adc_is_conversion_on_going_regular;
  uint32_t tmp_adc_is_conversion_on_going_injected;

  /* Check ADC handle */
  if (hadc == NULL)
 8102df4:	687b      	ldr	r3, [r7, #4]
 8102df6:	2b00      	cmp	r3, #0
 8102df8:	d101      	bne.n	8102dfe <HAL_ADC_Init+0x1a>
  {
    return HAL_ERROR;
 8102dfa:	2301      	movs	r3, #1
 8102dfc:	e18f      	b.n	810311e <HAL_ADC_Init+0x33a>
  assert_param(IS_ADC_EOC_SELECTION(hadc->Init.EOCSelection));
  assert_param(IS_ADC_OVERRUN(hadc->Init.Overrun));
  assert_param(IS_FUNCTIONAL_STATE(hadc->Init.LowPowerAutoWait));
  assert_param(IS_FUNCTIONAL_STATE(hadc->Init.OversamplingMode));

  if (hadc->Init.ScanConvMode != ADC_SCAN_DISABLE)
 8102dfe:	687b      	ldr	r3, [r7, #4]
 8102e00:	68db      	ldr	r3, [r3, #12]
 8102e02:	2b00      	cmp	r3, #0
  /* DISCEN and CONT bits cannot be set at the same time */
  assert_param(!((hadc->Init.DiscontinuousConvMode == ENABLE) && (hadc->Init.ContinuousConvMode == ENABLE)));

  /* Actions performed only if ADC is coming from state reset:                */
  /* - Initialization of ADC MSP                                              */
  if (hadc->State == HAL_ADC_STATE_RESET)
 8102e04:	687b      	ldr	r3, [r7, #4]
 8102e06:	6d5b      	ldr	r3, [r3, #84]	; 0x54
 8102e08:	2b00      	cmp	r3, #0
 8102e0a:	d109      	bne.n	8102e20 <HAL_ADC_Init+0x3c>

    /* Init the low level hardware */
    hadc->MspInitCallback(hadc);
#else
    /* Init the low level hardware */
    HAL_ADC_MspInit(hadc);
 8102e0c:	6878      	ldr	r0, [r7, #4]
 8102e0e:	f7fe fd59 	bl	81018c4 <HAL_ADC_MspInit>
#endif /* USE_HAL_ADC_REGISTER_CALLBACKS */

    /* Set ADC error code to none */
    ADC_CLEAR_ERRORCODE(hadc);
 8102e12:	687b      	ldr	r3, [r7, #4]
 8102e14:	2200      	movs	r2, #0
 8102e16:	659a      	str	r2, [r3, #88]	; 0x58

    /* Initialize Lock */
    hadc->Lock = HAL_UNLOCKED;
 8102e18:	687b      	ldr	r3, [r7, #4]
 8102e1a:	2200      	movs	r2, #0
 8102e1c:	f883 2050 	strb.w	r2, [r3, #80]	; 0x50
  }

  /* - Exit from deep-power-down mode and ADC voltage regulator enable        */
  if (LL_ADC_IsDeepPowerDownEnabled(hadc->Instance) != 0UL)
 8102e20:	687b      	ldr	r3, [r7, #4]
 8102e22:	681b      	ldr	r3, [r3, #0]
 8102e24:	4618      	mov	r0, r3
 8102e26:	f7ff fef1 	bl	8102c0c <LL_ADC_IsDeepPowerDownEnabled>
 8102e2a:	4603      	mov	r3, r0
 8102e2c:	2b00      	cmp	r3, #0
 8102e2e:	d004      	beq.n	8102e3a <HAL_ADC_Init+0x56>
  {
    /* Disable ADC deep power down mode */
    LL_ADC_DisableDeepPowerDown(hadc->Instance);
 8102e30:	687b      	ldr	r3, [r7, #4]
 8102e32:	681b      	ldr	r3, [r3, #0]
 8102e34:	4618      	mov	r0, r3
 8102e36:	f7ff fed7 	bl	8102be8 <LL_ADC_DisableDeepPowerDown>
    /* System was in deep power down mode, calibration must
     be relaunched or a previously saved calibration factor
     re-applied once the ADC voltage regulator is enabled */
  }

  if (LL_ADC_IsInternalRegulatorEnabled(hadc->Instance) == 0UL)
 8102e3a:	687b      	ldr	r3, [r7, #4]
 8102e3c:	681b      	ldr	r3, [r3, #0]
 8102e3e:	4618      	mov	r0, r3
 8102e40:	f7ff ff0c 	bl	8102c5c <LL_ADC_IsInternalRegulatorEnabled>
 8102e44:	4603      	mov	r3, r0
 8102e46:	2b00      	cmp	r3, #0
 8102e48:	d114      	bne.n	8102e74 <HAL_ADC_Init+0x90>
  {
    /* Enable ADC internal voltage regulator */
    LL_ADC_EnableInternalRegulator(hadc->Instance);
 8102e4a:	687b      	ldr	r3, [r7, #4]
 8102e4c:	681b      	ldr	r3, [r3, #0]
 8102e4e:	4618      	mov	r0, r3
 8102e50:	f7ff fef0 	bl	8102c34 <LL_ADC_EnableInternalRegulator>

    /* Note: Variable divided by 2 to compensate partially              */
    /*       CPU processing cycles, scaling in us split to not          */
    /*       exceed 32 bits register capacity and handle low frequency. */
    wait_loop_index = ((LL_ADC_DELAY_INTERNAL_REGUL_STAB_US / 10UL) * ((SystemCoreClock / (100000UL * 2UL)) + 1UL));
 8102e54:	4b88      	ldr	r3, [pc, #544]	; (8103078 <HAL_ADC_Init+0x294>)
 8102e56:	681b      	ldr	r3, [r3, #0]
 8102e58:	099b      	lsrs	r3, r3, #6
 8102e5a:	4a88      	ldr	r2, [pc, #544]	; (810307c <HAL_ADC_Init+0x298>)
 8102e5c:	fba2 2303 	umull	r2, r3, r2, r3
 8102e60:	099b      	lsrs	r3, r3, #6
 8102e62:	3301      	adds	r3, #1
 8102e64:	60bb      	str	r3, [r7, #8]
    while (wait_loop_index != 0UL)
 8102e66:	e002      	b.n	8102e6e <HAL_ADC_Init+0x8a>
    {
      wait_loop_index--;
 8102e68:	68bb      	ldr	r3, [r7, #8]
 8102e6a:	3b01      	subs	r3, #1
 8102e6c:	60bb      	str	r3, [r7, #8]
    while (wait_loop_index != 0UL)
 8102e6e:	68bb      	ldr	r3, [r7, #8]
 8102e70:	2b00      	cmp	r3, #0
 8102e72:	d1f9      	bne.n	8102e68 <HAL_ADC_Init+0x84>
  }

  /* Verification that ADC voltage regulator is correctly enabled, whether    */
  /* or not ADC is coming from state reset (if any potential problem of       */
  /* clocking, voltage regulator would not be enabled).                       */
  if (LL_ADC_IsInternalRegulatorEnabled(hadc->Instance) == 0UL)
 8102e74:	687b      	ldr	r3, [r7, #4]
 8102e76:	681b      	ldr	r3, [r3, #0]
 8102e78:	4618      	mov	r0, r3
 8102e7a:	f7ff feef 	bl	8102c5c <LL_ADC_IsInternalRegulatorEnabled>
 8102e7e:	4603      	mov	r3, r0
 8102e80:	2b00      	cmp	r3, #0
 8102e82:	d10d      	bne.n	8102ea0 <HAL_ADC_Init+0xbc>
  {
    /* Update ADC state machine to error */
    SET_BIT(hadc->State, HAL_ADC_STATE_ERROR_INTERNAL);
 8102e84:	687b      	ldr	r3, [r7, #4]
 8102e86:	6d5b      	ldr	r3, [r3, #84]	; 0x54
 8102e88:	f043 0210 	orr.w	r2, r3, #16
 8102e8c:	687b      	ldr	r3, [r7, #4]
 8102e8e:	655a      	str	r2, [r3, #84]	; 0x54

    /* Set ADC error code to ADC peripheral internal error */
    SET_BIT(hadc->ErrorCode, HAL_ADC_ERROR_INTERNAL);
 8102e90:	687b      	ldr	r3, [r7, #4]
 8102e92:	6d9b      	ldr	r3, [r3, #88]	; 0x58
 8102e94:	f043 0201 	orr.w	r2, r3, #1
 8102e98:	687b      	ldr	r3, [r7, #4]
 8102e9a:	659a      	str	r2, [r3, #88]	; 0x58

    tmp_hal_status = HAL_ERROR;
 8102e9c:	2301      	movs	r3, #1
 8102e9e:	77fb      	strb	r3, [r7, #31]

  /* Configuration of ADC parameters if previous preliminary actions are      */
  /* correctly completed and if there is no conversion on going on regular    */
  /* group (ADC may already be enabled at this point if HAL_ADC_Init() is     */
  /* called to update a parameter on the fly).                                */
  tmp_adc_reg_is_conversion_on_going = LL_ADC_REG_IsConversionOngoing(hadc->Instance);
 8102ea0:	687b      	ldr	r3, [r7, #4]
 8102ea2:	681b      	ldr	r3, [r3, #0]
 8102ea4:	4618      	mov	r0, r3
 8102ea6:	f7ff ff63 	bl	8102d70 <LL_ADC_REG_IsConversionOngoing>
 8102eaa:	6178      	str	r0, [r7, #20]

  if (((hadc->State & HAL_ADC_STATE_ERROR_INTERNAL) == 0UL)
 8102eac:	687b      	ldr	r3, [r7, #4]
 8102eae:	6d5b      	ldr	r3, [r3, #84]	; 0x54
 8102eb0:	f003 0310 	and.w	r3, r3, #16
 8102eb4:	2b00      	cmp	r3, #0
 8102eb6:	f040 8129 	bne.w	810310c <HAL_ADC_Init+0x328>
      && (tmp_adc_reg_is_conversion_on_going == 0UL)
 8102eba:	697b      	ldr	r3, [r7, #20]
 8102ebc:	2b00      	cmp	r3, #0
 8102ebe:	f040 8125 	bne.w	810310c <HAL_ADC_Init+0x328>
     )
  {
    /* Set ADC state */
    ADC_STATE_CLR_SET(hadc->State,
 8102ec2:	687b      	ldr	r3, [r7, #4]
 8102ec4:	6d5b      	ldr	r3, [r3, #84]	; 0x54
 8102ec6:	f423 7381 	bic.w	r3, r3, #258	; 0x102
 8102eca:	f043 0202 	orr.w	r2, r3, #2
 8102ece:	687b      	ldr	r3, [r7, #4]
 8102ed0:	655a      	str	r2, [r3, #84]	; 0x54
    /* Configuration of common ADC parameters                                 */

    /* Parameters update conditioned to ADC state:                            */
    /* Parameters that can be updated only when ADC is disabled:              */
    /*  - clock configuration                                                 */
    if (LL_ADC_IsEnabled(hadc->Instance) == 0UL)
 8102ed2:	687b      	ldr	r3, [r7, #4]
 8102ed4:	681b      	ldr	r3, [r3, #0]
 8102ed6:	4618      	mov	r0, r3
 8102ed8:	f7ff fefc 	bl	8102cd4 <LL_ADC_IsEnabled>
 8102edc:	4603      	mov	r3, r0
 8102ede:	2b00      	cmp	r3, #0
 8102ee0:	d136      	bne.n	8102f50 <HAL_ADC_Init+0x16c>
    {
      if (__LL_ADC_IS_ENABLED_ALL_COMMON_INSTANCE(__LL_ADC_COMMON_INSTANCE(hadc->Instance)) == 0UL)
 8102ee2:	687b      	ldr	r3, [r7, #4]
 8102ee4:	681b      	ldr	r3, [r3, #0]
 8102ee6:	4a66      	ldr	r2, [pc, #408]	; (8103080 <HAL_ADC_Init+0x29c>)
 8102ee8:	4293      	cmp	r3, r2
 8102eea:	d004      	beq.n	8102ef6 <HAL_ADC_Init+0x112>
 8102eec:	687b      	ldr	r3, [r7, #4]
 8102eee:	681b      	ldr	r3, [r3, #0]
 8102ef0:	4a64      	ldr	r2, [pc, #400]	; (8103084 <HAL_ADC_Init+0x2a0>)
 8102ef2:	4293      	cmp	r3, r2
 8102ef4:	d10e      	bne.n	8102f14 <HAL_ADC_Init+0x130>
 8102ef6:	4862      	ldr	r0, [pc, #392]	; (8103080 <HAL_ADC_Init+0x29c>)
 8102ef8:	f7ff feec 	bl	8102cd4 <LL_ADC_IsEnabled>
 8102efc:	4604      	mov	r4, r0
 8102efe:	4861      	ldr	r0, [pc, #388]	; (8103084 <HAL_ADC_Init+0x2a0>)
 8102f00:	f7ff fee8 	bl	8102cd4 <LL_ADC_IsEnabled>
 8102f04:	4603      	mov	r3, r0
 8102f06:	4323      	orrs	r3, r4
 8102f08:	2b00      	cmp	r3, #0
 8102f0a:	bf0c      	ite	eq
 8102f0c:	2301      	moveq	r3, #1
 8102f0e:	2300      	movne	r3, #0
 8102f10:	b2db      	uxtb	r3, r3
 8102f12:	e008      	b.n	8102f26 <HAL_ADC_Init+0x142>
 8102f14:	485c      	ldr	r0, [pc, #368]	; (8103088 <HAL_ADC_Init+0x2a4>)
 8102f16:	f7ff fedd 	bl	8102cd4 <LL_ADC_IsEnabled>
 8102f1a:	4603      	mov	r3, r0
 8102f1c:	2b00      	cmp	r3, #0
 8102f1e:	bf0c      	ite	eq
 8102f20:	2301      	moveq	r3, #1
 8102f22:	2300      	movne	r3, #0
 8102f24:	b2db      	uxtb	r3, r3
 8102f26:	2b00      	cmp	r3, #0
 8102f28:	d012      	beq.n	8102f50 <HAL_ADC_Init+0x16c>
        /*     parameters: MDMA, DMACFG, DELAY, DUAL (set by API                */
        /*     HAL_ADCEx_MultiModeConfigChannel() )                             */
        /*   - internal measurement paths: Vbat, temperature sensor, Vref       */
        /*     (set into HAL_ADC_ConfigChannel() or                             */
        /*     HAL_ADCEx_InjectedConfigChannel() )                              */
        LL_ADC_SetCommonClock(__LL_ADC_COMMON_INSTANCE(hadc->Instance), hadc->Init.ClockPrescaler);
 8102f2a:	687b      	ldr	r3, [r7, #4]
 8102f2c:	681b      	ldr	r3, [r3, #0]
 8102f2e:	4a54      	ldr	r2, [pc, #336]	; (8103080 <HAL_ADC_Init+0x29c>)
 8102f30:	4293      	cmp	r3, r2
 8102f32:	d004      	beq.n	8102f3e <HAL_ADC_Init+0x15a>
 8102f34:	687b      	ldr	r3, [r7, #4]
 8102f36:	681b      	ldr	r3, [r3, #0]
 8102f38:	4a52      	ldr	r2, [pc, #328]	; (8103084 <HAL_ADC_Init+0x2a0>)
 8102f3a:	4293      	cmp	r3, r2
 8102f3c:	d101      	bne.n	8102f42 <HAL_ADC_Init+0x15e>
 8102f3e:	4a53      	ldr	r2, [pc, #332]	; (810308c <HAL_ADC_Init+0x2a8>)
 8102f40:	e000      	b.n	8102f44 <HAL_ADC_Init+0x160>
 8102f42:	4a53      	ldr	r2, [pc, #332]	; (8103090 <HAL_ADC_Init+0x2ac>)
 8102f44:	687b      	ldr	r3, [r7, #4]
 8102f46:	685b      	ldr	r3, [r3, #4]
 8102f48:	4619      	mov	r1, r3
 8102f4a:	4610      	mov	r0, r2
 8102f4c:	f7ff fd1a 	bl	8102984 <LL_ADC_SetCommonClock>
                  ADC_CFGR_REG_DISCONTINUOUS((uint32_t)hadc->Init.DiscontinuousConvMode));
    }

#else

    if ((HAL_GetREVID() > REV_ID_Y) && (ADC_RESOLUTION_8B == hadc->Init.Resolution))
 8102f50:	f7ff fd0c 	bl	810296c <HAL_GetREVID>
 8102f54:	4603      	mov	r3, r0
 8102f56:	f241 0203 	movw	r2, #4099	; 0x1003
 8102f5a:	4293      	cmp	r3, r2
 8102f5c:	d914      	bls.n	8102f88 <HAL_ADC_Init+0x1a4>
 8102f5e:	687b      	ldr	r3, [r7, #4]
 8102f60:	689b      	ldr	r3, [r3, #8]
 8102f62:	2b10      	cmp	r3, #16
 8102f64:	d110      	bne.n	8102f88 <HAL_ADC_Init+0x1a4>
    {
      /* for STM32H7 silicon rev.B and above , ADC_CFGR_RES value for 8bits resolution is : b111 */
      tmpCFGR  = (ADC_CFGR_CONTINUOUS((uint32_t)hadc->Init.ContinuousConvMode)          |
 8102f66:	687b      	ldr	r3, [r7, #4]
 8102f68:	7d5b      	ldrb	r3, [r3, #21]
 8102f6a:	035a      	lsls	r2, r3, #13
                  hadc->Init.Overrun                                                    |
 8102f6c:	687b      	ldr	r3, [r7, #4]
 8102f6e:	6b1b      	ldr	r3, [r3, #48]	; 0x30
      tmpCFGR  = (ADC_CFGR_CONTINUOUS((uint32_t)hadc->Init.ContinuousConvMode)          |
 8102f70:	431a      	orrs	r2, r3
                  hadc->Init.Resolution | (ADC_CFGR_RES_1 | ADC_CFGR_RES_0)                |
 8102f72:	687b      	ldr	r3, [r7, #4]
 8102f74:	689b      	ldr	r3, [r3, #8]
                  hadc->Init.Overrun                                                    |
 8102f76:	431a      	orrs	r2, r3
                  ADC_CFGR_REG_DISCONTINUOUS((uint32_t)hadc->Init.DiscontinuousConvMode));
 8102f78:	687b      	ldr	r3, [r7, #4]
 8102f7a:	7f1b      	ldrb	r3, [r3, #28]
 8102f7c:	041b      	lsls	r3, r3, #16
                  hadc->Init.Resolution | (ADC_CFGR_RES_1 | ADC_CFGR_RES_0)                |
 8102f7e:	4313      	orrs	r3, r2
      tmpCFGR  = (ADC_CFGR_CONTINUOUS((uint32_t)hadc->Init.ContinuousConvMode)          |
 8102f80:	f043 030c 	orr.w	r3, r3, #12
 8102f84:	61bb      	str	r3, [r7, #24]
 8102f86:	e00d      	b.n	8102fa4 <HAL_ADC_Init+0x1c0>
    }
    else
    {

      tmpCFGR  = (ADC_CFGR_CONTINUOUS((uint32_t)hadc->Init.ContinuousConvMode)          |
 8102f88:	687b      	ldr	r3, [r7, #4]
 8102f8a:	7d5b      	ldrb	r3, [r3, #21]
 8102f8c:	035a      	lsls	r2, r3, #13
                  hadc->Init.Overrun                                                    |
 8102f8e:	687b      	ldr	r3, [r7, #4]
 8102f90:	6b1b      	ldr	r3, [r3, #48]	; 0x30
      tmpCFGR  = (ADC_CFGR_CONTINUOUS((uint32_t)hadc->Init.ContinuousConvMode)          |
 8102f92:	431a      	orrs	r2, r3
                  hadc->Init.Resolution                                                 |
 8102f94:	687b      	ldr	r3, [r7, #4]
 8102f96:	689b      	ldr	r3, [r3, #8]
                  hadc->Init.Overrun                                                    |
 8102f98:	431a      	orrs	r2, r3
                  ADC_CFGR_REG_DISCONTINUOUS((uint32_t)hadc->Init.DiscontinuousConvMode));
 8102f9a:	687b      	ldr	r3, [r7, #4]
 8102f9c:	7f1b      	ldrb	r3, [r3, #28]
 8102f9e:	041b      	lsls	r3, r3, #16
      tmpCFGR  = (ADC_CFGR_CONTINUOUS((uint32_t)hadc->Init.ContinuousConvMode)          |
 8102fa0:	4313      	orrs	r3, r2
 8102fa2:	61bb      	str	r3, [r7, #24]
    }

#endif /* ADC_VER_V5_3 */

    if (hadc->Init.DiscontinuousConvMode == ENABLE)
 8102fa4:	687b      	ldr	r3, [r7, #4]
 8102fa6:	7f1b      	ldrb	r3, [r3, #28]
 8102fa8:	2b01      	cmp	r3, #1
 8102faa:	d106      	bne.n	8102fba <HAL_ADC_Init+0x1d6>
    {
      tmpCFGR |= ADC_CFGR_DISCONTINUOUS_NUM(hadc->Init.NbrOfDiscConversion);
 8102fac:	687b      	ldr	r3, [r7, #4]
 8102fae:	6a1b      	ldr	r3, [r3, #32]
 8102fb0:	3b01      	subs	r3, #1
 8102fb2:	045b      	lsls	r3, r3, #17
 8102fb4:	69ba      	ldr	r2, [r7, #24]
 8102fb6:	4313      	orrs	r3, r2
 8102fb8:	61bb      	str	r3, [r7, #24]
    /* Enable external trigger if trigger selection is different of software  */
    /* start.                                                                 */
    /* Note: This configuration keeps the hardware feature of parameter       */
    /*       ExternalTrigConvEdge "trigger edge none" equivalent to           */
    /*       software start.                                                  */
    if (hadc->Init.ExternalTrigConv != ADC_SOFTWARE_START)
 8102fba:	687b      	ldr	r3, [r7, #4]
 8102fbc:	6a5b      	ldr	r3, [r3, #36]	; 0x24
 8102fbe:	2b00      	cmp	r3, #0
 8102fc0:	d009      	beq.n	8102fd6 <HAL_ADC_Init+0x1f2>
    {
      tmpCFGR |= ((hadc->Init.ExternalTrigConv & ADC_CFGR_EXTSEL)
 8102fc2:	687b      	ldr	r3, [r7, #4]
 8102fc4:	6a5b      	ldr	r3, [r3, #36]	; 0x24
 8102fc6:	f403 7278 	and.w	r2, r3, #992	; 0x3e0
                  | hadc->Init.ExternalTrigConvEdge
 8102fca:	687b      	ldr	r3, [r7, #4]
 8102fcc:	6a9b      	ldr	r3, [r3, #40]	; 0x28
 8102fce:	4313      	orrs	r3, r2
      tmpCFGR |= ((hadc->Init.ExternalTrigConv & ADC_CFGR_EXTSEL)
 8102fd0:	69ba      	ldr	r2, [r7, #24]
 8102fd2:	4313      	orrs	r3, r2
 8102fd4:	61bb      	str	r3, [r7, #24]
      /* Update Configuration Register CFGR */
      MODIFY_REG(hadc->Instance->CFGR, ADC_CFGR_FIELDS_1, tmpCFGR);
    }
#else
    /* Update Configuration Register CFGR */
    MODIFY_REG(hadc->Instance->CFGR, ADC_CFGR_FIELDS_1, tmpCFGR);
 8102fd6:	687b      	ldr	r3, [r7, #4]
 8102fd8:	681b      	ldr	r3, [r3, #0]
 8102fda:	68da      	ldr	r2, [r3, #12]
 8102fdc:	4b2d      	ldr	r3, [pc, #180]	; (8103094 <HAL_ADC_Init+0x2b0>)
 8102fde:	4013      	ands	r3, r2
 8102fe0:	687a      	ldr	r2, [r7, #4]
 8102fe2:	6812      	ldr	r2, [r2, #0]
 8102fe4:	69b9      	ldr	r1, [r7, #24]
 8102fe6:	430b      	orrs	r3, r1
 8102fe8:	60d3      	str	r3, [r2, #12]
    /* Parameters that can be updated when ADC is disabled or enabled without */
    /* conversion on going on regular and injected groups:                    */
    /*  - Conversion data management      Init.ConversionDataManagement       */
    /*  - LowPowerAutoWait feature        Init.LowPowerAutoWait               */
    /*  - Oversampling parameters         Init.Oversampling                   */
    tmp_adc_is_conversion_on_going_regular = LL_ADC_REG_IsConversionOngoing(hadc->Instance);
 8102fea:	687b      	ldr	r3, [r7, #4]
 8102fec:	681b      	ldr	r3, [r3, #0]
 8102fee:	4618      	mov	r0, r3
 8102ff0:	f7ff febe 	bl	8102d70 <LL_ADC_REG_IsConversionOngoing>
 8102ff4:	6138      	str	r0, [r7, #16]
    tmp_adc_is_conversion_on_going_injected = LL_ADC_INJ_IsConversionOngoing(hadc->Instance);
 8102ff6:	687b      	ldr	r3, [r7, #4]
 8102ff8:	681b      	ldr	r3, [r3, #0]
 8102ffa:	4618      	mov	r0, r3
 8102ffc:	f7ff fedf 	bl	8102dbe <LL_ADC_INJ_IsConversionOngoing>
 8103000:	60f8      	str	r0, [r7, #12]
    if ((tmp_adc_is_conversion_on_going_regular == 0UL)
 8103002:	693b      	ldr	r3, [r7, #16]
 8103004:	2b00      	cmp	r3, #0
 8103006:	d15f      	bne.n	81030c8 <HAL_ADC_Init+0x2e4>
        && (tmp_adc_is_conversion_on_going_injected == 0UL)
 8103008:	68fb      	ldr	r3, [r7, #12]
 810300a:	2b00      	cmp	r3, #0
 810300c:	d15c      	bne.n	81030c8 <HAL_ADC_Init+0x2e4>
                    ADC_CFGR_AUTOWAIT((uint32_t)hadc->Init.LowPowerAutoWait)        |
                    ADC_CFGR_DMACONTREQ((uint32_t)hadc->Init.ConversionDataManagement));
      }
#else
      tmpCFGR = (
                  ADC_CFGR_AUTOWAIT((uint32_t)hadc->Init.LowPowerAutoWait)        |
 810300e:	687b      	ldr	r3, [r7, #4]
 8103010:	7d1b      	ldrb	r3, [r3, #20]
 8103012:	039a      	lsls	r2, r3, #14
                  ADC_CFGR_DMACONTREQ((uint32_t)hadc->Init.ConversionDataManagement));
 8103014:	687b      	ldr	r3, [r7, #4]
 8103016:	6adb      	ldr	r3, [r3, #44]	; 0x2c
      tmpCFGR = (
 8103018:	4313      	orrs	r3, r2
 810301a:	61bb      	str	r3, [r7, #24]
#endif

      MODIFY_REG(hadc->Instance->CFGR, ADC_CFGR_FIELDS_2, tmpCFGR);
 810301c:	687b      	ldr	r3, [r7, #4]
 810301e:	681b      	ldr	r3, [r3, #0]
 8103020:	68db      	ldr	r3, [r3, #12]
 8103022:	f423 4380 	bic.w	r3, r3, #16384	; 0x4000
 8103026:	f023 0303 	bic.w	r3, r3, #3
 810302a:	687a      	ldr	r2, [r7, #4]
 810302c:	6812      	ldr	r2, [r2, #0]
 810302e:	69b9      	ldr	r1, [r7, #24]
 8103030:	430b      	orrs	r3, r1
 8103032:	60d3      	str	r3, [r2, #12]

      if (hadc->Init.OversamplingMode == ENABLE)
 8103034:	687b      	ldr	r3, [r7, #4]
 8103036:	f893 3038 	ldrb.w	r3, [r3, #56]	; 0x38
 810303a:	2b01      	cmp	r3, #1
 810303c:	d12e      	bne.n	810309c <HAL_ADC_Init+0x2b8>
#endif
        assert_param(IS_ADC_RIGHT_BIT_SHIFT(hadc->Init.Oversampling.RightBitShift));
        assert_param(IS_ADC_TRIGGERED_OVERSAMPLING_MODE(hadc->Init.Oversampling.TriggeredMode));
        assert_param(IS_ADC_REGOVERSAMPLING_MODE(hadc->Init.Oversampling.OversamplingStopReset));

        if ((hadc->Init.ExternalTrigConv == ADC_SOFTWARE_START)
 810303e:	687b      	ldr	r3, [r7, #4]
 8103040:	6a5b      	ldr	r3, [r3, #36]	; 0x24
 8103042:	2b00      	cmp	r3, #0
        /*  - Oversampling Ratio                                               */
        /*  - Right bit shift                                                  */
        /*  - Left bit shift                                                   */
        /*  - Triggered mode                                                   */
        /*  - Oversampling mode (continued/resumed)                            */
        MODIFY_REG(hadc->Instance->CFGR2, ADC_CFGR2_FIELDS,
 8103044:	687b      	ldr	r3, [r7, #4]
 8103046:	681b      	ldr	r3, [r3, #0]
 8103048:	691a      	ldr	r2, [r3, #16]
 810304a:	4b13      	ldr	r3, [pc, #76]	; (8103098 <HAL_ADC_Init+0x2b4>)
 810304c:	4013      	ands	r3, r2
 810304e:	687a      	ldr	r2, [r7, #4]
 8103050:	6bd2      	ldr	r2, [r2, #60]	; 0x3c
 8103052:	3a01      	subs	r2, #1
 8103054:	0411      	lsls	r1, r2, #16
 8103056:	687a      	ldr	r2, [r7, #4]
 8103058:	6c12      	ldr	r2, [r2, #64]	; 0x40
 810305a:	4311      	orrs	r1, r2
 810305c:	687a      	ldr	r2, [r7, #4]
 810305e:	6c52      	ldr	r2, [r2, #68]	; 0x44
 8103060:	4311      	orrs	r1, r2
 8103062:	687a      	ldr	r2, [r7, #4]
 8103064:	6c92      	ldr	r2, [r2, #72]	; 0x48
 8103066:	430a      	orrs	r2, r1
 8103068:	431a      	orrs	r2, r3
 810306a:	687b      	ldr	r3, [r7, #4]
 810306c:	681b      	ldr	r3, [r3, #0]
 810306e:	f042 0201 	orr.w	r2, r2, #1
 8103072:	611a      	str	r2, [r3, #16]
 8103074:	e01a      	b.n	81030ac <HAL_ADC_Init+0x2c8>
 8103076:	bf00      	nop
 8103078:	10000000 	.word	0x10000000
 810307c:	053e2d63 	.word	0x053e2d63
 8103080:	40022000 	.word	0x40022000
 8103084:	40022100 	.word	0x40022100
 8103088:	58026000 	.word	0x58026000
 810308c:	40022300 	.word	0x40022300
 8103090:	58026300 	.word	0x58026300
 8103094:	fff0c003 	.word	0xfff0c003
 8103098:	fc00f81e 	.word	0xfc00f81e

      }
      else
      {
        /* Disable ADC oversampling scope on ADC group regular */
        CLEAR_BIT(hadc->Instance->CFGR2, ADC_CFGR2_ROVSE);
 810309c:	687b      	ldr	r3, [r7, #4]
 810309e:	681b      	ldr	r3, [r3, #0]
 81030a0:	691a      	ldr	r2, [r3, #16]
 81030a2:	687b      	ldr	r3, [r7, #4]
 81030a4:	681b      	ldr	r3, [r3, #0]
 81030a6:	f022 0201 	bic.w	r2, r2, #1
 81030aa:	611a      	str	r2, [r3, #16]
      }

      /* Set the LeftShift parameter: it is applied to the final result with or without oversampling */
      MODIFY_REG(hadc->Instance->CFGR2, ADC_CFGR2_LSHIFT, hadc->Init.LeftBitShift);
 81030ac:	687b      	ldr	r3, [r7, #4]
 81030ae:	681b      	ldr	r3, [r3, #0]
 81030b0:	691b      	ldr	r3, [r3, #16]
 81030b2:	f023 4170 	bic.w	r1, r3, #4026531840	; 0xf0000000
 81030b6:	687b      	ldr	r3, [r7, #4]
 81030b8:	6b5a      	ldr	r2, [r3, #52]	; 0x34
 81030ba:	687b      	ldr	r3, [r7, #4]
 81030bc:	681b      	ldr	r3, [r3, #0]
 81030be:	430a      	orrs	r2, r1
 81030c0:	611a      	str	r2, [r3, #16]
        /* Configure the BOOST Mode */
        ADC_ConfigureBoostMode(hadc);
      }
#else
      /* Configure the BOOST Mode */
      ADC_ConfigureBoostMode(hadc);
 81030c2:	6878      	ldr	r0, [r7, #4]
 81030c4:	f000 ff26 	bl	8103f14 <ADC_ConfigureBoostMode>
    /*   Note: Scan mode is not present by hardware on this device, but       */
    /*   emulated by software for alignment over all STM32 devices.           */
    /* - if scan mode is enabled, regular channels sequence length is set to  */
    /*   parameter "NbrOfConversion".                                         */

    if (hadc->Init.ScanConvMode == ADC_SCAN_ENABLE)
 81030c8:	687b      	ldr	r3, [r7, #4]
 81030ca:	68db      	ldr	r3, [r3, #12]
 81030cc:	2b01      	cmp	r3, #1
 81030ce:	d10c      	bne.n	81030ea <HAL_ADC_Init+0x306>
    {
      /* Set number of ranks in regular group sequencer */
      MODIFY_REG(hadc->Instance->SQR1, ADC_SQR1_L, (hadc->Init.NbrOfConversion - (uint8_t)1));
 81030d0:	687b      	ldr	r3, [r7, #4]
 81030d2:	681b      	ldr	r3, [r3, #0]
 81030d4:	6b1b      	ldr	r3, [r3, #48]	; 0x30
 81030d6:	f023 010f 	bic.w	r1, r3, #15
 81030da:	687b      	ldr	r3, [r7, #4]
 81030dc:	699b      	ldr	r3, [r3, #24]
 81030de:	1e5a      	subs	r2, r3, #1
 81030e0:	687b      	ldr	r3, [r7, #4]
 81030e2:	681b      	ldr	r3, [r3, #0]
 81030e4:	430a      	orrs	r2, r1
 81030e6:	631a      	str	r2, [r3, #48]	; 0x30
 81030e8:	e007      	b.n	81030fa <HAL_ADC_Init+0x316>
    }
    else
    {
      CLEAR_BIT(hadc->Instance->SQR1, ADC_SQR1_L);
 81030ea:	687b      	ldr	r3, [r7, #4]
 81030ec:	681b      	ldr	r3, [r3, #0]
 81030ee:	6b1a      	ldr	r2, [r3, #48]	; 0x30
 81030f0:	687b      	ldr	r3, [r7, #4]
 81030f2:	681b      	ldr	r3, [r3, #0]
 81030f4:	f022 020f 	bic.w	r2, r2, #15
 81030f8:	631a      	str	r2, [r3, #48]	; 0x30
    }

    /* Initialize the ADC state */
    /* Clear HAL_ADC_STATE_BUSY_INTERNAL bit, set HAL_ADC_STATE_READY bit */
    ADC_STATE_CLR_SET(hadc->State, HAL_ADC_STATE_BUSY_INTERNAL, HAL_ADC_STATE_READY);
 81030fa:	687b      	ldr	r3, [r7, #4]
 81030fc:	6d5b      	ldr	r3, [r3, #84]	; 0x54
 81030fe:	f023 0303 	bic.w	r3, r3, #3
 8103102:	f043 0201 	orr.w	r2, r3, #1
 8103106:	687b      	ldr	r3, [r7, #4]
 8103108:	655a      	str	r2, [r3, #84]	; 0x54
 810310a:	e007      	b.n	810311c <HAL_ADC_Init+0x338>
  }
  else
  {
    /* Update ADC state machine to error */
    SET_BIT(hadc->State, HAL_ADC_STATE_ERROR_INTERNAL);
 810310c:	687b      	ldr	r3, [r7, #4]
 810310e:	6d5b      	ldr	r3, [r3, #84]	; 0x54
 8103110:	f043 0210 	orr.w	r2, r3, #16
 8103114:	687b      	ldr	r3, [r7, #4]
 8103116:	655a      	str	r2, [r3, #84]	; 0x54

    tmp_hal_status = HAL_ERROR;
 8103118:	2301      	movs	r3, #1
 810311a:	77fb      	strb	r3, [r7, #31]
  }

  /* Return function status */
  return tmp_hal_status;
 810311c:	7ffb      	ldrb	r3, [r7, #31]
}
 810311e:	4618      	mov	r0, r3
 8103120:	3724      	adds	r7, #36	; 0x24
 8103122:	46bd      	mov	sp, r7
 8103124:	bd90      	pop	{r4, r7, pc}
 8103126:	bf00      	nop

08103128 <HAL_ADC_Start>:
  *           if ADC is master, ADC is enabled and multimode conversion is started.
  * @param hadc ADC handle
  * @retval HAL status
  */
HAL_StatusTypeDef HAL_ADC_Start(ADC_HandleTypeDef *hadc)
{
 8103128:	b580      	push	{r7, lr}
 810312a:	b086      	sub	sp, #24
 810312c:	af00      	add	r7, sp, #0
 810312e:	6078      	str	r0, [r7, #4]
  HAL_StatusTypeDef tmp_hal_status;
  const ADC_TypeDef *tmpADC_Master;
  uint32_t tmp_multimode_config = LL_ADC_GetMultimode(__LL_ADC_COMMON_INSTANCE(hadc->Instance));
 8103130:	687b      	ldr	r3, [r7, #4]
 8103132:	681b      	ldr	r3, [r3, #0]
 8103134:	4a5d      	ldr	r2, [pc, #372]	; (81032ac <HAL_ADC_Start+0x184>)
 8103136:	4293      	cmp	r3, r2
 8103138:	d004      	beq.n	8103144 <HAL_ADC_Start+0x1c>
 810313a:	687b      	ldr	r3, [r7, #4]
 810313c:	681b      	ldr	r3, [r3, #0]
 810313e:	4a5c      	ldr	r2, [pc, #368]	; (81032b0 <HAL_ADC_Start+0x188>)
 8103140:	4293      	cmp	r3, r2
 8103142:	d101      	bne.n	8103148 <HAL_ADC_Start+0x20>
 8103144:	4b5b      	ldr	r3, [pc, #364]	; (81032b4 <HAL_ADC_Start+0x18c>)
 8103146:	e000      	b.n	810314a <HAL_ADC_Start+0x22>
 8103148:	4b5b      	ldr	r3, [pc, #364]	; (81032b8 <HAL_ADC_Start+0x190>)
 810314a:	4618      	mov	r0, r3
 810314c:	f7ff fd30 	bl	8102bb0 <LL_ADC_GetMultimode>
 8103150:	6138      	str	r0, [r7, #16]

  /* Check the parameters */
  assert_param(IS_ADC_ALL_INSTANCE(hadc->Instance));

  /* Perform ADC enable and conversion start if no conversion is on going */
  if (LL_ADC_REG_IsConversionOngoing(hadc->Instance) == 0UL)
 8103152:	687b      	ldr	r3, [r7, #4]
 8103154:	681b      	ldr	r3, [r3, #0]
 8103156:	4618      	mov	r0, r3
 8103158:	f7ff fe0a 	bl	8102d70 <LL_ADC_REG_IsConversionOngoing>
 810315c:	4603      	mov	r3, r0
 810315e:	2b00      	cmp	r3, #0
 8103160:	f040 809c 	bne.w	810329c <HAL_ADC_Start+0x174>
  {
    /* Process locked */
    __HAL_LOCK(hadc);
 8103164:	687b      	ldr	r3, [r7, #4]
 8103166:	f893 3050 	ldrb.w	r3, [r3, #80]	; 0x50
 810316a:	2b01      	cmp	r3, #1
 810316c:	d101      	bne.n	8103172 <HAL_ADC_Start+0x4a>
 810316e:	2302      	movs	r3, #2
 8103170:	e097      	b.n	81032a2 <HAL_ADC_Start+0x17a>
 8103172:	687b      	ldr	r3, [r7, #4]
 8103174:	2201      	movs	r2, #1
 8103176:	f883 2050 	strb.w	r2, [r3, #80]	; 0x50

    /* Enable the ADC peripheral */
    tmp_hal_status = ADC_Enable(hadc);
 810317a:	6878      	ldr	r0, [r7, #4]
 810317c:	f000 fde0 	bl	8103d40 <ADC_Enable>
 8103180:	4603      	mov	r3, r0
 8103182:	75fb      	strb	r3, [r7, #23]

    /* Start conversion if ADC is effectively enabled */
    if (tmp_hal_status == HAL_OK)
 8103184:	7dfb      	ldrb	r3, [r7, #23]
 8103186:	2b00      	cmp	r3, #0
 8103188:	f040 8083 	bne.w	8103292 <HAL_ADC_Start+0x16a>
    {
      /* Set ADC state                                                        */
      /* - Clear state bitfield related to regular group conversion results   */
      /* - Set state bitfield related to regular operation                    */
      ADC_STATE_CLR_SET(hadc->State,
 810318c:	687b      	ldr	r3, [r7, #4]
 810318e:	6d5b      	ldr	r3, [r3, #84]	; 0x54
 8103190:	f423 6370 	bic.w	r3, r3, #3840	; 0xf00
 8103194:	f023 0301 	bic.w	r3, r3, #1
 8103198:	f443 7280 	orr.w	r2, r3, #256	; 0x100
 810319c:	687b      	ldr	r3, [r7, #4]
 810319e:	655a      	str	r2, [r3, #84]	; 0x54
                        HAL_ADC_STATE_REG_BUSY);

      /* Reset HAL_ADC_STATE_MULTIMODE_SLAVE bit
        - if ADC instance is master or if multimode feature is not available
        - if multimode setting is disabled (ADC instance slave in independent mode) */
      if ((__LL_ADC_MULTI_INSTANCE_MASTER(hadc->Instance) == hadc->Instance)
 81031a0:	687b      	ldr	r3, [r7, #4]
 81031a2:	681b      	ldr	r3, [r3, #0]
 81031a4:	4a42      	ldr	r2, [pc, #264]	; (81032b0 <HAL_ADC_Start+0x188>)
 81031a6:	4293      	cmp	r3, r2
 81031a8:	d002      	beq.n	81031b0 <HAL_ADC_Start+0x88>
 81031aa:	687b      	ldr	r3, [r7, #4]
 81031ac:	681b      	ldr	r3, [r3, #0]
 81031ae:	e000      	b.n	81031b2 <HAL_ADC_Start+0x8a>
 81031b0:	4b3e      	ldr	r3, [pc, #248]	; (81032ac <HAL_ADC_Start+0x184>)
 81031b2:	687a      	ldr	r2, [r7, #4]
 81031b4:	6812      	ldr	r2, [r2, #0]
 81031b6:	4293      	cmp	r3, r2
 81031b8:	d002      	beq.n	81031c0 <HAL_ADC_Start+0x98>
          || (tmp_multimode_config == LL_ADC_MULTI_INDEPENDENT)
 81031ba:	693b      	ldr	r3, [r7, #16]
 81031bc:	2b00      	cmp	r3, #0
 81031be:	d105      	bne.n	81031cc <HAL_ADC_Start+0xa4>
         )
      {
        CLEAR_BIT(hadc->State, HAL_ADC_STATE_MULTIMODE_SLAVE);
 81031c0:	687b      	ldr	r3, [r7, #4]
 81031c2:	6d5b      	ldr	r3, [r3, #84]	; 0x54
 81031c4:	f423 1280 	bic.w	r2, r3, #1048576	; 0x100000
 81031c8:	687b      	ldr	r3, [r7, #4]
 81031ca:	655a      	str	r2, [r3, #84]	; 0x54
      }

      /* Set ADC error code */
      /* Check if a conversion is on going on ADC group injected */
      if (HAL_IS_BIT_SET(hadc->State, HAL_ADC_STATE_INJ_BUSY))
 81031cc:	687b      	ldr	r3, [r7, #4]
 81031ce:	6d5b      	ldr	r3, [r3, #84]	; 0x54
 81031d0:	f403 5380 	and.w	r3, r3, #4096	; 0x1000
 81031d4:	f5b3 5f80 	cmp.w	r3, #4096	; 0x1000
 81031d8:	d106      	bne.n	81031e8 <HAL_ADC_Start+0xc0>
      {
        /* Reset ADC error code fields related to regular conversions only */
        CLEAR_BIT(hadc->ErrorCode, (HAL_ADC_ERROR_OVR | HAL_ADC_ERROR_DMA));
 81031da:	687b      	ldr	r3, [r7, #4]
 81031dc:	6d9b      	ldr	r3, [r3, #88]	; 0x58
 81031de:	f023 0206 	bic.w	r2, r3, #6
 81031e2:	687b      	ldr	r3, [r7, #4]
 81031e4:	659a      	str	r2, [r3, #88]	; 0x58
 81031e6:	e002      	b.n	81031ee <HAL_ADC_Start+0xc6>
      }
      else
      {
        /* Reset all ADC error code fields */
        ADC_CLEAR_ERRORCODE(hadc);
 81031e8:	687b      	ldr	r3, [r7, #4]
 81031ea:	2200      	movs	r2, #0
 81031ec:	659a      	str	r2, [r3, #88]	; 0x58
      }

      /* Clear ADC group regular conversion flag and overrun flag               */
      /* (To ensure of no unknown state from potential previous ADC operations) */
      __HAL_ADC_CLEAR_FLAG(hadc, (ADC_FLAG_EOC | ADC_FLAG_EOS | ADC_FLAG_OVR));
 81031ee:	687b      	ldr	r3, [r7, #4]
 81031f0:	681b      	ldr	r3, [r3, #0]
 81031f2:	221c      	movs	r2, #28
 81031f4:	601a      	str	r2, [r3, #0]

      /* Process unlocked */
      /* Unlock before starting ADC conversions: in case of potential         */
      /* interruption, to let the process to ADC IRQ Handler.                 */
      __HAL_UNLOCK(hadc);
 81031f6:	687b      	ldr	r3, [r7, #4]
 81031f8:	2200      	movs	r2, #0
 81031fa:	f883 2050 	strb.w	r2, [r3, #80]	; 0x50
      /* trigger event.                                                       */
      /* Case of multimode enabled (when multimode feature is available):     */
      /*  - if ADC is slave and dual regular conversions are enabled, ADC is  */
      /*    enabled only (conversion is not started),                         */
      /*  - if ADC is master, ADC is enabled and conversion is started.       */
      if ((__LL_ADC_MULTI_INSTANCE_MASTER(hadc->Instance) == hadc->Instance)
 81031fe:	687b      	ldr	r3, [r7, #4]
 8103200:	681b      	ldr	r3, [r3, #0]
 8103202:	4a2b      	ldr	r2, [pc, #172]	; (81032b0 <HAL_ADC_Start+0x188>)
 8103204:	4293      	cmp	r3, r2
 8103206:	d002      	beq.n	810320e <HAL_ADC_Start+0xe6>
 8103208:	687b      	ldr	r3, [r7, #4]
 810320a:	681b      	ldr	r3, [r3, #0]
 810320c:	e000      	b.n	8103210 <HAL_ADC_Start+0xe8>
 810320e:	4b27      	ldr	r3, [pc, #156]	; (81032ac <HAL_ADC_Start+0x184>)
 8103210:	687a      	ldr	r2, [r7, #4]
 8103212:	6812      	ldr	r2, [r2, #0]
 8103214:	4293      	cmp	r3, r2
 8103216:	d008      	beq.n	810322a <HAL_ADC_Start+0x102>
          || (tmp_multimode_config == LL_ADC_MULTI_INDEPENDENT)
 8103218:	693b      	ldr	r3, [r7, #16]
 810321a:	2b00      	cmp	r3, #0
 810321c:	d005      	beq.n	810322a <HAL_ADC_Start+0x102>
          || (tmp_multimode_config == LL_ADC_MULTI_DUAL_INJ_SIMULT)
 810321e:	693b      	ldr	r3, [r7, #16]
 8103220:	2b05      	cmp	r3, #5
 8103222:	d002      	beq.n	810322a <HAL_ADC_Start+0x102>
          || (tmp_multimode_config == LL_ADC_MULTI_DUAL_INJ_ALTERN)
 8103224:	693b      	ldr	r3, [r7, #16]
 8103226:	2b09      	cmp	r3, #9
 8103228:	d114      	bne.n	8103254 <HAL_ADC_Start+0x12c>
         )
      {
        /* ADC instance is not a multimode slave instance with multimode regular conversions enabled */
        if (READ_BIT(hadc->Instance->CFGR, ADC_CFGR_JAUTO) != 0UL)
 810322a:	687b      	ldr	r3, [r7, #4]
 810322c:	681b      	ldr	r3, [r3, #0]
 810322e:	68db      	ldr	r3, [r3, #12]
 8103230:	f003 7300 	and.w	r3, r3, #33554432	; 0x2000000
 8103234:	2b00      	cmp	r3, #0
 8103236:	d007      	beq.n	8103248 <HAL_ADC_Start+0x120>
        {
          ADC_STATE_CLR_SET(hadc->State, HAL_ADC_STATE_INJ_EOC, HAL_ADC_STATE_INJ_BUSY);
 8103238:	687b      	ldr	r3, [r7, #4]
 810323a:	6d5b      	ldr	r3, [r3, #84]	; 0x54
 810323c:	f423 5340 	bic.w	r3, r3, #12288	; 0x3000
 8103240:	f443 5280 	orr.w	r2, r3, #4096	; 0x1000
 8103244:	687b      	ldr	r3, [r7, #4]
 8103246:	655a      	str	r2, [r3, #84]	; 0x54
        }

        /* Start ADC group regular conversion */
        LL_ADC_REG_StartConversion(hadc->Instance);
 8103248:	687b      	ldr	r3, [r7, #4]
 810324a:	681b      	ldr	r3, [r3, #0]
 810324c:	4618      	mov	r0, r3
 810324e:	f7ff fd67 	bl	8102d20 <LL_ADC_REG_StartConversion>
 8103252:	e025      	b.n	81032a0 <HAL_ADC_Start+0x178>
      }
      else
      {
        /* ADC instance is a multimode slave instance with multimode regular conversions enabled */
        SET_BIT(hadc->State, HAL_ADC_STATE_MULTIMODE_SLAVE);
 8103254:	687b      	ldr	r3, [r7, #4]
 8103256:	6d5b      	ldr	r3, [r3, #84]	; 0x54
 8103258:	f443 1280 	orr.w	r2, r3, #1048576	; 0x100000
 810325c:	687b      	ldr	r3, [r7, #4]
 810325e:	655a      	str	r2, [r3, #84]	; 0x54
        /* if Master ADC JAUTO bit is set, update Slave State in setting
           HAL_ADC_STATE_INJ_BUSY bit and in resetting HAL_ADC_STATE_INJ_EOC bit */
        tmpADC_Master = __LL_ADC_MULTI_INSTANCE_MASTER(hadc->Instance);
 8103260:	687b      	ldr	r3, [r7, #4]
 8103262:	681b      	ldr	r3, [r3, #0]
 8103264:	4a12      	ldr	r2, [pc, #72]	; (81032b0 <HAL_ADC_Start+0x188>)
 8103266:	4293      	cmp	r3, r2
 8103268:	d002      	beq.n	8103270 <HAL_ADC_Start+0x148>
 810326a:	687b      	ldr	r3, [r7, #4]
 810326c:	681b      	ldr	r3, [r3, #0]
 810326e:	e000      	b.n	8103272 <HAL_ADC_Start+0x14a>
 8103270:	4b0e      	ldr	r3, [pc, #56]	; (81032ac <HAL_ADC_Start+0x184>)
 8103272:	60fb      	str	r3, [r7, #12]
        if (READ_BIT(tmpADC_Master->CFGR, ADC_CFGR_JAUTO) != 0UL)
 8103274:	68fb      	ldr	r3, [r7, #12]
 8103276:	68db      	ldr	r3, [r3, #12]
 8103278:	f003 7300 	and.w	r3, r3, #33554432	; 0x2000000
 810327c:	2b00      	cmp	r3, #0
 810327e:	d00f      	beq.n	81032a0 <HAL_ADC_Start+0x178>
        {
          ADC_STATE_CLR_SET(hadc->State, HAL_ADC_STATE_INJ_EOC, HAL_ADC_STATE_INJ_BUSY);
 8103280:	687b      	ldr	r3, [r7, #4]
 8103282:	6d5b      	ldr	r3, [r3, #84]	; 0x54
 8103284:	f423 5340 	bic.w	r3, r3, #12288	; 0x3000
 8103288:	f443 5280 	orr.w	r2, r3, #4096	; 0x1000
 810328c:	687b      	ldr	r3, [r7, #4]
 810328e:	655a      	str	r2, [r3, #84]	; 0x54
 8103290:	e006      	b.n	81032a0 <HAL_ADC_Start+0x178>
      }
    }
    else
    {
      /* Process unlocked */
      __HAL_UNLOCK(hadc);
 8103292:	687b      	ldr	r3, [r7, #4]
 8103294:	2200      	movs	r2, #0
 8103296:	f883 2050 	strb.w	r2, [r3, #80]	; 0x50
 810329a:	e001      	b.n	81032a0 <HAL_ADC_Start+0x178>
    }
  }
  else
  {
    tmp_hal_status = HAL_BUSY;
 810329c:	2302      	movs	r3, #2
 810329e:	75fb      	strb	r3, [r7, #23]
  }

  /* Return function status */
  return tmp_hal_status;
 81032a0:	7dfb      	ldrb	r3, [r7, #23]
}
 81032a2:	4618      	mov	r0, r3
 81032a4:	3718      	adds	r7, #24
 81032a6:	46bd      	mov	sp, r7
 81032a8:	bd80      	pop	{r7, pc}
 81032aa:	bf00      	nop
 81032ac:	40022000 	.word	0x40022000
 81032b0:	40022100 	.word	0x40022100
 81032b4:	40022300 	.word	0x40022300
 81032b8:	58026300 	.word	0x58026300

081032bc <HAL_ADC_Stop>:
  *         should be preliminarily stopped using HAL_ADCEx_InjectedStop function.
  * @param hadc ADC handle
  * @retval HAL status.
  */
HAL_StatusTypeDef HAL_ADC_Stop(ADC_HandleTypeDef *hadc)
{
 81032bc:	b580      	push	{r7, lr}
 81032be:	b084      	sub	sp, #16
 81032c0:	af00      	add	r7, sp, #0
 81032c2:	6078      	str	r0, [r7, #4]

  /* Check the parameters */
  assert_param(IS_ADC_ALL_INSTANCE(hadc->Instance));

  /* Process locked */
  __HAL_LOCK(hadc);
 81032c4:	687b      	ldr	r3, [r7, #4]
 81032c6:	f893 3050 	ldrb.w	r3, [r3, #80]	; 0x50
 81032ca:	2b01      	cmp	r3, #1
 81032cc:	d101      	bne.n	81032d2 <HAL_ADC_Stop+0x16>
 81032ce:	2302      	movs	r3, #2
 81032d0:	e023      	b.n	810331a <HAL_ADC_Stop+0x5e>
 81032d2:	687b      	ldr	r3, [r7, #4]
 81032d4:	2201      	movs	r2, #1
 81032d6:	f883 2050 	strb.w	r2, [r3, #80]	; 0x50

  /* 1. Stop potential conversion on going, on ADC groups regular and injected */
  tmp_hal_status = ADC_ConversionStop(hadc, ADC_REGULAR_INJECTED_GROUP);
 81032da:	2103      	movs	r1, #3
 81032dc:	6878      	ldr	r0, [r7, #4]
 81032de:	f000 fc73 	bl	8103bc8 <ADC_ConversionStop>
 81032e2:	4603      	mov	r3, r0
 81032e4:	73fb      	strb	r3, [r7, #15]

  /* Disable ADC peripheral if conversions are effectively stopped */
  if (tmp_hal_status == HAL_OK)
 81032e6:	7bfb      	ldrb	r3, [r7, #15]
 81032e8:	2b00      	cmp	r3, #0
 81032ea:	d111      	bne.n	8103310 <HAL_ADC_Stop+0x54>
  {
    /* 2. Disable the ADC peripheral */
    tmp_hal_status = ADC_Disable(hadc);
 81032ec:	6878      	ldr	r0, [r7, #4]
 81032ee:	f000 fdb1 	bl	8103e54 <ADC_Disable>
 81032f2:	4603      	mov	r3, r0
 81032f4:	73fb      	strb	r3, [r7, #15]

    /* Check if ADC is effectively disabled */
    if (tmp_hal_status == HAL_OK)
 81032f6:	7bfb      	ldrb	r3, [r7, #15]
 81032f8:	2b00      	cmp	r3, #0
 81032fa:	d109      	bne.n	8103310 <HAL_ADC_Stop+0x54>
    {
      /* Set ADC state */
      ADC_STATE_CLR_SET(hadc->State,
 81032fc:	687b      	ldr	r3, [r7, #4]
 81032fe:	6d5b      	ldr	r3, [r3, #84]	; 0x54
 8103300:	f423 5388 	bic.w	r3, r3, #4352	; 0x1100
 8103304:	f023 0301 	bic.w	r3, r3, #1
 8103308:	f043 0201 	orr.w	r2, r3, #1
 810330c:	687b      	ldr	r3, [r7, #4]
 810330e:	655a      	str	r2, [r3, #84]	; 0x54
                        HAL_ADC_STATE_READY);
    }
  }

  /* Process unlocked */
  __HAL_UNLOCK(hadc);
 8103310:	687b      	ldr	r3, [r7, #4]
 8103312:	2200      	movs	r2, #0
 8103314:	f883 2050 	strb.w	r2, [r3, #80]	; 0x50

  /* Return function status */
  return tmp_hal_status;
 8103318:	7bfb      	ldrb	r3, [r7, #15]
}
 810331a:	4618      	mov	r0, r3
 810331c:	3710      	adds	r7, #16
 810331e:	46bd      	mov	sp, r7
 8103320:	bd80      	pop	{r7, pc}
	...

08103324 <HAL_ADC_PollForConversion>:
  * @param hadc ADC handle
  * @param Timeout Timeout value in millisecond.
  * @retval HAL status
  */
HAL_StatusTypeDef HAL_ADC_PollForConversion(ADC_HandleTypeDef *hadc, uint32_t Timeout)
{
 8103324:	b580      	push	{r7, lr}
 8103326:	b088      	sub	sp, #32
 8103328:	af00      	add	r7, sp, #0
 810332a:	6078      	str	r0, [r7, #4]
 810332c:	6039      	str	r1, [r7, #0]
  uint32_t tickstart;
  uint32_t tmp_Flag_End;
  uint32_t tmp_cfgr;
  const ADC_TypeDef *tmpADC_Master;
  uint32_t tmp_multimode_config = LL_ADC_GetMultimode(__LL_ADC_COMMON_INSTANCE(hadc->Instance));
 810332e:	687b      	ldr	r3, [r7, #4]
 8103330:	681b      	ldr	r3, [r3, #0]
 8103332:	4a72      	ldr	r2, [pc, #456]	; (81034fc <HAL_ADC_PollForConversion+0x1d8>)
 8103334:	4293      	cmp	r3, r2
 8103336:	d004      	beq.n	8103342 <HAL_ADC_PollForConversion+0x1e>
 8103338:	687b      	ldr	r3, [r7, #4]
 810333a:	681b      	ldr	r3, [r3, #0]
 810333c:	4a70      	ldr	r2, [pc, #448]	; (8103500 <HAL_ADC_PollForConversion+0x1dc>)
 810333e:	4293      	cmp	r3, r2
 8103340:	d101      	bne.n	8103346 <HAL_ADC_PollForConversion+0x22>
 8103342:	4b70      	ldr	r3, [pc, #448]	; (8103504 <HAL_ADC_PollForConversion+0x1e0>)
 8103344:	e000      	b.n	8103348 <HAL_ADC_PollForConversion+0x24>
 8103346:	4b70      	ldr	r3, [pc, #448]	; (8103508 <HAL_ADC_PollForConversion+0x1e4>)
 8103348:	4618      	mov	r0, r3
 810334a:	f7ff fc31 	bl	8102bb0 <LL_ADC_GetMultimode>
 810334e:	6178      	str	r0, [r7, #20]

  /* Check the parameters */
  assert_param(IS_ADC_ALL_INSTANCE(hadc->Instance));

  /* If end of conversion selected to end of sequence conversions */
  if (hadc->Init.EOCSelection == ADC_EOC_SEQ_CONV)
 8103350:	687b      	ldr	r3, [r7, #4]
 8103352:	691b      	ldr	r3, [r3, #16]
 8103354:	2b08      	cmp	r3, #8
 8103356:	d102      	bne.n	810335e <HAL_ADC_PollForConversion+0x3a>
  {
    tmp_Flag_End = ADC_FLAG_EOS;
 8103358:	2308      	movs	r3, #8
 810335a:	61fb      	str	r3, [r7, #28]
 810335c:	e037      	b.n	81033ce <HAL_ADC_PollForConversion+0xaa>
    /* each conversion:                                                       */
    /* Particular case is ADC configured in DMA mode and ADC sequencer with   */
    /* several ranks and polling for end of each conversion.                  */
    /* For code simplicity sake, this particular case is generalized to       */
    /* ADC configured in DMA mode and and polling for end of each conversion. */
    if ((tmp_multimode_config == LL_ADC_MULTI_INDEPENDENT)
 810335e:	697b      	ldr	r3, [r7, #20]
 8103360:	2b00      	cmp	r3, #0
 8103362:	d005      	beq.n	8103370 <HAL_ADC_PollForConversion+0x4c>
        || (tmp_multimode_config == LL_ADC_MULTI_DUAL_INJ_SIMULT)
 8103364:	697b      	ldr	r3, [r7, #20]
 8103366:	2b05      	cmp	r3, #5
 8103368:	d002      	beq.n	8103370 <HAL_ADC_PollForConversion+0x4c>
        || (tmp_multimode_config == LL_ADC_MULTI_DUAL_INJ_ALTERN)
 810336a:	697b      	ldr	r3, [r7, #20]
 810336c:	2b09      	cmp	r3, #9
 810336e:	d111      	bne.n	8103394 <HAL_ADC_PollForConversion+0x70>
       )
    {
      /* Check DMNGT bit in handle ADC CFGR register */
      if (READ_BIT(hadc->Instance->CFGR, ADC_CFGR_DMNGT_0) != 0UL)
 8103370:	687b      	ldr	r3, [r7, #4]
 8103372:	681b      	ldr	r3, [r3, #0]
 8103374:	68db      	ldr	r3, [r3, #12]
 8103376:	f003 0301 	and.w	r3, r3, #1
 810337a:	2b00      	cmp	r3, #0
 810337c:	d007      	beq.n	810338e <HAL_ADC_PollForConversion+0x6a>
      {
        SET_BIT(hadc->State, HAL_ADC_STATE_ERROR_CONFIG);
 810337e:	687b      	ldr	r3, [r7, #4]
 8103380:	6d5b      	ldr	r3, [r3, #84]	; 0x54
 8103382:	f043 0220 	orr.w	r2, r3, #32
 8103386:	687b      	ldr	r3, [r7, #4]
 8103388:	655a      	str	r2, [r3, #84]	; 0x54
        return HAL_ERROR;
 810338a:	2301      	movs	r3, #1
 810338c:	e0b1      	b.n	81034f2 <HAL_ADC_PollForConversion+0x1ce>
      }
      else
      {
        tmp_Flag_End = (ADC_FLAG_EOC);
 810338e:	2304      	movs	r3, #4
 8103390:	61fb      	str	r3, [r7, #28]
      if (READ_BIT(hadc->Instance->CFGR, ADC_CFGR_DMNGT_0) != 0UL)
 8103392:	e01c      	b.n	81033ce <HAL_ADC_PollForConversion+0xaa>
      }
    }
    else
    {
      /* Check ADC DMA mode in multimode on ADC group regular */
      if (LL_ADC_GetMultiDMATransfer(__LL_ADC_COMMON_INSTANCE(hadc->Instance)) != LL_ADC_MULTI_REG_DMA_EACH_ADC)
 8103394:	687b      	ldr	r3, [r7, #4]
 8103396:	681b      	ldr	r3, [r3, #0]
 8103398:	4a58      	ldr	r2, [pc, #352]	; (81034fc <HAL_ADC_PollForConversion+0x1d8>)
 810339a:	4293      	cmp	r3, r2
 810339c:	d004      	beq.n	81033a8 <HAL_ADC_PollForConversion+0x84>
 810339e:	687b      	ldr	r3, [r7, #4]
 81033a0:	681b      	ldr	r3, [r3, #0]
 81033a2:	4a57      	ldr	r2, [pc, #348]	; (8103500 <HAL_ADC_PollForConversion+0x1dc>)
 81033a4:	4293      	cmp	r3, r2
 81033a6:	d101      	bne.n	81033ac <HAL_ADC_PollForConversion+0x88>
 81033a8:	4b56      	ldr	r3, [pc, #344]	; (8103504 <HAL_ADC_PollForConversion+0x1e0>)
 81033aa:	e000      	b.n	81033ae <HAL_ADC_PollForConversion+0x8a>
 81033ac:	4b56      	ldr	r3, [pc, #344]	; (8103508 <HAL_ADC_PollForConversion+0x1e4>)
 81033ae:	4618      	mov	r0, r3
 81033b0:	f7ff fc0c 	bl	8102bcc <LL_ADC_GetMultiDMATransfer>
 81033b4:	4603      	mov	r3, r0
 81033b6:	2b00      	cmp	r3, #0
 81033b8:	d007      	beq.n	81033ca <HAL_ADC_PollForConversion+0xa6>
      {
        SET_BIT(hadc->State, HAL_ADC_STATE_ERROR_CONFIG);
 81033ba:	687b      	ldr	r3, [r7, #4]
 81033bc:	6d5b      	ldr	r3, [r3, #84]	; 0x54
 81033be:	f043 0220 	orr.w	r2, r3, #32
 81033c2:	687b      	ldr	r3, [r7, #4]
 81033c4:	655a      	str	r2, [r3, #84]	; 0x54
        return HAL_ERROR;
 81033c6:	2301      	movs	r3, #1
 81033c8:	e093      	b.n	81034f2 <HAL_ADC_PollForConversion+0x1ce>
      }
      else
      {
        tmp_Flag_End = (ADC_FLAG_EOC);
 81033ca:	2304      	movs	r3, #4
 81033cc:	61fb      	str	r3, [r7, #28]
      }
    }
  }

  /* Get tick count */
  tickstart = HAL_GetTick();
 81033ce:	f7ff fa9d 	bl	810290c <HAL_GetTick>
 81033d2:	6138      	str	r0, [r7, #16]

  /* Wait until End of unitary conversion or sequence conversions flag is raised */
  while ((hadc->Instance->ISR & tmp_Flag_End) == 0UL)
 81033d4:	e021      	b.n	810341a <HAL_ADC_PollForConversion+0xf6>
  {
    /* Check if timeout is disabled (set to infinite wait) */
    if (Timeout != HAL_MAX_DELAY)
 81033d6:	683b      	ldr	r3, [r7, #0]
 81033d8:	f1b3 3fff 	cmp.w	r3, #4294967295
 81033dc:	d01d      	beq.n	810341a <HAL_ADC_PollForConversion+0xf6>
    {
      if (((HAL_GetTick() - tickstart) > Timeout) || (Timeout == 0UL))
 81033de:	f7ff fa95 	bl	810290c <HAL_GetTick>
 81033e2:	4602      	mov	r2, r0
 81033e4:	693b      	ldr	r3, [r7, #16]
 81033e6:	1ad3      	subs	r3, r2, r3
 81033e8:	683a      	ldr	r2, [r7, #0]
 81033ea:	429a      	cmp	r2, r3
 81033ec:	d302      	bcc.n	81033f4 <HAL_ADC_PollForConversion+0xd0>
 81033ee:	683b      	ldr	r3, [r7, #0]
 81033f0:	2b00      	cmp	r3, #0
 81033f2:	d112      	bne.n	810341a <HAL_ADC_PollForConversion+0xf6>
      {
        /* New check to avoid false timeout detection in case of preemption */
        if((hadc->Instance->ISR & tmp_Flag_End) == 0UL)
 81033f4:	687b      	ldr	r3, [r7, #4]
 81033f6:	681b      	ldr	r3, [r3, #0]
 81033f8:	681a      	ldr	r2, [r3, #0]
 81033fa:	69fb      	ldr	r3, [r7, #28]
 81033fc:	4013      	ands	r3, r2
 81033fe:	2b00      	cmp	r3, #0
 8103400:	d10b      	bne.n	810341a <HAL_ADC_PollForConversion+0xf6>
        {
          /* Update ADC state machine to timeout */
          SET_BIT(hadc->State, HAL_ADC_STATE_TIMEOUT);
 8103402:	687b      	ldr	r3, [r7, #4]
 8103404:	6d5b      	ldr	r3, [r3, #84]	; 0x54
 8103406:	f043 0204 	orr.w	r2, r3, #4
 810340a:	687b      	ldr	r3, [r7, #4]
 810340c:	655a      	str	r2, [r3, #84]	; 0x54

          /* Process unlocked */
          __HAL_UNLOCK(hadc);
 810340e:	687b      	ldr	r3, [r7, #4]
 8103410:	2200      	movs	r2, #0
 8103412:	f883 2050 	strb.w	r2, [r3, #80]	; 0x50

          return HAL_TIMEOUT;
 8103416:	2303      	movs	r3, #3
 8103418:	e06b      	b.n	81034f2 <HAL_ADC_PollForConversion+0x1ce>
  while ((hadc->Instance->ISR & tmp_Flag_End) == 0UL)
 810341a:	687b      	ldr	r3, [r7, #4]
 810341c:	681b      	ldr	r3, [r3, #0]
 810341e:	681a      	ldr	r2, [r3, #0]
 8103420:	69fb      	ldr	r3, [r7, #28]
 8103422:	4013      	ands	r3, r2
 8103424:	2b00      	cmp	r3, #0
 8103426:	d0d6      	beq.n	81033d6 <HAL_ADC_PollForConversion+0xb2>
      }
    }
  }

  /* Update ADC state machine */
  SET_BIT(hadc->State, HAL_ADC_STATE_REG_EOC);
 8103428:	687b      	ldr	r3, [r7, #4]
 810342a:	6d5b      	ldr	r3, [r3, #84]	; 0x54
 810342c:	f443 7200 	orr.w	r2, r3, #512	; 0x200
 8103430:	687b      	ldr	r3, [r7, #4]
 8103432:	655a      	str	r2, [r3, #84]	; 0x54

  /* Determine whether any further conversion upcoming on group regular       */
  /* by external trigger, continuous mode or scan sequence on going.          */
  if ((LL_ADC_REG_IsTriggerSourceSWStart(hadc->Instance) != 0UL)
 8103434:	687b      	ldr	r3, [r7, #4]
 8103436:	681b      	ldr	r3, [r3, #0]
 8103438:	4618      	mov	r0, r3
 810343a:	f7ff fb2b 	bl	8102a94 <LL_ADC_REG_IsTriggerSourceSWStart>
 810343e:	4603      	mov	r3, r0
 8103440:	2b00      	cmp	r3, #0
 8103442:	d01c      	beq.n	810347e <HAL_ADC_PollForConversion+0x15a>
      && (hadc->Init.ContinuousConvMode == DISABLE)
 8103444:	687b      	ldr	r3, [r7, #4]
 8103446:	7d5b      	ldrb	r3, [r3, #21]
 8103448:	2b00      	cmp	r3, #0
 810344a:	d118      	bne.n	810347e <HAL_ADC_PollForConversion+0x15a>
     )
  {
    /* Check whether end of sequence is reached */
    if (__HAL_ADC_GET_FLAG(hadc, ADC_FLAG_EOS))
 810344c:	687b      	ldr	r3, [r7, #4]
 810344e:	681b      	ldr	r3, [r3, #0]
 8103450:	681b      	ldr	r3, [r3, #0]
 8103452:	f003 0308 	and.w	r3, r3, #8
 8103456:	2b08      	cmp	r3, #8
 8103458:	d111      	bne.n	810347e <HAL_ADC_PollForConversion+0x15a>
    {
      /* Set ADC state */
      CLEAR_BIT(hadc->State, HAL_ADC_STATE_REG_BUSY);
 810345a:	687b      	ldr	r3, [r7, #4]
 810345c:	6d5b      	ldr	r3, [r3, #84]	; 0x54
 810345e:	f423 7280 	bic.w	r2, r3, #256	; 0x100
 8103462:	687b      	ldr	r3, [r7, #4]
 8103464:	655a      	str	r2, [r3, #84]	; 0x54

      if ((hadc->State & HAL_ADC_STATE_INJ_BUSY) == 0UL)
 8103466:	687b      	ldr	r3, [r7, #4]
 8103468:	6d5b      	ldr	r3, [r3, #84]	; 0x54
 810346a:	f403 5380 	and.w	r3, r3, #4096	; 0x1000
 810346e:	2b00      	cmp	r3, #0
 8103470:	d105      	bne.n	810347e <HAL_ADC_PollForConversion+0x15a>
      {
        SET_BIT(hadc->State, HAL_ADC_STATE_READY);
 8103472:	687b      	ldr	r3, [r7, #4]
 8103474:	6d5b      	ldr	r3, [r3, #84]	; 0x54
 8103476:	f043 0201 	orr.w	r2, r3, #1
 810347a:	687b      	ldr	r3, [r7, #4]
 810347c:	655a      	str	r2, [r3, #84]	; 0x54
  }

  /* Get relevant register CFGR in ADC instance of ADC master or slave        */
  /* in function of multimode state (for devices with multimode               */
  /* available).                                                              */
  if ((__LL_ADC_MULTI_INSTANCE_MASTER(hadc->Instance) == hadc->Instance)
 810347e:	687b      	ldr	r3, [r7, #4]
 8103480:	681b      	ldr	r3, [r3, #0]
 8103482:	4a1f      	ldr	r2, [pc, #124]	; (8103500 <HAL_ADC_PollForConversion+0x1dc>)
 8103484:	4293      	cmp	r3, r2
 8103486:	d002      	beq.n	810348e <HAL_ADC_PollForConversion+0x16a>
 8103488:	687b      	ldr	r3, [r7, #4]
 810348a:	681b      	ldr	r3, [r3, #0]
 810348c:	e000      	b.n	8103490 <HAL_ADC_PollForConversion+0x16c>
 810348e:	4b1b      	ldr	r3, [pc, #108]	; (81034fc <HAL_ADC_PollForConversion+0x1d8>)
 8103490:	687a      	ldr	r2, [r7, #4]
 8103492:	6812      	ldr	r2, [r2, #0]
 8103494:	4293      	cmp	r3, r2
 8103496:	d008      	beq.n	81034aa <HAL_ADC_PollForConversion+0x186>
      || (tmp_multimode_config == LL_ADC_MULTI_INDEPENDENT)
 8103498:	697b      	ldr	r3, [r7, #20]
 810349a:	2b00      	cmp	r3, #0
 810349c:	d005      	beq.n	81034aa <HAL_ADC_PollForConversion+0x186>
      || (tmp_multimode_config == LL_ADC_MULTI_DUAL_INJ_SIMULT)
 810349e:	697b      	ldr	r3, [r7, #20]
 81034a0:	2b05      	cmp	r3, #5
 81034a2:	d002      	beq.n	81034aa <HAL_ADC_PollForConversion+0x186>
      || (tmp_multimode_config == LL_ADC_MULTI_DUAL_INJ_ALTERN)
 81034a4:	697b      	ldr	r3, [r7, #20]
 81034a6:	2b09      	cmp	r3, #9
 81034a8:	d104      	bne.n	81034b4 <HAL_ADC_PollForConversion+0x190>
     )
  {
    /* Retrieve handle ADC CFGR register */
    tmp_cfgr = READ_REG(hadc->Instance->CFGR);
 81034aa:	687b      	ldr	r3, [r7, #4]
 81034ac:	681b      	ldr	r3, [r3, #0]
 81034ae:	68db      	ldr	r3, [r3, #12]
 81034b0:	61bb      	str	r3, [r7, #24]
 81034b2:	e00c      	b.n	81034ce <HAL_ADC_PollForConversion+0x1aa>
  }
  else
  {
    /* Retrieve Master ADC CFGR register */
    tmpADC_Master = __LL_ADC_MULTI_INSTANCE_MASTER(hadc->Instance);
 81034b4:	687b      	ldr	r3, [r7, #4]
 81034b6:	681b      	ldr	r3, [r3, #0]
 81034b8:	4a11      	ldr	r2, [pc, #68]	; (8103500 <HAL_ADC_PollForConversion+0x1dc>)
 81034ba:	4293      	cmp	r3, r2
 81034bc:	d002      	beq.n	81034c4 <HAL_ADC_PollForConversion+0x1a0>
 81034be:	687b      	ldr	r3, [r7, #4]
 81034c0:	681b      	ldr	r3, [r3, #0]
 81034c2:	e000      	b.n	81034c6 <HAL_ADC_PollForConversion+0x1a2>
 81034c4:	4b0d      	ldr	r3, [pc, #52]	; (81034fc <HAL_ADC_PollForConversion+0x1d8>)
 81034c6:	60fb      	str	r3, [r7, #12]
    tmp_cfgr = READ_REG(tmpADC_Master->CFGR);
 81034c8:	68fb      	ldr	r3, [r7, #12]
 81034ca:	68db      	ldr	r3, [r3, #12]
 81034cc:	61bb      	str	r3, [r7, #24]
  }

  /* Clear polled flag */
  if (tmp_Flag_End == ADC_FLAG_EOS)
 81034ce:	69fb      	ldr	r3, [r7, #28]
 81034d0:	2b08      	cmp	r3, #8
 81034d2:	d104      	bne.n	81034de <HAL_ADC_PollForConversion+0x1ba>
  {
    __HAL_ADC_CLEAR_FLAG(hadc, ADC_FLAG_EOS);
 81034d4:	687b      	ldr	r3, [r7, #4]
 81034d6:	681b      	ldr	r3, [r3, #0]
 81034d8:	2208      	movs	r2, #8
 81034da:	601a      	str	r2, [r3, #0]
 81034dc:	e008      	b.n	81034f0 <HAL_ADC_PollForConversion+0x1cc>
  else
  {
    /* Clear end of conversion EOC flag of regular group if low power feature */
    /* "LowPowerAutoWait " is disabled, to not interfere with this feature    */
    /* until data register is read using function HAL_ADC_GetValue().         */
    if (READ_BIT(tmp_cfgr, ADC_CFGR_AUTDLY) == 0UL)
 81034de:	69bb      	ldr	r3, [r7, #24]
 81034e0:	f403 4380 	and.w	r3, r3, #16384	; 0x4000
 81034e4:	2b00      	cmp	r3, #0
 81034e6:	d103      	bne.n	81034f0 <HAL_ADC_PollForConversion+0x1cc>
    {
      __HAL_ADC_CLEAR_FLAG(hadc, (ADC_FLAG_EOC | ADC_FLAG_EOS));
 81034e8:	687b      	ldr	r3, [r7, #4]
 81034ea:	681b      	ldr	r3, [r3, #0]
 81034ec:	220c      	movs	r2, #12
 81034ee:	601a      	str	r2, [r3, #0]
    }
  }

  /* Return function status */
  return HAL_OK;
 81034f0:	2300      	movs	r3, #0
}
 81034f2:	4618      	mov	r0, r3
 81034f4:	3720      	adds	r7, #32
 81034f6:	46bd      	mov	sp, r7
 81034f8:	bd80      	pop	{r7, pc}
 81034fa:	bf00      	nop
 81034fc:	40022000 	.word	0x40022000
 8103500:	40022100 	.word	0x40022100
 8103504:	40022300 	.word	0x40022300
 8103508:	58026300 	.word	0x58026300

0810350c <HAL_ADC_GetValue>:
  *         or @ref __HAL_ADC_CLEAR_FLAG(&hadc, ADC_FLAG_EOS).
  * @param hadc ADC handle
  * @retval ADC group regular conversion data
  */
uint32_t HAL_ADC_GetValue(ADC_HandleTypeDef *hadc)
{
 810350c:	b480      	push	{r7}
 810350e:	b083      	sub	sp, #12
 8103510:	af00      	add	r7, sp, #0
 8103512:	6078      	str	r0, [r7, #4]

  /* Note: EOC flag is not cleared here by software because automatically     */
  /*       cleared by hardware when reading register DR.                      */

  /* Return ADC converted value */
  return hadc->Instance->DR;
 8103514:	687b      	ldr	r3, [r7, #4]
 8103516:	681b      	ldr	r3, [r3, #0]
 8103518:	6c1b      	ldr	r3, [r3, #64]	; 0x40
}
 810351a:	4618      	mov	r0, r3
 810351c:	370c      	adds	r7, #12
 810351e:	46bd      	mov	sp, r7
 8103520:	f85d 7b04 	ldr.w	r7, [sp], #4
 8103524:	4770      	bx	lr
	...

08103528 <HAL_ADC_ConfigChannel>:
  * @param hadc ADC handle
  * @param sConfig Structure of ADC channel assigned to ADC group regular.
  * @retval HAL status
  */
HAL_StatusTypeDef HAL_ADC_ConfigChannel(ADC_HandleTypeDef *hadc, ADC_ChannelConfTypeDef *sConfig)
{
 8103528:	b590      	push	{r4, r7, lr}
 810352a:	b0a1      	sub	sp, #132	; 0x84
 810352c:	af00      	add	r7, sp, #0
 810352e:	6078      	str	r0, [r7, #4]
 8103530:	6039      	str	r1, [r7, #0]
  HAL_StatusTypeDef tmp_hal_status = HAL_OK;
 8103532:	2300      	movs	r3, #0
 8103534:	f887 307f 	strb.w	r3, [r7, #127]	; 0x7f
  uint32_t tmpOffsetShifted;
  uint32_t tmp_config_internal_channel;
  __IO uint32_t wait_loop_index = 0;
 8103538:	2300      	movs	r3, #0
 810353a:	60bb      	str	r3, [r7, #8]
  /* if ROVSE is set, the value of the OFFSETy_EN bit in ADCx_OFRy register is
     ignored (considered as reset) */
  assert_param(!((sConfig->OffsetNumber != ADC_OFFSET_NONE) && (hadc->Init.OversamplingMode == ENABLE)));

  /* Verification of channel number */
  if (sConfig->SingleDiff != ADC_DIFFERENTIAL_ENDED)
 810353c:	683b      	ldr	r3, [r7, #0]
 810353e:	68db      	ldr	r3, [r3, #12]
 8103540:	4a9d      	ldr	r2, [pc, #628]	; (81037b8 <HAL_ADC_ConfigChannel+0x290>)
 8103542:	4293      	cmp	r3, r2
    }
#endif
  }

  /* Process locked */
  __HAL_LOCK(hadc);
 8103544:	687b      	ldr	r3, [r7, #4]
 8103546:	f893 3050 	ldrb.w	r3, [r3, #80]	; 0x50
 810354a:	2b01      	cmp	r3, #1
 810354c:	d101      	bne.n	8103552 <HAL_ADC_ConfigChannel+0x2a>
 810354e:	2302      	movs	r3, #2
 8103550:	e321      	b.n	8103b96 <HAL_ADC_ConfigChannel+0x66e>
 8103552:	687b      	ldr	r3, [r7, #4]
 8103554:	2201      	movs	r2, #1
 8103556:	f883 2050 	strb.w	r2, [r3, #80]	; 0x50
  /* Parameters update conditioned to ADC state:                              */
  /* Parameters that can be updated when ADC is disabled or enabled without   */
  /* conversion on going on regular group:                                    */
  /*  - Channel number                                                        */
  /*  - Channel rank                                                          */
  if (LL_ADC_REG_IsConversionOngoing(hadc->Instance) == 0UL)
 810355a:	687b      	ldr	r3, [r7, #4]
 810355c:	681b      	ldr	r3, [r3, #0]
 810355e:	4618      	mov	r0, r3
 8103560:	f7ff fc06 	bl	8102d70 <LL_ADC_REG_IsConversionOngoing>
 8103564:	4603      	mov	r3, r0
 8103566:	2b00      	cmp	r3, #0
 8103568:	f040 8306 	bne.w	8103b78 <HAL_ADC_ConfigChannel+0x650>
      /* ADC channels preselection */
      hadc->Instance->PCSEL_RES0 |= (1UL << (__LL_ADC_CHANNEL_TO_DECIMAL_NB((uint32_t)sConfig->Channel) & 0x1FUL));
    }
#else
    /* ADC channels preselection */
    hadc->Instance->PCSEL |= (1UL << (__LL_ADC_CHANNEL_TO_DECIMAL_NB((uint32_t)sConfig->Channel) & 0x1FUL));
 810356c:	683b      	ldr	r3, [r7, #0]
 810356e:	681b      	ldr	r3, [r3, #0]
 8103570:	f3c3 0313 	ubfx	r3, r3, #0, #20
 8103574:	2b00      	cmp	r3, #0
 8103576:	d108      	bne.n	810358a <HAL_ADC_ConfigChannel+0x62>
 8103578:	683b      	ldr	r3, [r7, #0]
 810357a:	681b      	ldr	r3, [r3, #0]
 810357c:	0e9b      	lsrs	r3, r3, #26
 810357e:	f003 031f 	and.w	r3, r3, #31
 8103582:	2201      	movs	r2, #1
 8103584:	fa02 f303 	lsl.w	r3, r2, r3
 8103588:	e016      	b.n	81035b8 <HAL_ADC_ConfigChannel+0x90>
 810358a:	683b      	ldr	r3, [r7, #0]
 810358c:	681b      	ldr	r3, [r3, #0]
 810358e:	667b      	str	r3, [r7, #100]	; 0x64
  uint32_t result;

#if ((defined (__ARM_ARCH_7M__      ) && (__ARM_ARCH_7M__      == 1)) || \
     (defined (__ARM_ARCH_7EM__     ) && (__ARM_ARCH_7EM__     == 1)) || \
     (defined (__ARM_ARCH_8M_MAIN__ ) && (__ARM_ARCH_8M_MAIN__ == 1))    )
   __ASM volatile ("rbit %0, %1" : "=r" (result) : "r" (value) );
 8103590:	6e7b      	ldr	r3, [r7, #100]	; 0x64
 8103592:	fa93 f3a3 	rbit	r3, r3
 8103596:	663b      	str	r3, [r7, #96]	; 0x60
    result |= value & 1U;
    s--;
  }
  result <<= s;                        /* shift when v's highest bits are zero */
#endif
  return result;
 8103598:	6e3b      	ldr	r3, [r7, #96]	; 0x60
 810359a:	66bb      	str	r3, [r7, #104]	; 0x68
     optimisations using the logic "value was passed to __builtin_clz, so it
     is non-zero".
     ARM GCC 7.3 and possibly earlier will optimise this test away, leaving a
     single CLZ instruction.
   */
  if (value == 0U)
 810359c:	6ebb      	ldr	r3, [r7, #104]	; 0x68
 810359e:	2b00      	cmp	r3, #0
 81035a0:	d101      	bne.n	81035a6 <HAL_ADC_ConfigChannel+0x7e>
  {
    return 32U;
 81035a2:	2320      	movs	r3, #32
 81035a4:	e003      	b.n	81035ae <HAL_ADC_ConfigChannel+0x86>
  }
  return __builtin_clz(value);
 81035a6:	6ebb      	ldr	r3, [r7, #104]	; 0x68
 81035a8:	fab3 f383 	clz	r3, r3
 81035ac:	b2db      	uxtb	r3, r3
 81035ae:	f003 031f 	and.w	r3, r3, #31
 81035b2:	2201      	movs	r2, #1
 81035b4:	fa02 f303 	lsl.w	r3, r2, r3
 81035b8:	687a      	ldr	r2, [r7, #4]
 81035ba:	6812      	ldr	r2, [r2, #0]
 81035bc:	69d1      	ldr	r1, [r2, #28]
 81035be:	687a      	ldr	r2, [r7, #4]
 81035c0:	6812      	ldr	r2, [r2, #0]
 81035c2:	430b      	orrs	r3, r1
 81035c4:	61d3      	str	r3, [r2, #28]
#endif /* ADC_VER_V5_V90 */

    /* Set ADC group regular sequence: channel on the selected scan sequence rank */
    LL_ADC_REG_SetSequencerRanks(hadc->Instance, sConfig->Rank, sConfig->Channel);
 81035c6:	687b      	ldr	r3, [r7, #4]
 81035c8:	6818      	ldr	r0, [r3, #0]
 81035ca:	683b      	ldr	r3, [r7, #0]
 81035cc:	6859      	ldr	r1, [r3, #4]
 81035ce:	683b      	ldr	r3, [r7, #0]
 81035d0:	681b      	ldr	r3, [r3, #0]
 81035d2:	461a      	mov	r2, r3
 81035d4:	f7ff fa71 	bl	8102aba <LL_ADC_REG_SetSequencerRanks>
    /* Parameters update conditioned to ADC state:                              */
    /* Parameters that can be updated when ADC is disabled or enabled without   */
    /* conversion on going on regular group:                                    */
    /*  - Channel sampling time                                                 */
    /*  - Channel offset                                                        */
    tmp_adc_is_conversion_on_going_regular = LL_ADC_REG_IsConversionOngoing(hadc->Instance);
 81035d8:	687b      	ldr	r3, [r7, #4]
 81035da:	681b      	ldr	r3, [r3, #0]
 81035dc:	4618      	mov	r0, r3
 81035de:	f7ff fbc7 	bl	8102d70 <LL_ADC_REG_IsConversionOngoing>
 81035e2:	67b8      	str	r0, [r7, #120]	; 0x78
    tmp_adc_is_conversion_on_going_injected = LL_ADC_INJ_IsConversionOngoing(hadc->Instance);
 81035e4:	687b      	ldr	r3, [r7, #4]
 81035e6:	681b      	ldr	r3, [r3, #0]
 81035e8:	4618      	mov	r0, r3
 81035ea:	f7ff fbe8 	bl	8102dbe <LL_ADC_INJ_IsConversionOngoing>
 81035ee:	6778      	str	r0, [r7, #116]	; 0x74
    if ((tmp_adc_is_conversion_on_going_regular == 0UL)
 81035f0:	6fbb      	ldr	r3, [r7, #120]	; 0x78
 81035f2:	2b00      	cmp	r3, #0
 81035f4:	f040 80b3 	bne.w	810375e <HAL_ADC_ConfigChannel+0x236>
        && (tmp_adc_is_conversion_on_going_injected == 0UL)
 81035f8:	6f7b      	ldr	r3, [r7, #116]	; 0x74
 81035fa:	2b00      	cmp	r3, #0
 81035fc:	f040 80af 	bne.w	810375e <HAL_ADC_ConfigChannel+0x236>
       )
    {
      /* Set sampling time of the selected ADC channel */
      LL_ADC_SetChannelSamplingTime(hadc->Instance, sConfig->Channel, sConfig->SamplingTime);
 8103600:	687b      	ldr	r3, [r7, #4]
 8103602:	6818      	ldr	r0, [r3, #0]
 8103604:	683b      	ldr	r3, [r7, #0]
 8103606:	6819      	ldr	r1, [r3, #0]
 8103608:	683b      	ldr	r3, [r7, #0]
 810360a:	689b      	ldr	r3, [r3, #8]
 810360c:	461a      	mov	r2, r3
 810360e:	f7ff fa80 	bl	8102b12 <LL_ADC_SetChannelSamplingTime>
        tmpOffsetShifted = ADC3_OFFSET_SHIFT_RESOLUTION(hadc, (uint32_t)sConfig->Offset);
      }
      else
#endif /* ADC_VER_V5_V90 */
      {
        tmpOffsetShifted = ADC_OFFSET_SHIFT_RESOLUTION(hadc, (uint32_t)sConfig->Offset);
 8103612:	4b6a      	ldr	r3, [pc, #424]	; (81037bc <HAL_ADC_ConfigChannel+0x294>)
 8103614:	681b      	ldr	r3, [r3, #0]
 8103616:	f003 4370 	and.w	r3, r3, #4026531840	; 0xf0000000
 810361a:	f1b3 5f80 	cmp.w	r3, #268435456	; 0x10000000
 810361e:	d10b      	bne.n	8103638 <HAL_ADC_ConfigChannel+0x110>
 8103620:	683b      	ldr	r3, [r7, #0]
 8103622:	695a      	ldr	r2, [r3, #20]
 8103624:	687b      	ldr	r3, [r7, #4]
 8103626:	681b      	ldr	r3, [r3, #0]
 8103628:	68db      	ldr	r3, [r3, #12]
 810362a:	089b      	lsrs	r3, r3, #2
 810362c:	f003 0307 	and.w	r3, r3, #7
 8103630:	005b      	lsls	r3, r3, #1
 8103632:	fa02 f303 	lsl.w	r3, r2, r3
 8103636:	e01d      	b.n	8103674 <HAL_ADC_ConfigChannel+0x14c>
 8103638:	687b      	ldr	r3, [r7, #4]
 810363a:	681b      	ldr	r3, [r3, #0]
 810363c:	68db      	ldr	r3, [r3, #12]
 810363e:	f003 0310 	and.w	r3, r3, #16
 8103642:	2b00      	cmp	r3, #0
 8103644:	d10b      	bne.n	810365e <HAL_ADC_ConfigChannel+0x136>
 8103646:	683b      	ldr	r3, [r7, #0]
 8103648:	695a      	ldr	r2, [r3, #20]
 810364a:	687b      	ldr	r3, [r7, #4]
 810364c:	681b      	ldr	r3, [r3, #0]
 810364e:	68db      	ldr	r3, [r3, #12]
 8103650:	089b      	lsrs	r3, r3, #2
 8103652:	f003 0307 	and.w	r3, r3, #7
 8103656:	005b      	lsls	r3, r3, #1
 8103658:	fa02 f303 	lsl.w	r3, r2, r3
 810365c:	e00a      	b.n	8103674 <HAL_ADC_ConfigChannel+0x14c>
 810365e:	683b      	ldr	r3, [r7, #0]
 8103660:	695a      	ldr	r2, [r3, #20]
 8103662:	687b      	ldr	r3, [r7, #4]
 8103664:	681b      	ldr	r3, [r3, #0]
 8103666:	68db      	ldr	r3, [r3, #12]
 8103668:	089b      	lsrs	r3, r3, #2
 810366a:	f003 0304 	and.w	r3, r3, #4
 810366e:	005b      	lsls	r3, r3, #1
 8103670:	fa02 f303 	lsl.w	r3, r2, r3
 8103674:	673b      	str	r3, [r7, #112]	; 0x70
      }
      
      if (sConfig->OffsetNumber != ADC_OFFSET_NONE)
 8103676:	683b      	ldr	r3, [r7, #0]
 8103678:	691b      	ldr	r3, [r3, #16]
 810367a:	2b04      	cmp	r3, #4
 810367c:	d027      	beq.n	81036ce <HAL_ADC_ConfigChannel+0x1a6>
      {
        /* Set ADC selected offset number */
        LL_ADC_SetOffset(hadc->Instance, sConfig->OffsetNumber, sConfig->Channel, tmpOffsetShifted);
 810367e:	687b      	ldr	r3, [r7, #4]
 8103680:	6818      	ldr	r0, [r3, #0]
 8103682:	683b      	ldr	r3, [r7, #0]
 8103684:	6919      	ldr	r1, [r3, #16]
 8103686:	683b      	ldr	r3, [r7, #0]
 8103688:	681a      	ldr	r2, [r3, #0]
 810368a:	6f3b      	ldr	r3, [r7, #112]	; 0x70
 810368c:	f7ff f9ae 	bl	81029ec <LL_ADC_SetOffset>
        else
#endif /* ADC_VER_V5_V90 */
        {
          assert_param(IS_FUNCTIONAL_STATE(sConfig->OffsetSignedSaturation));
          /* Set ADC selected offset signed saturation */
          LL_ADC_SetOffsetSignedSaturation(hadc->Instance, sConfig->OffsetNumber, (sConfig->OffsetSignedSaturation == ENABLE) ? LL_ADC_OFFSET_SIGNED_SATURATION_ENABLE : LL_ADC_OFFSET_SIGNED_SATURATION_DISABLE);
 8103690:	687b      	ldr	r3, [r7, #4]
 8103692:	6818      	ldr	r0, [r3, #0]
 8103694:	683b      	ldr	r3, [r7, #0]
 8103696:	6919      	ldr	r1, [r3, #16]
 8103698:	683b      	ldr	r3, [r7, #0]
 810369a:	7e5b      	ldrb	r3, [r3, #25]
 810369c:	2b01      	cmp	r3, #1
 810369e:	d102      	bne.n	81036a6 <HAL_ADC_ConfigChannel+0x17e>
 81036a0:	f04f 4300 	mov.w	r3, #2147483648	; 0x80000000
 81036a4:	e000      	b.n	81036a8 <HAL_ADC_ConfigChannel+0x180>
 81036a6:	2300      	movs	r3, #0
 81036a8:	461a      	mov	r2, r3
 81036aa:	f7ff f9d8 	bl	8102a5e <LL_ADC_SetOffsetSignedSaturation>

          assert_param(IS_FUNCTIONAL_STATE(sConfig->OffsetRightShift));
          /* Set ADC selected offset right shift */
          LL_ADC_SetDataRightShift(hadc->Instance, sConfig->OffsetNumber, (sConfig->OffsetRightShift == ENABLE) ? LL_ADC_OFFSET_RSHIFT_ENABLE : LL_ADC_OFFSET_RSHIFT_DISABLE);
 81036ae:	687b      	ldr	r3, [r7, #4]
 81036b0:	6818      	ldr	r0, [r3, #0]
 81036b2:	683b      	ldr	r3, [r7, #0]
 81036b4:	6919      	ldr	r1, [r3, #16]
 81036b6:	683b      	ldr	r3, [r7, #0]
 81036b8:	7e1b      	ldrb	r3, [r3, #24]
 81036ba:	2b01      	cmp	r3, #1
 81036bc:	d102      	bne.n	81036c4 <HAL_ADC_ConfigChannel+0x19c>
 81036be:	f44f 6300 	mov.w	r3, #2048	; 0x800
 81036c2:	e000      	b.n	81036c6 <HAL_ADC_ConfigChannel+0x19e>
 81036c4:	2300      	movs	r3, #0
 81036c6:	461a      	mov	r2, r3
 81036c8:	f7ff f9b0 	bl	8102a2c <LL_ADC_SetDataRightShift>
 81036cc:	e047      	b.n	810375e <HAL_ADC_ConfigChannel+0x236>
          }
        }
        else
#endif /* ADC_VER_V5_V90 */
        {
          if (((hadc->Instance->OFR1) & ADC_OFR1_OFFSET1_CH) == ADC_OFR_CHANNEL(sConfig->Channel))
 81036ce:	687b      	ldr	r3, [r7, #4]
 81036d0:	681b      	ldr	r3, [r3, #0]
 81036d2:	6e1b      	ldr	r3, [r3, #96]	; 0x60
 81036d4:	f003 42f8 	and.w	r2, r3, #2080374784	; 0x7c000000
 81036d8:	683b      	ldr	r3, [r7, #0]
 81036da:	681b      	ldr	r3, [r3, #0]
 81036dc:	069b      	lsls	r3, r3, #26
 81036de:	429a      	cmp	r2, r3
 81036e0:	d107      	bne.n	81036f2 <HAL_ADC_ConfigChannel+0x1ca>
          {
            CLEAR_BIT(hadc->Instance->OFR1, ADC_OFR1_SSATE);
 81036e2:	687b      	ldr	r3, [r7, #4]
 81036e4:	681b      	ldr	r3, [r3, #0]
 81036e6:	6e1a      	ldr	r2, [r3, #96]	; 0x60
 81036e8:	687b      	ldr	r3, [r7, #4]
 81036ea:	681b      	ldr	r3, [r3, #0]
 81036ec:	f022 4200 	bic.w	r2, r2, #2147483648	; 0x80000000
 81036f0:	661a      	str	r2, [r3, #96]	; 0x60
          }
          if (((hadc->Instance->OFR2) & ADC_OFR2_OFFSET2_CH) == ADC_OFR_CHANNEL(sConfig->Channel))
 81036f2:	687b      	ldr	r3, [r7, #4]
 81036f4:	681b      	ldr	r3, [r3, #0]
 81036f6:	6e5b      	ldr	r3, [r3, #100]	; 0x64
 81036f8:	f003 42f8 	and.w	r2, r3, #2080374784	; 0x7c000000
 81036fc:	683b      	ldr	r3, [r7, #0]
 81036fe:	681b      	ldr	r3, [r3, #0]
 8103700:	069b      	lsls	r3, r3, #26
 8103702:	429a      	cmp	r2, r3
 8103704:	d107      	bne.n	8103716 <HAL_ADC_ConfigChannel+0x1ee>
          {
            CLEAR_BIT(hadc->Instance->OFR2, ADC_OFR2_SSATE);
 8103706:	687b      	ldr	r3, [r7, #4]
 8103708:	681b      	ldr	r3, [r3, #0]
 810370a:	6e5a      	ldr	r2, [r3, #100]	; 0x64
 810370c:	687b      	ldr	r3, [r7, #4]
 810370e:	681b      	ldr	r3, [r3, #0]
 8103710:	f022 4200 	bic.w	r2, r2, #2147483648	; 0x80000000
 8103714:	665a      	str	r2, [r3, #100]	; 0x64
          }
          if (((hadc->Instance->OFR3) & ADC_OFR3_OFFSET3_CH) == ADC_OFR_CHANNEL(sConfig->Channel))
 8103716:	687b      	ldr	r3, [r7, #4]
 8103718:	681b      	ldr	r3, [r3, #0]
 810371a:	6e9b      	ldr	r3, [r3, #104]	; 0x68
 810371c:	f003 42f8 	and.w	r2, r3, #2080374784	; 0x7c000000
 8103720:	683b      	ldr	r3, [r7, #0]
 8103722:	681b      	ldr	r3, [r3, #0]
 8103724:	069b      	lsls	r3, r3, #26
 8103726:	429a      	cmp	r2, r3
 8103728:	d107      	bne.n	810373a <HAL_ADC_ConfigChannel+0x212>
          {
            CLEAR_BIT(hadc->Instance->OFR3, ADC_OFR3_SSATE);
 810372a:	687b      	ldr	r3, [r7, #4]
 810372c:	681b      	ldr	r3, [r3, #0]
 810372e:	6e9a      	ldr	r2, [r3, #104]	; 0x68
 8103730:	687b      	ldr	r3, [r7, #4]
 8103732:	681b      	ldr	r3, [r3, #0]
 8103734:	f022 4200 	bic.w	r2, r2, #2147483648	; 0x80000000
 8103738:	669a      	str	r2, [r3, #104]	; 0x68
          }
          if (((hadc->Instance->OFR4) & ADC_OFR4_OFFSET4_CH) == ADC_OFR_CHANNEL(sConfig->Channel))
 810373a:	687b      	ldr	r3, [r7, #4]
 810373c:	681b      	ldr	r3, [r3, #0]
 810373e:	6edb      	ldr	r3, [r3, #108]	; 0x6c
 8103740:	f003 42f8 	and.w	r2, r3, #2080374784	; 0x7c000000
 8103744:	683b      	ldr	r3, [r7, #0]
 8103746:	681b      	ldr	r3, [r3, #0]
 8103748:	069b      	lsls	r3, r3, #26
 810374a:	429a      	cmp	r2, r3
 810374c:	d107      	bne.n	810375e <HAL_ADC_ConfigChannel+0x236>
          {
            CLEAR_BIT(hadc->Instance->OFR4, ADC_OFR4_SSATE);
 810374e:	687b      	ldr	r3, [r7, #4]
 8103750:	681b      	ldr	r3, [r3, #0]
 8103752:	6eda      	ldr	r2, [r3, #108]	; 0x6c
 8103754:	687b      	ldr	r3, [r7, #4]
 8103756:	681b      	ldr	r3, [r3, #0]
 8103758:	f022 4200 	bic.w	r2, r2, #2147483648	; 0x80000000
 810375c:	66da      	str	r2, [r3, #108]	; 0x6c

    /* Parameters update conditioned to ADC state:                              */
    /* Parameters that can be updated only when ADC is disabled:                */
    /*  - Single or differential mode                                           */
    /*  - Internal measurement channels: Vbat/VrefInt/TempSensor                */
    if (LL_ADC_IsEnabled(hadc->Instance) == 0UL)
 810375e:	687b      	ldr	r3, [r7, #4]
 8103760:	681b      	ldr	r3, [r3, #0]
 8103762:	4618      	mov	r0, r3
 8103764:	f7ff fab6 	bl	8102cd4 <LL_ADC_IsEnabled>
 8103768:	4603      	mov	r3, r0
 810376a:	2b00      	cmp	r3, #0
 810376c:	f040 820d 	bne.w	8103b8a <HAL_ADC_ConfigChannel+0x662>
    {
      /* Set mode single-ended or differential input of the selected ADC channel */
      LL_ADC_SetChannelSingleDiff(hadc->Instance, sConfig->Channel, sConfig->SingleDiff);
 8103770:	687b      	ldr	r3, [r7, #4]
 8103772:	6818      	ldr	r0, [r3, #0]
 8103774:	683b      	ldr	r3, [r7, #0]
 8103776:	6819      	ldr	r1, [r3, #0]
 8103778:	683b      	ldr	r3, [r7, #0]
 810377a:	68db      	ldr	r3, [r3, #12]
 810377c:	461a      	mov	r2, r3
 810377e:	f7ff f9f3 	bl	8102b68 <LL_ADC_SetChannelSingleDiff>

      /* Configuration of differential mode */
      if (sConfig->SingleDiff == ADC_DIFFERENTIAL_ENDED)
 8103782:	683b      	ldr	r3, [r7, #0]
 8103784:	68db      	ldr	r3, [r3, #12]
 8103786:	4a0c      	ldr	r2, [pc, #48]	; (81037b8 <HAL_ADC_ConfigChannel+0x290>)
 8103788:	4293      	cmp	r3, r2
 810378a:	f040 8133 	bne.w	81039f4 <HAL_ADC_ConfigChannel+0x4cc>
      {
        /* Set sampling time of the selected ADC channel */
        /* Note: ADC channel number masked with value "0x1F" to ensure shift value within 32 bits range */
        LL_ADC_SetChannelSamplingTime(hadc->Instance,
 810378e:	687b      	ldr	r3, [r7, #4]
 8103790:	6818      	ldr	r0, [r3, #0]
                                      (uint32_t)(__LL_ADC_DECIMAL_NB_TO_CHANNEL((__LL_ADC_CHANNEL_TO_DECIMAL_NB((uint32_t)sConfig->Channel) + 1UL) & 0x1FUL)),
 8103792:	683b      	ldr	r3, [r7, #0]
 8103794:	681b      	ldr	r3, [r3, #0]
 8103796:	f3c3 0313 	ubfx	r3, r3, #0, #20
 810379a:	2b00      	cmp	r3, #0
 810379c:	d110      	bne.n	81037c0 <HAL_ADC_ConfigChannel+0x298>
 810379e:	683b      	ldr	r3, [r7, #0]
 81037a0:	681b      	ldr	r3, [r3, #0]
 81037a2:	0e9b      	lsrs	r3, r3, #26
 81037a4:	3301      	adds	r3, #1
 81037a6:	f003 031f 	and.w	r3, r3, #31
 81037aa:	2b09      	cmp	r3, #9
 81037ac:	bf94      	ite	ls
 81037ae:	2301      	movls	r3, #1
 81037b0:	2300      	movhi	r3, #0
 81037b2:	b2db      	uxtb	r3, r3
 81037b4:	e01e      	b.n	81037f4 <HAL_ADC_ConfigChannel+0x2cc>
 81037b6:	bf00      	nop
 81037b8:	47ff0000 	.word	0x47ff0000
 81037bc:	5c001000 	.word	0x5c001000
 81037c0:	683b      	ldr	r3, [r7, #0]
 81037c2:	681b      	ldr	r3, [r3, #0]
 81037c4:	65bb      	str	r3, [r7, #88]	; 0x58
   __ASM volatile ("rbit %0, %1" : "=r" (result) : "r" (value) );
 81037c6:	6dbb      	ldr	r3, [r7, #88]	; 0x58
 81037c8:	fa93 f3a3 	rbit	r3, r3
 81037cc:	657b      	str	r3, [r7, #84]	; 0x54
  return result;
 81037ce:	6d7b      	ldr	r3, [r7, #84]	; 0x54
 81037d0:	65fb      	str	r3, [r7, #92]	; 0x5c
  if (value == 0U)
 81037d2:	6dfb      	ldr	r3, [r7, #92]	; 0x5c
 81037d4:	2b00      	cmp	r3, #0
 81037d6:	d101      	bne.n	81037dc <HAL_ADC_ConfigChannel+0x2b4>
    return 32U;
 81037d8:	2320      	movs	r3, #32
 81037da:	e003      	b.n	81037e4 <HAL_ADC_ConfigChannel+0x2bc>
  return __builtin_clz(value);
 81037dc:	6dfb      	ldr	r3, [r7, #92]	; 0x5c
 81037de:	fab3 f383 	clz	r3, r3
 81037e2:	b2db      	uxtb	r3, r3
 81037e4:	3301      	adds	r3, #1
 81037e6:	f003 031f 	and.w	r3, r3, #31
 81037ea:	2b09      	cmp	r3, #9
 81037ec:	bf94      	ite	ls
 81037ee:	2301      	movls	r3, #1
 81037f0:	2300      	movhi	r3, #0
 81037f2:	b2db      	uxtb	r3, r3
        LL_ADC_SetChannelSamplingTime(hadc->Instance,
 81037f4:	2b00      	cmp	r3, #0
 81037f6:	d079      	beq.n	81038ec <HAL_ADC_ConfigChannel+0x3c4>
                                      (uint32_t)(__LL_ADC_DECIMAL_NB_TO_CHANNEL((__LL_ADC_CHANNEL_TO_DECIMAL_NB((uint32_t)sConfig->Channel) + 1UL) & 0x1FUL)),
 81037f8:	683b      	ldr	r3, [r7, #0]
 81037fa:	681b      	ldr	r3, [r3, #0]
 81037fc:	f3c3 0313 	ubfx	r3, r3, #0, #20
 8103800:	2b00      	cmp	r3, #0
 8103802:	d107      	bne.n	8103814 <HAL_ADC_ConfigChannel+0x2ec>
 8103804:	683b      	ldr	r3, [r7, #0]
 8103806:	681b      	ldr	r3, [r3, #0]
 8103808:	0e9b      	lsrs	r3, r3, #26
 810380a:	3301      	adds	r3, #1
 810380c:	069b      	lsls	r3, r3, #26
 810380e:	f003 42f8 	and.w	r2, r3, #2080374784	; 0x7c000000
 8103812:	e015      	b.n	8103840 <HAL_ADC_ConfigChannel+0x318>
 8103814:	683b      	ldr	r3, [r7, #0]
 8103816:	681b      	ldr	r3, [r3, #0]
 8103818:	64fb      	str	r3, [r7, #76]	; 0x4c
   __ASM volatile ("rbit %0, %1" : "=r" (result) : "r" (value) );
 810381a:	6cfb      	ldr	r3, [r7, #76]	; 0x4c
 810381c:	fa93 f3a3 	rbit	r3, r3
 8103820:	64bb      	str	r3, [r7, #72]	; 0x48
  return result;
 8103822:	6cbb      	ldr	r3, [r7, #72]	; 0x48
 8103824:	653b      	str	r3, [r7, #80]	; 0x50
  if (value == 0U)
 8103826:	6d3b      	ldr	r3, [r7, #80]	; 0x50
 8103828:	2b00      	cmp	r3, #0
 810382a:	d101      	bne.n	8103830 <HAL_ADC_ConfigChannel+0x308>
    return 32U;
 810382c:	2320      	movs	r3, #32
 810382e:	e003      	b.n	8103838 <HAL_ADC_ConfigChannel+0x310>
  return __builtin_clz(value);
 8103830:	6d3b      	ldr	r3, [r7, #80]	; 0x50
 8103832:	fab3 f383 	clz	r3, r3
 8103836:	b2db      	uxtb	r3, r3
 8103838:	3301      	adds	r3, #1
 810383a:	069b      	lsls	r3, r3, #26
 810383c:	f003 42f8 	and.w	r2, r3, #2080374784	; 0x7c000000
 8103840:	683b      	ldr	r3, [r7, #0]
 8103842:	681b      	ldr	r3, [r3, #0]
 8103844:	f3c3 0313 	ubfx	r3, r3, #0, #20
 8103848:	2b00      	cmp	r3, #0
 810384a:	d109      	bne.n	8103860 <HAL_ADC_ConfigChannel+0x338>
 810384c:	683b      	ldr	r3, [r7, #0]
 810384e:	681b      	ldr	r3, [r3, #0]
 8103850:	0e9b      	lsrs	r3, r3, #26
 8103852:	3301      	adds	r3, #1
 8103854:	f003 031f 	and.w	r3, r3, #31
 8103858:	2101      	movs	r1, #1
 810385a:	fa01 f303 	lsl.w	r3, r1, r3
 810385e:	e017      	b.n	8103890 <HAL_ADC_ConfigChannel+0x368>
 8103860:	683b      	ldr	r3, [r7, #0]
 8103862:	681b      	ldr	r3, [r3, #0]
 8103864:	643b      	str	r3, [r7, #64]	; 0x40
   __ASM volatile ("rbit %0, %1" : "=r" (result) : "r" (value) );
 8103866:	6c3b      	ldr	r3, [r7, #64]	; 0x40
 8103868:	fa93 f3a3 	rbit	r3, r3
 810386c:	63fb      	str	r3, [r7, #60]	; 0x3c
  return result;
 810386e:	6bfb      	ldr	r3, [r7, #60]	; 0x3c
 8103870:	647b      	str	r3, [r7, #68]	; 0x44
  if (value == 0U)
 8103872:	6c7b      	ldr	r3, [r7, #68]	; 0x44
 8103874:	2b00      	cmp	r3, #0
 8103876:	d101      	bne.n	810387c <HAL_ADC_ConfigChannel+0x354>
    return 32U;
 8103878:	2320      	movs	r3, #32
 810387a:	e003      	b.n	8103884 <HAL_ADC_ConfigChannel+0x35c>
  return __builtin_clz(value);
 810387c:	6c7b      	ldr	r3, [r7, #68]	; 0x44
 810387e:	fab3 f383 	clz	r3, r3
 8103882:	b2db      	uxtb	r3, r3
 8103884:	3301      	adds	r3, #1
 8103886:	f003 031f 	and.w	r3, r3, #31
 810388a:	2101      	movs	r1, #1
 810388c:	fa01 f303 	lsl.w	r3, r1, r3
 8103890:	ea42 0103 	orr.w	r1, r2, r3
 8103894:	683b      	ldr	r3, [r7, #0]
 8103896:	681b      	ldr	r3, [r3, #0]
 8103898:	f3c3 0313 	ubfx	r3, r3, #0, #20
 810389c:	2b00      	cmp	r3, #0
 810389e:	d10a      	bne.n	81038b6 <HAL_ADC_ConfigChannel+0x38e>
 81038a0:	683b      	ldr	r3, [r7, #0]
 81038a2:	681b      	ldr	r3, [r3, #0]
 81038a4:	0e9b      	lsrs	r3, r3, #26
 81038a6:	3301      	adds	r3, #1
 81038a8:	f003 021f 	and.w	r2, r3, #31
 81038ac:	4613      	mov	r3, r2
 81038ae:	005b      	lsls	r3, r3, #1
 81038b0:	4413      	add	r3, r2
 81038b2:	051b      	lsls	r3, r3, #20
 81038b4:	e018      	b.n	81038e8 <HAL_ADC_ConfigChannel+0x3c0>
 81038b6:	683b      	ldr	r3, [r7, #0]
 81038b8:	681b      	ldr	r3, [r3, #0]
 81038ba:	637b      	str	r3, [r7, #52]	; 0x34
   __ASM volatile ("rbit %0, %1" : "=r" (result) : "r" (value) );
 81038bc:	6b7b      	ldr	r3, [r7, #52]	; 0x34
 81038be:	fa93 f3a3 	rbit	r3, r3
 81038c2:	633b      	str	r3, [r7, #48]	; 0x30
  return result;
 81038c4:	6b3b      	ldr	r3, [r7, #48]	; 0x30
 81038c6:	63bb      	str	r3, [r7, #56]	; 0x38
  if (value == 0U)
 81038c8:	6bbb      	ldr	r3, [r7, #56]	; 0x38
 81038ca:	2b00      	cmp	r3, #0
 81038cc:	d101      	bne.n	81038d2 <HAL_ADC_ConfigChannel+0x3aa>
    return 32U;
 81038ce:	2320      	movs	r3, #32
 81038d0:	e003      	b.n	81038da <HAL_ADC_ConfigChannel+0x3b2>
  return __builtin_clz(value);
 81038d2:	6bbb      	ldr	r3, [r7, #56]	; 0x38
 81038d4:	fab3 f383 	clz	r3, r3
 81038d8:	b2db      	uxtb	r3, r3
 81038da:	3301      	adds	r3, #1
 81038dc:	f003 021f 	and.w	r2, r3, #31
 81038e0:	4613      	mov	r3, r2
 81038e2:	005b      	lsls	r3, r3, #1
 81038e4:	4413      	add	r3, r2
 81038e6:	051b      	lsls	r3, r3, #20
        LL_ADC_SetChannelSamplingTime(hadc->Instance,
 81038e8:	430b      	orrs	r3, r1
 81038ea:	e07e      	b.n	81039ea <HAL_ADC_ConfigChannel+0x4c2>
                                      (uint32_t)(__LL_ADC_DECIMAL_NB_TO_CHANNEL((__LL_ADC_CHANNEL_TO_DECIMAL_NB((uint32_t)sConfig->Channel) + 1UL) & 0x1FUL)),
 81038ec:	683b      	ldr	r3, [r7, #0]
 81038ee:	681b      	ldr	r3, [r3, #0]
 81038f0:	f3c3 0313 	ubfx	r3, r3, #0, #20
 81038f4:	2b00      	cmp	r3, #0
 81038f6:	d107      	bne.n	8103908 <HAL_ADC_ConfigChannel+0x3e0>
 81038f8:	683b      	ldr	r3, [r7, #0]
 81038fa:	681b      	ldr	r3, [r3, #0]
 81038fc:	0e9b      	lsrs	r3, r3, #26
 81038fe:	3301      	adds	r3, #1
 8103900:	069b      	lsls	r3, r3, #26
 8103902:	f003 42f8 	and.w	r2, r3, #2080374784	; 0x7c000000
 8103906:	e015      	b.n	8103934 <HAL_ADC_ConfigChannel+0x40c>
 8103908:	683b      	ldr	r3, [r7, #0]
 810390a:	681b      	ldr	r3, [r3, #0]
 810390c:	62bb      	str	r3, [r7, #40]	; 0x28
   __ASM volatile ("rbit %0, %1" : "=r" (result) : "r" (value) );
 810390e:	6abb      	ldr	r3, [r7, #40]	; 0x28
 8103910:	fa93 f3a3 	rbit	r3, r3
 8103914:	627b      	str	r3, [r7, #36]	; 0x24
  return result;
 8103916:	6a7b      	ldr	r3, [r7, #36]	; 0x24
 8103918:	62fb      	str	r3, [r7, #44]	; 0x2c
  if (value == 0U)
 810391a:	6afb      	ldr	r3, [r7, #44]	; 0x2c
 810391c:	2b00      	cmp	r3, #0
 810391e:	d101      	bne.n	8103924 <HAL_ADC_ConfigChannel+0x3fc>
    return 32U;
 8103920:	2320      	movs	r3, #32
 8103922:	e003      	b.n	810392c <HAL_ADC_ConfigChannel+0x404>
  return __builtin_clz(value);
 8103924:	6afb      	ldr	r3, [r7, #44]	; 0x2c
 8103926:	fab3 f383 	clz	r3, r3
 810392a:	b2db      	uxtb	r3, r3
 810392c:	3301      	adds	r3, #1
 810392e:	069b      	lsls	r3, r3, #26
 8103930:	f003 42f8 	and.w	r2, r3, #2080374784	; 0x7c000000
 8103934:	683b      	ldr	r3, [r7, #0]
 8103936:	681b      	ldr	r3, [r3, #0]
 8103938:	f3c3 0313 	ubfx	r3, r3, #0, #20
 810393c:	2b00      	cmp	r3, #0
 810393e:	d109      	bne.n	8103954 <HAL_ADC_ConfigChannel+0x42c>
 8103940:	683b      	ldr	r3, [r7, #0]
 8103942:	681b      	ldr	r3, [r3, #0]
 8103944:	0e9b      	lsrs	r3, r3, #26
 8103946:	3301      	adds	r3, #1
 8103948:	f003 031f 	and.w	r3, r3, #31
 810394c:	2101      	movs	r1, #1
 810394e:	fa01 f303 	lsl.w	r3, r1, r3
 8103952:	e017      	b.n	8103984 <HAL_ADC_ConfigChannel+0x45c>
 8103954:	683b      	ldr	r3, [r7, #0]
 8103956:	681b      	ldr	r3, [r3, #0]
 8103958:	61fb      	str	r3, [r7, #28]
   __ASM volatile ("rbit %0, %1" : "=r" (result) : "r" (value) );
 810395a:	69fb      	ldr	r3, [r7, #28]
 810395c:	fa93 f3a3 	rbit	r3, r3
 8103960:	61bb      	str	r3, [r7, #24]
  return result;
 8103962:	69bb      	ldr	r3, [r7, #24]
 8103964:	623b      	str	r3, [r7, #32]
  if (value == 0U)
 8103966:	6a3b      	ldr	r3, [r7, #32]
 8103968:	2b00      	cmp	r3, #0
 810396a:	d101      	bne.n	8103970 <HAL_ADC_ConfigChannel+0x448>
    return 32U;
 810396c:	2320      	movs	r3, #32
 810396e:	e003      	b.n	8103978 <HAL_ADC_ConfigChannel+0x450>
  return __builtin_clz(value);
 8103970:	6a3b      	ldr	r3, [r7, #32]
 8103972:	fab3 f383 	clz	r3, r3
 8103976:	b2db      	uxtb	r3, r3
 8103978:	3301      	adds	r3, #1
 810397a:	f003 031f 	and.w	r3, r3, #31
 810397e:	2101      	movs	r1, #1
 8103980:	fa01 f303 	lsl.w	r3, r1, r3
 8103984:	ea42 0103 	orr.w	r1, r2, r3
 8103988:	683b      	ldr	r3, [r7, #0]
 810398a:	681b      	ldr	r3, [r3, #0]
 810398c:	f3c3 0313 	ubfx	r3, r3, #0, #20
 8103990:	2b00      	cmp	r3, #0
 8103992:	d10d      	bne.n	81039b0 <HAL_ADC_ConfigChannel+0x488>
 8103994:	683b      	ldr	r3, [r7, #0]
 8103996:	681b      	ldr	r3, [r3, #0]
 8103998:	0e9b      	lsrs	r3, r3, #26
 810399a:	3301      	adds	r3, #1
 810399c:	f003 021f 	and.w	r2, r3, #31
 81039a0:	4613      	mov	r3, r2
 81039a2:	005b      	lsls	r3, r3, #1
 81039a4:	4413      	add	r3, r2
 81039a6:	3b1e      	subs	r3, #30
 81039a8:	051b      	lsls	r3, r3, #20
 81039aa:	f043 7300 	orr.w	r3, r3, #33554432	; 0x2000000
 81039ae:	e01b      	b.n	81039e8 <HAL_ADC_ConfigChannel+0x4c0>
 81039b0:	683b      	ldr	r3, [r7, #0]
 81039b2:	681b      	ldr	r3, [r3, #0]
 81039b4:	613b      	str	r3, [r7, #16]
   __ASM volatile ("rbit %0, %1" : "=r" (result) : "r" (value) );
 81039b6:	693b      	ldr	r3, [r7, #16]
 81039b8:	fa93 f3a3 	rbit	r3, r3
 81039bc:	60fb      	str	r3, [r7, #12]
  return result;
 81039be:	68fb      	ldr	r3, [r7, #12]
 81039c0:	617b      	str	r3, [r7, #20]
  if (value == 0U)
 81039c2:	697b      	ldr	r3, [r7, #20]
 81039c4:	2b00      	cmp	r3, #0
 81039c6:	d101      	bne.n	81039cc <HAL_ADC_ConfigChannel+0x4a4>
    return 32U;
 81039c8:	2320      	movs	r3, #32
 81039ca:	e003      	b.n	81039d4 <HAL_ADC_ConfigChannel+0x4ac>
  return __builtin_clz(value);
 81039cc:	697b      	ldr	r3, [r7, #20]
 81039ce:	fab3 f383 	clz	r3, r3
 81039d2:	b2db      	uxtb	r3, r3
 81039d4:	3301      	adds	r3, #1
 81039d6:	f003 021f 	and.w	r2, r3, #31
 81039da:	4613      	mov	r3, r2
 81039dc:	005b      	lsls	r3, r3, #1
 81039de:	4413      	add	r3, r2
 81039e0:	3b1e      	subs	r3, #30
 81039e2:	051b      	lsls	r3, r3, #20
 81039e4:	f043 7300 	orr.w	r3, r3, #33554432	; 0x2000000
        LL_ADC_SetChannelSamplingTime(hadc->Instance,
 81039e8:	430b      	orrs	r3, r1
 81039ea:	683a      	ldr	r2, [r7, #0]
 81039ec:	6892      	ldr	r2, [r2, #8]
 81039ee:	4619      	mov	r1, r3
 81039f0:	f7ff f88f 	bl	8102b12 <LL_ADC_SetChannelSamplingTime>
      /* If internal channel selected, enable dedicated internal buffers and    */
      /* paths.                                                                 */
      /* Note: these internal measurement paths can be disabled using           */
      /* HAL_ADC_DeInit().                                                      */

      if (__LL_ADC_IS_CHANNEL_INTERNAL(sConfig->Channel))
 81039f4:	683b      	ldr	r3, [r7, #0]
 81039f6:	681b      	ldr	r3, [r3, #0]
 81039f8:	2b00      	cmp	r3, #0
 81039fa:	f280 80c6 	bge.w	8103b8a <HAL_ADC_ConfigChannel+0x662>
      {
        /* Configuration of common ADC parameters                                 */

        tmp_config_internal_channel = LL_ADC_GetCommonPathInternalCh(__LL_ADC_COMMON_INSTANCE(hadc->Instance));
 81039fe:	687b      	ldr	r3, [r7, #4]
 8103a00:	681b      	ldr	r3, [r3, #0]
 8103a02:	4a67      	ldr	r2, [pc, #412]	; (8103ba0 <HAL_ADC_ConfigChannel+0x678>)
 8103a04:	4293      	cmp	r3, r2
 8103a06:	d004      	beq.n	8103a12 <HAL_ADC_ConfigChannel+0x4ea>
 8103a08:	687b      	ldr	r3, [r7, #4]
 8103a0a:	681b      	ldr	r3, [r3, #0]
 8103a0c:	4a65      	ldr	r2, [pc, #404]	; (8103ba4 <HAL_ADC_ConfigChannel+0x67c>)
 8103a0e:	4293      	cmp	r3, r2
 8103a10:	d101      	bne.n	8103a16 <HAL_ADC_ConfigChannel+0x4ee>
 8103a12:	4b65      	ldr	r3, [pc, #404]	; (8103ba8 <HAL_ADC_ConfigChannel+0x680>)
 8103a14:	e000      	b.n	8103a18 <HAL_ADC_ConfigChannel+0x4f0>
 8103a16:	4b65      	ldr	r3, [pc, #404]	; (8103bac <HAL_ADC_ConfigChannel+0x684>)
 8103a18:	4618      	mov	r0, r3
 8103a1a:	f7fe ffd9 	bl	81029d0 <LL_ADC_GetCommonPathInternalCh>
 8103a1e:	66f8      	str	r0, [r7, #108]	; 0x6c

        /* Software is allowed to change common parameters only when all ADCs   */
        /* of the common group are disabled.                                    */
        if (__LL_ADC_IS_ENABLED_ALL_COMMON_INSTANCE(__LL_ADC_COMMON_INSTANCE(hadc->Instance)) == 0UL)
 8103a20:	687b      	ldr	r3, [r7, #4]
 8103a22:	681b      	ldr	r3, [r3, #0]
 8103a24:	4a5e      	ldr	r2, [pc, #376]	; (8103ba0 <HAL_ADC_ConfigChannel+0x678>)
 8103a26:	4293      	cmp	r3, r2
 8103a28:	d004      	beq.n	8103a34 <HAL_ADC_ConfigChannel+0x50c>
 8103a2a:	687b      	ldr	r3, [r7, #4]
 8103a2c:	681b      	ldr	r3, [r3, #0]
 8103a2e:	4a5d      	ldr	r2, [pc, #372]	; (8103ba4 <HAL_ADC_ConfigChannel+0x67c>)
 8103a30:	4293      	cmp	r3, r2
 8103a32:	d10e      	bne.n	8103a52 <HAL_ADC_ConfigChannel+0x52a>
 8103a34:	485a      	ldr	r0, [pc, #360]	; (8103ba0 <HAL_ADC_ConfigChannel+0x678>)
 8103a36:	f7ff f94d 	bl	8102cd4 <LL_ADC_IsEnabled>
 8103a3a:	4604      	mov	r4, r0
 8103a3c:	4859      	ldr	r0, [pc, #356]	; (8103ba4 <HAL_ADC_ConfigChannel+0x67c>)
 8103a3e:	f7ff f949 	bl	8102cd4 <LL_ADC_IsEnabled>
 8103a42:	4603      	mov	r3, r0
 8103a44:	4323      	orrs	r3, r4
 8103a46:	2b00      	cmp	r3, #0
 8103a48:	bf0c      	ite	eq
 8103a4a:	2301      	moveq	r3, #1
 8103a4c:	2300      	movne	r3, #0
 8103a4e:	b2db      	uxtb	r3, r3
 8103a50:	e008      	b.n	8103a64 <HAL_ADC_ConfigChannel+0x53c>
 8103a52:	4857      	ldr	r0, [pc, #348]	; (8103bb0 <HAL_ADC_ConfigChannel+0x688>)
 8103a54:	f7ff f93e 	bl	8102cd4 <LL_ADC_IsEnabled>
 8103a58:	4603      	mov	r3, r0
 8103a5a:	2b00      	cmp	r3, #0
 8103a5c:	bf0c      	ite	eq
 8103a5e:	2301      	moveq	r3, #1
 8103a60:	2300      	movne	r3, #0
 8103a62:	b2db      	uxtb	r3, r3
 8103a64:	2b00      	cmp	r3, #0
 8103a66:	d07d      	beq.n	8103b64 <HAL_ADC_ConfigChannel+0x63c>
        {
          /* If the requested internal measurement path has already been enabled, */
          /* bypass the configuration processing.                                 */
          if ((sConfig->Channel == ADC_CHANNEL_TEMPSENSOR) && ((tmp_config_internal_channel & LL_ADC_PATH_INTERNAL_TEMPSENSOR) == 0UL))
 8103a68:	683b      	ldr	r3, [r7, #0]
 8103a6a:	681b      	ldr	r3, [r3, #0]
 8103a6c:	4a51      	ldr	r2, [pc, #324]	; (8103bb4 <HAL_ADC_ConfigChannel+0x68c>)
 8103a6e:	4293      	cmp	r3, r2
 8103a70:	d130      	bne.n	8103ad4 <HAL_ADC_ConfigChannel+0x5ac>
 8103a72:	6efb      	ldr	r3, [r7, #108]	; 0x6c
 8103a74:	f403 0300 	and.w	r3, r3, #8388608	; 0x800000
 8103a78:	2b00      	cmp	r3, #0
 8103a7a:	d12b      	bne.n	8103ad4 <HAL_ADC_ConfigChannel+0x5ac>
          {
            if (ADC_TEMPERATURE_SENSOR_INSTANCE(hadc))
 8103a7c:	687b      	ldr	r3, [r7, #4]
 8103a7e:	681b      	ldr	r3, [r3, #0]
 8103a80:	4a4b      	ldr	r2, [pc, #300]	; (8103bb0 <HAL_ADC_ConfigChannel+0x688>)
 8103a82:	4293      	cmp	r3, r2
 8103a84:	f040 8081 	bne.w	8103b8a <HAL_ADC_ConfigChannel+0x662>
            {
              LL_ADC_SetCommonPathInternalCh(__LL_ADC_COMMON_INSTANCE(hadc->Instance), LL_ADC_PATH_INTERNAL_TEMPSENSOR | tmp_config_internal_channel);
 8103a88:	687b      	ldr	r3, [r7, #4]
 8103a8a:	681b      	ldr	r3, [r3, #0]
 8103a8c:	4a44      	ldr	r2, [pc, #272]	; (8103ba0 <HAL_ADC_ConfigChannel+0x678>)
 8103a8e:	4293      	cmp	r3, r2
 8103a90:	d004      	beq.n	8103a9c <HAL_ADC_ConfigChannel+0x574>
 8103a92:	687b      	ldr	r3, [r7, #4]
 8103a94:	681b      	ldr	r3, [r3, #0]
 8103a96:	4a43      	ldr	r2, [pc, #268]	; (8103ba4 <HAL_ADC_ConfigChannel+0x67c>)
 8103a98:	4293      	cmp	r3, r2
 8103a9a:	d101      	bne.n	8103aa0 <HAL_ADC_ConfigChannel+0x578>
 8103a9c:	4a42      	ldr	r2, [pc, #264]	; (8103ba8 <HAL_ADC_ConfigChannel+0x680>)
 8103a9e:	e000      	b.n	8103aa2 <HAL_ADC_ConfigChannel+0x57a>
 8103aa0:	4a42      	ldr	r2, [pc, #264]	; (8103bac <HAL_ADC_ConfigChannel+0x684>)
 8103aa2:	6efb      	ldr	r3, [r7, #108]	; 0x6c
 8103aa4:	f443 0300 	orr.w	r3, r3, #8388608	; 0x800000
 8103aa8:	4619      	mov	r1, r3
 8103aaa:	4610      	mov	r0, r2
 8103aac:	f7fe ff7d 	bl	81029aa <LL_ADC_SetCommonPathInternalCh>
              /* Delay for temperature sensor stabilization time */
              /* Wait loop initialization and execution */
              /* Note: Variable divided by 2 to compensate partially              */
              /*       CPU processing cycles, scaling in us split to not          */
              /*       exceed 32 bits register capacity and handle low frequency. */
              wait_loop_index = ((LL_ADC_DELAY_TEMPSENSOR_STAB_US / 10UL) * ((SystemCoreClock / (100000UL * 2UL)) + 1UL));
 8103ab0:	4b41      	ldr	r3, [pc, #260]	; (8103bb8 <HAL_ADC_ConfigChannel+0x690>)
 8103ab2:	681b      	ldr	r3, [r3, #0]
 8103ab4:	099b      	lsrs	r3, r3, #6
 8103ab6:	4a41      	ldr	r2, [pc, #260]	; (8103bbc <HAL_ADC_ConfigChannel+0x694>)
 8103ab8:	fba2 2303 	umull	r2, r3, r2, r3
 8103abc:	099b      	lsrs	r3, r3, #6
 8103abe:	3301      	adds	r3, #1
 8103ac0:	005b      	lsls	r3, r3, #1
 8103ac2:	60bb      	str	r3, [r7, #8]
              while (wait_loop_index != 0UL)
 8103ac4:	e002      	b.n	8103acc <HAL_ADC_ConfigChannel+0x5a4>
              {
                wait_loop_index--;
 8103ac6:	68bb      	ldr	r3, [r7, #8]
 8103ac8:	3b01      	subs	r3, #1
 8103aca:	60bb      	str	r3, [r7, #8]
              while (wait_loop_index != 0UL)
 8103acc:	68bb      	ldr	r3, [r7, #8]
 8103ace:	2b00      	cmp	r3, #0
 8103ad0:	d1f9      	bne.n	8103ac6 <HAL_ADC_ConfigChannel+0x59e>
            if (ADC_TEMPERATURE_SENSOR_INSTANCE(hadc))
 8103ad2:	e05a      	b.n	8103b8a <HAL_ADC_ConfigChannel+0x662>
              }
            }
          }
          else if ((sConfig->Channel == ADC_CHANNEL_VBAT) && ((tmp_config_internal_channel & LL_ADC_PATH_INTERNAL_VBAT) == 0UL))
 8103ad4:	683b      	ldr	r3, [r7, #0]
 8103ad6:	681b      	ldr	r3, [r3, #0]
 8103ad8:	4a39      	ldr	r2, [pc, #228]	; (8103bc0 <HAL_ADC_ConfigChannel+0x698>)
 8103ada:	4293      	cmp	r3, r2
 8103adc:	d11e      	bne.n	8103b1c <HAL_ADC_ConfigChannel+0x5f4>
 8103ade:	6efb      	ldr	r3, [r7, #108]	; 0x6c
 8103ae0:	f003 7380 	and.w	r3, r3, #16777216	; 0x1000000
 8103ae4:	2b00      	cmp	r3, #0
 8103ae6:	d119      	bne.n	8103b1c <HAL_ADC_ConfigChannel+0x5f4>
          {
            if (ADC_BATTERY_VOLTAGE_INSTANCE(hadc))
 8103ae8:	687b      	ldr	r3, [r7, #4]
 8103aea:	681b      	ldr	r3, [r3, #0]
 8103aec:	4a30      	ldr	r2, [pc, #192]	; (8103bb0 <HAL_ADC_ConfigChannel+0x688>)
 8103aee:	4293      	cmp	r3, r2
 8103af0:	d14b      	bne.n	8103b8a <HAL_ADC_ConfigChannel+0x662>
            {
              LL_ADC_SetCommonPathInternalCh(__LL_ADC_COMMON_INSTANCE(hadc->Instance), LL_ADC_PATH_INTERNAL_VBAT | tmp_config_internal_channel);
 8103af2:	687b      	ldr	r3, [r7, #4]
 8103af4:	681b      	ldr	r3, [r3, #0]
 8103af6:	4a2a      	ldr	r2, [pc, #168]	; (8103ba0 <HAL_ADC_ConfigChannel+0x678>)
 8103af8:	4293      	cmp	r3, r2
 8103afa:	d004      	beq.n	8103b06 <HAL_ADC_ConfigChannel+0x5de>
 8103afc:	687b      	ldr	r3, [r7, #4]
 8103afe:	681b      	ldr	r3, [r3, #0]
 8103b00:	4a28      	ldr	r2, [pc, #160]	; (8103ba4 <HAL_ADC_ConfigChannel+0x67c>)
 8103b02:	4293      	cmp	r3, r2
 8103b04:	d101      	bne.n	8103b0a <HAL_ADC_ConfigChannel+0x5e2>
 8103b06:	4a28      	ldr	r2, [pc, #160]	; (8103ba8 <HAL_ADC_ConfigChannel+0x680>)
 8103b08:	e000      	b.n	8103b0c <HAL_ADC_ConfigChannel+0x5e4>
 8103b0a:	4a28      	ldr	r2, [pc, #160]	; (8103bac <HAL_ADC_ConfigChannel+0x684>)
 8103b0c:	6efb      	ldr	r3, [r7, #108]	; 0x6c
 8103b0e:	f043 7380 	orr.w	r3, r3, #16777216	; 0x1000000
 8103b12:	4619      	mov	r1, r3
 8103b14:	4610      	mov	r0, r2
 8103b16:	f7fe ff48 	bl	81029aa <LL_ADC_SetCommonPathInternalCh>
            if (ADC_BATTERY_VOLTAGE_INSTANCE(hadc))
 8103b1a:	e036      	b.n	8103b8a <HAL_ADC_ConfigChannel+0x662>
            }
          }
          else if ((sConfig->Channel == ADC_CHANNEL_VREFINT) && ((tmp_config_internal_channel & LL_ADC_PATH_INTERNAL_VREFINT) == 0UL))
 8103b1c:	683b      	ldr	r3, [r7, #0]
 8103b1e:	681b      	ldr	r3, [r3, #0]
 8103b20:	4a28      	ldr	r2, [pc, #160]	; (8103bc4 <HAL_ADC_ConfigChannel+0x69c>)
 8103b22:	4293      	cmp	r3, r2
 8103b24:	d131      	bne.n	8103b8a <HAL_ADC_ConfigChannel+0x662>
 8103b26:	6efb      	ldr	r3, [r7, #108]	; 0x6c
 8103b28:	f403 0380 	and.w	r3, r3, #4194304	; 0x400000
 8103b2c:	2b00      	cmp	r3, #0
 8103b2e:	d12c      	bne.n	8103b8a <HAL_ADC_ConfigChannel+0x662>
          {
            if (ADC_VREFINT_INSTANCE(hadc))
 8103b30:	687b      	ldr	r3, [r7, #4]
 8103b32:	681b      	ldr	r3, [r3, #0]
 8103b34:	4a1e      	ldr	r2, [pc, #120]	; (8103bb0 <HAL_ADC_ConfigChannel+0x688>)
 8103b36:	4293      	cmp	r3, r2
 8103b38:	d127      	bne.n	8103b8a <HAL_ADC_ConfigChannel+0x662>
            {
              LL_ADC_SetCommonPathInternalCh(__LL_ADC_COMMON_INSTANCE(hadc->Instance), LL_ADC_PATH_INTERNAL_VREFINT | tmp_config_internal_channel);
 8103b3a:	687b      	ldr	r3, [r7, #4]
 8103b3c:	681b      	ldr	r3, [r3, #0]
 8103b3e:	4a18      	ldr	r2, [pc, #96]	; (8103ba0 <HAL_ADC_ConfigChannel+0x678>)
 8103b40:	4293      	cmp	r3, r2
 8103b42:	d004      	beq.n	8103b4e <HAL_ADC_ConfigChannel+0x626>
 8103b44:	687b      	ldr	r3, [r7, #4]
 8103b46:	681b      	ldr	r3, [r3, #0]
 8103b48:	4a16      	ldr	r2, [pc, #88]	; (8103ba4 <HAL_ADC_ConfigChannel+0x67c>)
 8103b4a:	4293      	cmp	r3, r2
 8103b4c:	d101      	bne.n	8103b52 <HAL_ADC_ConfigChannel+0x62a>
 8103b4e:	4a16      	ldr	r2, [pc, #88]	; (8103ba8 <HAL_ADC_ConfigChannel+0x680>)
 8103b50:	e000      	b.n	8103b54 <HAL_ADC_ConfigChannel+0x62c>
 8103b52:	4a16      	ldr	r2, [pc, #88]	; (8103bac <HAL_ADC_ConfigChannel+0x684>)
 8103b54:	6efb      	ldr	r3, [r7, #108]	; 0x6c
 8103b56:	f443 0380 	orr.w	r3, r3, #4194304	; 0x400000
 8103b5a:	4619      	mov	r1, r3
 8103b5c:	4610      	mov	r0, r2
 8103b5e:	f7fe ff24 	bl	81029aa <LL_ADC_SetCommonPathInternalCh>
 8103b62:	e012      	b.n	8103b8a <HAL_ADC_ConfigChannel+0x662>
        /* enabled and other ADC of the common group are enabled, internal      */
        /* measurement paths cannot be enabled.                                 */
        else
        {
          /* Update ADC state machine to error */
          SET_BIT(hadc->State, HAL_ADC_STATE_ERROR_CONFIG);
 8103b64:	687b      	ldr	r3, [r7, #4]
 8103b66:	6d5b      	ldr	r3, [r3, #84]	; 0x54
 8103b68:	f043 0220 	orr.w	r2, r3, #32
 8103b6c:	687b      	ldr	r3, [r7, #4]
 8103b6e:	655a      	str	r2, [r3, #84]	; 0x54

          tmp_hal_status = HAL_ERROR;
 8103b70:	2301      	movs	r3, #1
 8103b72:	f887 307f 	strb.w	r3, [r7, #127]	; 0x7f
 8103b76:	e008      	b.n	8103b8a <HAL_ADC_ConfigChannel+0x662>
  /* channel could be done on neither of the channel configuration structure  */
  /* parameters.                                                              */
  else
  {
    /* Update ADC state machine to error */
    SET_BIT(hadc->State, HAL_ADC_STATE_ERROR_CONFIG);
 8103b78:	687b      	ldr	r3, [r7, #4]
 8103b7a:	6d5b      	ldr	r3, [r3, #84]	; 0x54
 8103b7c:	f043 0220 	orr.w	r2, r3, #32
 8103b80:	687b      	ldr	r3, [r7, #4]
 8103b82:	655a      	str	r2, [r3, #84]	; 0x54

    tmp_hal_status = HAL_ERROR;
 8103b84:	2301      	movs	r3, #1
 8103b86:	f887 307f 	strb.w	r3, [r7, #127]	; 0x7f
  }

  /* Process unlocked */
  __HAL_UNLOCK(hadc);
 8103b8a:	687b      	ldr	r3, [r7, #4]
 8103b8c:	2200      	movs	r2, #0
 8103b8e:	f883 2050 	strb.w	r2, [r3, #80]	; 0x50

  /* Return function status */
  return tmp_hal_status;
 8103b92:	f897 307f 	ldrb.w	r3, [r7, #127]	; 0x7f
}
 8103b96:	4618      	mov	r0, r3
 8103b98:	3784      	adds	r7, #132	; 0x84
 8103b9a:	46bd      	mov	sp, r7
 8103b9c:	bd90      	pop	{r4, r7, pc}
 8103b9e:	bf00      	nop
 8103ba0:	40022000 	.word	0x40022000
 8103ba4:	40022100 	.word	0x40022100
 8103ba8:	40022300 	.word	0x40022300
 8103bac:	58026300 	.word	0x58026300
 8103bb0:	58026000 	.word	0x58026000
 8103bb4:	cb840000 	.word	0xcb840000
 8103bb8:	10000000 	.word	0x10000000
 8103bbc:	053e2d63 	.word	0x053e2d63
 8103bc0:	c7520000 	.word	0xc7520000
 8103bc4:	cfb80000 	.word	0xcfb80000

08103bc8 <ADC_ConversionStop>:
  *            @arg @ref ADC_INJECTED_GROUP          ADC injected conversion type.
  *            @arg @ref ADC_REGULAR_INJECTED_GROUP  ADC regular and injected conversion type.
  * @retval HAL status.
  */
HAL_StatusTypeDef ADC_ConversionStop(ADC_HandleTypeDef *hadc, uint32_t ConversionGroup)
{
 8103bc8:	b580      	push	{r7, lr}
 8103bca:	b088      	sub	sp, #32
 8103bcc:	af00      	add	r7, sp, #0
 8103bce:	6078      	str	r0, [r7, #4]
 8103bd0:	6039      	str	r1, [r7, #0]
  uint32_t tickstart;
  uint32_t Conversion_Timeout_CPU_cycles = 0UL;
 8103bd2:	2300      	movs	r3, #0
 8103bd4:	61fb      	str	r3, [r7, #28]
  uint32_t conversion_group_reassigned = ConversionGroup;
 8103bd6:	683b      	ldr	r3, [r7, #0]
 8103bd8:	61bb      	str	r3, [r7, #24]
  assert_param(IS_ADC_ALL_INSTANCE(hadc->Instance));
  assert_param(IS_ADC_CONVERSION_GROUP(ConversionGroup));

  /* Verification if ADC is not already stopped (on regular and injected      */
  /* groups) to bypass this function if not needed.                           */
  tmp_adc_is_conversion_on_going_regular = LL_ADC_REG_IsConversionOngoing(hadc->Instance);
 8103bda:	687b      	ldr	r3, [r7, #4]
 8103bdc:	681b      	ldr	r3, [r3, #0]
 8103bde:	4618      	mov	r0, r3
 8103be0:	f7ff f8c6 	bl	8102d70 <LL_ADC_REG_IsConversionOngoing>
 8103be4:	6138      	str	r0, [r7, #16]
  tmp_adc_is_conversion_on_going_injected = LL_ADC_INJ_IsConversionOngoing(hadc->Instance);
 8103be6:	687b      	ldr	r3, [r7, #4]
 8103be8:	681b      	ldr	r3, [r3, #0]
 8103bea:	4618      	mov	r0, r3
 8103bec:	f7ff f8e7 	bl	8102dbe <LL_ADC_INJ_IsConversionOngoing>
 8103bf0:	60f8      	str	r0, [r7, #12]
  if ((tmp_adc_is_conversion_on_going_regular != 0UL)
 8103bf2:	693b      	ldr	r3, [r7, #16]
 8103bf4:	2b00      	cmp	r3, #0
 8103bf6:	d103      	bne.n	8103c00 <ADC_ConversionStop+0x38>
      || (tmp_adc_is_conversion_on_going_injected != 0UL)
 8103bf8:	68fb      	ldr	r3, [r7, #12]
 8103bfa:	2b00      	cmp	r3, #0
 8103bfc:	f000 8098 	beq.w	8103d30 <ADC_ConversionStop+0x168>
    /* auto-delay mode.                                                       */
    /* In auto-injection mode, regular group stop ADC_CR_ADSTP is used (not   */
    /* injected group stop ADC_CR_JADSTP).                                    */
    /* Procedure to be followed: Wait until JEOS=1, clear JEOS, set ADSTP=1   */
    /* (see reference manual).                                                */
    if (((hadc->Instance->CFGR & ADC_CFGR_JAUTO) != 0UL)
 8103c00:	687b      	ldr	r3, [r7, #4]
 8103c02:	681b      	ldr	r3, [r3, #0]
 8103c04:	68db      	ldr	r3, [r3, #12]
 8103c06:	f003 7300 	and.w	r3, r3, #33554432	; 0x2000000
 8103c0a:	2b00      	cmp	r3, #0
 8103c0c:	d02a      	beq.n	8103c64 <ADC_ConversionStop+0x9c>
        && (hadc->Init.ContinuousConvMode == ENABLE)
 8103c0e:	687b      	ldr	r3, [r7, #4]
 8103c10:	7d5b      	ldrb	r3, [r3, #21]
 8103c12:	2b01      	cmp	r3, #1
 8103c14:	d126      	bne.n	8103c64 <ADC_ConversionStop+0x9c>
        && (hadc->Init.LowPowerAutoWait == ENABLE)
 8103c16:	687b      	ldr	r3, [r7, #4]
 8103c18:	7d1b      	ldrb	r3, [r3, #20]
 8103c1a:	2b01      	cmp	r3, #1
 8103c1c:	d122      	bne.n	8103c64 <ADC_ConversionStop+0x9c>
       )
    {
      /* Use stop of regular group */
      conversion_group_reassigned = ADC_REGULAR_GROUP;
 8103c1e:	2301      	movs	r3, #1
 8103c20:	61bb      	str	r3, [r7, #24]

      /* Wait until JEOS=1 (maximum Timeout: 4 injected conversions) */
      while (__HAL_ADC_GET_FLAG(hadc, ADC_FLAG_JEOS) == 0UL)
 8103c22:	e014      	b.n	8103c4e <ADC_ConversionStop+0x86>
      {
        if (Conversion_Timeout_CPU_cycles >= (ADC_CONVERSION_TIME_MAX_CPU_CYCLES * 4UL))
 8103c24:	69fb      	ldr	r3, [r7, #28]
 8103c26:	4a45      	ldr	r2, [pc, #276]	; (8103d3c <ADC_ConversionStop+0x174>)
 8103c28:	4293      	cmp	r3, r2
 8103c2a:	d90d      	bls.n	8103c48 <ADC_ConversionStop+0x80>
        {
          /* Update ADC state machine to error */
          SET_BIT(hadc->State, HAL_ADC_STATE_ERROR_INTERNAL);
 8103c2c:	687b      	ldr	r3, [r7, #4]
 8103c2e:	6d5b      	ldr	r3, [r3, #84]	; 0x54
 8103c30:	f043 0210 	orr.w	r2, r3, #16
 8103c34:	687b      	ldr	r3, [r7, #4]
 8103c36:	655a      	str	r2, [r3, #84]	; 0x54

          /* Set ADC error code to ADC peripheral internal error */
          SET_BIT(hadc->ErrorCode, HAL_ADC_ERROR_INTERNAL);
 8103c38:	687b      	ldr	r3, [r7, #4]
 8103c3a:	6d9b      	ldr	r3, [r3, #88]	; 0x58
 8103c3c:	f043 0201 	orr.w	r2, r3, #1
 8103c40:	687b      	ldr	r3, [r7, #4]
 8103c42:	659a      	str	r2, [r3, #88]	; 0x58

          return HAL_ERROR;
 8103c44:	2301      	movs	r3, #1
 8103c46:	e074      	b.n	8103d32 <ADC_ConversionStop+0x16a>
        }
        Conversion_Timeout_CPU_cycles ++;
 8103c48:	69fb      	ldr	r3, [r7, #28]
 8103c4a:	3301      	adds	r3, #1
 8103c4c:	61fb      	str	r3, [r7, #28]
      while (__HAL_ADC_GET_FLAG(hadc, ADC_FLAG_JEOS) == 0UL)
 8103c4e:	687b      	ldr	r3, [r7, #4]
 8103c50:	681b      	ldr	r3, [r3, #0]
 8103c52:	681b      	ldr	r3, [r3, #0]
 8103c54:	f003 0340 	and.w	r3, r3, #64	; 0x40
 8103c58:	2b40      	cmp	r3, #64	; 0x40
 8103c5a:	d1e3      	bne.n	8103c24 <ADC_ConversionStop+0x5c>
      }

      /* Clear JEOS */
      __HAL_ADC_CLEAR_FLAG(hadc, ADC_FLAG_JEOS);
 8103c5c:	687b      	ldr	r3, [r7, #4]
 8103c5e:	681b      	ldr	r3, [r3, #0]
 8103c60:	2240      	movs	r2, #64	; 0x40
 8103c62:	601a      	str	r2, [r3, #0]
    }

    /* Stop potential conversion on going on ADC group regular */
    if (conversion_group_reassigned != ADC_INJECTED_GROUP)
 8103c64:	69bb      	ldr	r3, [r7, #24]
 8103c66:	2b02      	cmp	r3, #2
 8103c68:	d014      	beq.n	8103c94 <ADC_ConversionStop+0xcc>
    {
      /* Software is allowed to set ADSTP only when ADSTART=1 and ADDIS=0 */
      if (LL_ADC_REG_IsConversionOngoing(hadc->Instance) != 0UL)
 8103c6a:	687b      	ldr	r3, [r7, #4]
 8103c6c:	681b      	ldr	r3, [r3, #0]
 8103c6e:	4618      	mov	r0, r3
 8103c70:	f7ff f87e 	bl	8102d70 <LL_ADC_REG_IsConversionOngoing>
 8103c74:	4603      	mov	r3, r0
 8103c76:	2b00      	cmp	r3, #0
 8103c78:	d00c      	beq.n	8103c94 <ADC_ConversionStop+0xcc>
      {
        if (LL_ADC_IsDisableOngoing(hadc->Instance) == 0UL)
 8103c7a:	687b      	ldr	r3, [r7, #4]
 8103c7c:	681b      	ldr	r3, [r3, #0]
 8103c7e:	4618      	mov	r0, r3
 8103c80:	f7ff f83b 	bl	8102cfa <LL_ADC_IsDisableOngoing>
 8103c84:	4603      	mov	r3, r0
 8103c86:	2b00      	cmp	r3, #0
 8103c88:	d104      	bne.n	8103c94 <ADC_ConversionStop+0xcc>
        {
          /* Stop ADC group regular conversion */
          LL_ADC_REG_StopConversion(hadc->Instance);
 8103c8a:	687b      	ldr	r3, [r7, #4]
 8103c8c:	681b      	ldr	r3, [r3, #0]
 8103c8e:	4618      	mov	r0, r3
 8103c90:	f7ff f85a 	bl	8102d48 <LL_ADC_REG_StopConversion>
        }
      }
    }

    /* Stop potential conversion on going on ADC group injected */
    if (conversion_group_reassigned != ADC_REGULAR_GROUP)
 8103c94:	69bb      	ldr	r3, [r7, #24]
 8103c96:	2b01      	cmp	r3, #1
 8103c98:	d014      	beq.n	8103cc4 <ADC_ConversionStop+0xfc>
    {
      /* Software is allowed to set JADSTP only when JADSTART=1 and ADDIS=0 */
      if (LL_ADC_INJ_IsConversionOngoing(hadc->Instance) != 0UL)
 8103c9a:	687b      	ldr	r3, [r7, #4]
 8103c9c:	681b      	ldr	r3, [r3, #0]
 8103c9e:	4618      	mov	r0, r3
 8103ca0:	f7ff f88d 	bl	8102dbe <LL_ADC_INJ_IsConversionOngoing>
 8103ca4:	4603      	mov	r3, r0
 8103ca6:	2b00      	cmp	r3, #0
 8103ca8:	d00c      	beq.n	8103cc4 <ADC_ConversionStop+0xfc>
      {
        if (LL_ADC_IsDisableOngoing(hadc->Instance) == 0UL)
 8103caa:	687b      	ldr	r3, [r7, #4]
 8103cac:	681b      	ldr	r3, [r3, #0]
 8103cae:	4618      	mov	r0, r3
 8103cb0:	f7ff f823 	bl	8102cfa <LL_ADC_IsDisableOngoing>
 8103cb4:	4603      	mov	r3, r0
 8103cb6:	2b00      	cmp	r3, #0
 8103cb8:	d104      	bne.n	8103cc4 <ADC_ConversionStop+0xfc>
        {
          /* Stop ADC group injected conversion */
          LL_ADC_INJ_StopConversion(hadc->Instance);
 8103cba:	687b      	ldr	r3, [r7, #4]
 8103cbc:	681b      	ldr	r3, [r3, #0]
 8103cbe:	4618      	mov	r0, r3
 8103cc0:	f7ff f869 	bl	8102d96 <LL_ADC_INJ_StopConversion>
        }
      }
    }

    /* Selection of start and stop bits with respect to the regular or injected group */
    switch (conversion_group_reassigned)
 8103cc4:	69bb      	ldr	r3, [r7, #24]
 8103cc6:	2b02      	cmp	r3, #2
 8103cc8:	d005      	beq.n	8103cd6 <ADC_ConversionStop+0x10e>
 8103cca:	69bb      	ldr	r3, [r7, #24]
 8103ccc:	2b03      	cmp	r3, #3
 8103cce:	d105      	bne.n	8103cdc <ADC_ConversionStop+0x114>
    {
      case ADC_REGULAR_INJECTED_GROUP:
        tmp_ADC_CR_ADSTART_JADSTART = (ADC_CR_ADSTART | ADC_CR_JADSTART);
 8103cd0:	230c      	movs	r3, #12
 8103cd2:	617b      	str	r3, [r7, #20]
        break;
 8103cd4:	e005      	b.n	8103ce2 <ADC_ConversionStop+0x11a>
      case ADC_INJECTED_GROUP:
        tmp_ADC_CR_ADSTART_JADSTART = ADC_CR_JADSTART;
 8103cd6:	2308      	movs	r3, #8
 8103cd8:	617b      	str	r3, [r7, #20]
        break;
 8103cda:	e002      	b.n	8103ce2 <ADC_ConversionStop+0x11a>
      /* Case ADC_REGULAR_GROUP only*/
      default:
        tmp_ADC_CR_ADSTART_JADSTART = ADC_CR_ADSTART;
 8103cdc:	2304      	movs	r3, #4
 8103cde:	617b      	str	r3, [r7, #20]
        break;
 8103ce0:	bf00      	nop
    }

    /* Wait for conversion effectively stopped */
    tickstart = HAL_GetTick();
 8103ce2:	f7fe fe13 	bl	810290c <HAL_GetTick>
 8103ce6:	60b8      	str	r0, [r7, #8]

    while ((hadc->Instance->CR & tmp_ADC_CR_ADSTART_JADSTART) != 0UL)
 8103ce8:	e01b      	b.n	8103d22 <ADC_ConversionStop+0x15a>
    {
      if ((HAL_GetTick() - tickstart) > ADC_STOP_CONVERSION_TIMEOUT)
 8103cea:	f7fe fe0f 	bl	810290c <HAL_GetTick>
 8103cee:	4602      	mov	r2, r0
 8103cf0:	68bb      	ldr	r3, [r7, #8]
 8103cf2:	1ad3      	subs	r3, r2, r3
 8103cf4:	2b05      	cmp	r3, #5
 8103cf6:	d914      	bls.n	8103d22 <ADC_ConversionStop+0x15a>
      {
        /* New check to avoid false timeout detection in case of preemption */
        if((hadc->Instance->CR & tmp_ADC_CR_ADSTART_JADSTART) != 0UL)
 8103cf8:	687b      	ldr	r3, [r7, #4]
 8103cfa:	681b      	ldr	r3, [r3, #0]
 8103cfc:	689a      	ldr	r2, [r3, #8]
 8103cfe:	697b      	ldr	r3, [r7, #20]
 8103d00:	4013      	ands	r3, r2
 8103d02:	2b00      	cmp	r3, #0
 8103d04:	d00d      	beq.n	8103d22 <ADC_ConversionStop+0x15a>
        {
          /* Update ADC state machine to error */
          SET_BIT(hadc->State, HAL_ADC_STATE_ERROR_INTERNAL);
 8103d06:	687b      	ldr	r3, [r7, #4]
 8103d08:	6d5b      	ldr	r3, [r3, #84]	; 0x54
 8103d0a:	f043 0210 	orr.w	r2, r3, #16
 8103d0e:	687b      	ldr	r3, [r7, #4]
 8103d10:	655a      	str	r2, [r3, #84]	; 0x54

          /* Set ADC error code to ADC peripheral internal error */
          SET_BIT(hadc->ErrorCode, HAL_ADC_ERROR_INTERNAL);
 8103d12:	687b      	ldr	r3, [r7, #4]
 8103d14:	6d9b      	ldr	r3, [r3, #88]	; 0x58
 8103d16:	f043 0201 	orr.w	r2, r3, #1
 8103d1a:	687b      	ldr	r3, [r7, #4]
 8103d1c:	659a      	str	r2, [r3, #88]	; 0x58

          return HAL_ERROR;
 8103d1e:	2301      	movs	r3, #1
 8103d20:	e007      	b.n	8103d32 <ADC_ConversionStop+0x16a>
    while ((hadc->Instance->CR & tmp_ADC_CR_ADSTART_JADSTART) != 0UL)
 8103d22:	687b      	ldr	r3, [r7, #4]
 8103d24:	681b      	ldr	r3, [r3, #0]
 8103d26:	689a      	ldr	r2, [r3, #8]
 8103d28:	697b      	ldr	r3, [r7, #20]
 8103d2a:	4013      	ands	r3, r2
 8103d2c:	2b00      	cmp	r3, #0
 8103d2e:	d1dc      	bne.n	8103cea <ADC_ConversionStop+0x122>
    }

  }

  /* Return HAL status */
  return HAL_OK;
 8103d30:	2300      	movs	r3, #0
}
 8103d32:	4618      	mov	r0, r3
 8103d34:	3720      	adds	r7, #32
 8103d36:	46bd      	mov	sp, r7
 8103d38:	bd80      	pop	{r7, pc}
 8103d3a:	bf00      	nop
 8103d3c:	000cdbff 	.word	0x000cdbff

08103d40 <ADC_Enable>:
  *         and voltage regulator must be enabled (done into HAL_ADC_Init()).
  * @param hadc ADC handle
  * @retval HAL status.
  */
HAL_StatusTypeDef ADC_Enable(ADC_HandleTypeDef *hadc)
{
 8103d40:	b580      	push	{r7, lr}
 8103d42:	b084      	sub	sp, #16
 8103d44:	af00      	add	r7, sp, #0
 8103d46:	6078      	str	r0, [r7, #4]

  /* ADC enable and wait for ADC ready (in case of ADC is disabled or         */
  /* enabling phase not yet completed: flag ADC ready not yet set).           */
  /* Timeout implemented to not be stuck if ADC cannot be enabled (possible   */
  /* causes: ADC clock not running, ...).                                     */
  if (LL_ADC_IsEnabled(hadc->Instance) == 0UL)
 8103d48:	687b      	ldr	r3, [r7, #4]
 8103d4a:	681b      	ldr	r3, [r3, #0]
 8103d4c:	4618      	mov	r0, r3
 8103d4e:	f7fe ffc1 	bl	8102cd4 <LL_ADC_IsEnabled>
 8103d52:	4603      	mov	r3, r0
 8103d54:	2b00      	cmp	r3, #0
 8103d56:	d16e      	bne.n	8103e36 <ADC_Enable+0xf6>
  {
    /* Check if conditions to enable the ADC are fulfilled */
    if ((hadc->Instance->CR & (ADC_CR_ADCAL | ADC_CR_JADSTP | ADC_CR_ADSTP | ADC_CR_JADSTART | ADC_CR_ADSTART | ADC_CR_ADDIS | ADC_CR_ADEN)) != 0UL)
 8103d58:	687b      	ldr	r3, [r7, #4]
 8103d5a:	681b      	ldr	r3, [r3, #0]
 8103d5c:	689a      	ldr	r2, [r3, #8]
 8103d5e:	4b38      	ldr	r3, [pc, #224]	; (8103e40 <ADC_Enable+0x100>)
 8103d60:	4013      	ands	r3, r2
 8103d62:	2b00      	cmp	r3, #0
 8103d64:	d00d      	beq.n	8103d82 <ADC_Enable+0x42>
    {
      /* Update ADC state machine to error */
      SET_BIT(hadc->State, HAL_ADC_STATE_ERROR_INTERNAL);
 8103d66:	687b      	ldr	r3, [r7, #4]
 8103d68:	6d5b      	ldr	r3, [r3, #84]	; 0x54
 8103d6a:	f043 0210 	orr.w	r2, r3, #16
 8103d6e:	687b      	ldr	r3, [r7, #4]
 8103d70:	655a      	str	r2, [r3, #84]	; 0x54

      /* Set ADC error code to ADC peripheral internal error */
      SET_BIT(hadc->ErrorCode, HAL_ADC_ERROR_INTERNAL);
 8103d72:	687b      	ldr	r3, [r7, #4]
 8103d74:	6d9b      	ldr	r3, [r3, #88]	; 0x58
 8103d76:	f043 0201 	orr.w	r2, r3, #1
 8103d7a:	687b      	ldr	r3, [r7, #4]
 8103d7c:	659a      	str	r2, [r3, #88]	; 0x58

      return HAL_ERROR;
 8103d7e:	2301      	movs	r3, #1
 8103d80:	e05a      	b.n	8103e38 <ADC_Enable+0xf8>
    }

    /* Enable the ADC peripheral */
    LL_ADC_Enable(hadc->Instance);
 8103d82:	687b      	ldr	r3, [r7, #4]
 8103d84:	681b      	ldr	r3, [r3, #0]
 8103d86:	4618      	mov	r0, r3
 8103d88:	f7fe ff7c 	bl	8102c84 <LL_ADC_Enable>

    /* Wait for ADC effectively enabled */
    tickstart = HAL_GetTick();
 8103d8c:	f7fe fdbe 	bl	810290c <HAL_GetTick>
 8103d90:	60f8      	str	r0, [r7, #12]

    /* Poll for ADC ready flag raised except case of multimode enabled
       and ADC slave selected. */
    uint32_t tmp_multimode_config = LL_ADC_GetMultimode(__LL_ADC_COMMON_INSTANCE(hadc->Instance));
 8103d92:	687b      	ldr	r3, [r7, #4]
 8103d94:	681b      	ldr	r3, [r3, #0]
 8103d96:	4a2b      	ldr	r2, [pc, #172]	; (8103e44 <ADC_Enable+0x104>)
 8103d98:	4293      	cmp	r3, r2
 8103d9a:	d004      	beq.n	8103da6 <ADC_Enable+0x66>
 8103d9c:	687b      	ldr	r3, [r7, #4]
 8103d9e:	681b      	ldr	r3, [r3, #0]
 8103da0:	4a29      	ldr	r2, [pc, #164]	; (8103e48 <ADC_Enable+0x108>)
 8103da2:	4293      	cmp	r3, r2
 8103da4:	d101      	bne.n	8103daa <ADC_Enable+0x6a>
 8103da6:	4b29      	ldr	r3, [pc, #164]	; (8103e4c <ADC_Enable+0x10c>)
 8103da8:	e000      	b.n	8103dac <ADC_Enable+0x6c>
 8103daa:	4b29      	ldr	r3, [pc, #164]	; (8103e50 <ADC_Enable+0x110>)
 8103dac:	4618      	mov	r0, r3
 8103dae:	f7fe feff 	bl	8102bb0 <LL_ADC_GetMultimode>
 8103db2:	60b8      	str	r0, [r7, #8]
    if ((__LL_ADC_MULTI_INSTANCE_MASTER(hadc->Instance) == hadc->Instance)
 8103db4:	687b      	ldr	r3, [r7, #4]
 8103db6:	681b      	ldr	r3, [r3, #0]
 8103db8:	4a23      	ldr	r2, [pc, #140]	; (8103e48 <ADC_Enable+0x108>)
 8103dba:	4293      	cmp	r3, r2
 8103dbc:	d002      	beq.n	8103dc4 <ADC_Enable+0x84>
 8103dbe:	687b      	ldr	r3, [r7, #4]
 8103dc0:	681b      	ldr	r3, [r3, #0]
 8103dc2:	e000      	b.n	8103dc6 <ADC_Enable+0x86>
 8103dc4:	4b1f      	ldr	r3, [pc, #124]	; (8103e44 <ADC_Enable+0x104>)
 8103dc6:	687a      	ldr	r2, [r7, #4]
 8103dc8:	6812      	ldr	r2, [r2, #0]
 8103dca:	4293      	cmp	r3, r2
 8103dcc:	d02c      	beq.n	8103e28 <ADC_Enable+0xe8>
        || (tmp_multimode_config == LL_ADC_MULTI_INDEPENDENT)
 8103dce:	68bb      	ldr	r3, [r7, #8]
 8103dd0:	2b00      	cmp	r3, #0
 8103dd2:	d130      	bne.n	8103e36 <ADC_Enable+0xf6>
       )
    {
      while (__HAL_ADC_GET_FLAG(hadc, ADC_FLAG_RDY) == 0UL)
 8103dd4:	e028      	b.n	8103e28 <ADC_Enable+0xe8>
            The workaround is to continue setting ADEN until ADRDY is becomes 1.
            Additionally, ADC_ENABLE_TIMEOUT is defined to encompass this
            4 ADC clock cycle duration */
        /* Note: Test of ADC enabled required due to hardware constraint to     */
        /*       not enable ADC if already enabled.                             */
        if (LL_ADC_IsEnabled(hadc->Instance) == 0UL)
 8103dd6:	687b      	ldr	r3, [r7, #4]
 8103dd8:	681b      	ldr	r3, [r3, #0]
 8103dda:	4618      	mov	r0, r3
 8103ddc:	f7fe ff7a 	bl	8102cd4 <LL_ADC_IsEnabled>
 8103de0:	4603      	mov	r3, r0
 8103de2:	2b00      	cmp	r3, #0
 8103de4:	d104      	bne.n	8103df0 <ADC_Enable+0xb0>
        {
          LL_ADC_Enable(hadc->Instance);
 8103de6:	687b      	ldr	r3, [r7, #4]
 8103de8:	681b      	ldr	r3, [r3, #0]
 8103dea:	4618      	mov	r0, r3
 8103dec:	f7fe ff4a 	bl	8102c84 <LL_ADC_Enable>
        }

        if ((HAL_GetTick() - tickstart) > ADC_ENABLE_TIMEOUT)
 8103df0:	f7fe fd8c 	bl	810290c <HAL_GetTick>
 8103df4:	4602      	mov	r2, r0
 8103df6:	68fb      	ldr	r3, [r7, #12]
 8103df8:	1ad3      	subs	r3, r2, r3
 8103dfa:	2b02      	cmp	r3, #2
 8103dfc:	d914      	bls.n	8103e28 <ADC_Enable+0xe8>
        {
          /* New check to avoid false timeout detection in case of preemption */
          if (__HAL_ADC_GET_FLAG(hadc, ADC_FLAG_RDY) == 0UL)
 8103dfe:	687b      	ldr	r3, [r7, #4]
 8103e00:	681b      	ldr	r3, [r3, #0]
 8103e02:	681b      	ldr	r3, [r3, #0]
 8103e04:	f003 0301 	and.w	r3, r3, #1
 8103e08:	2b01      	cmp	r3, #1
 8103e0a:	d00d      	beq.n	8103e28 <ADC_Enable+0xe8>
          {
            /* Update ADC state machine to error */
            SET_BIT(hadc->State, HAL_ADC_STATE_ERROR_INTERNAL);
 8103e0c:	687b      	ldr	r3, [r7, #4]
 8103e0e:	6d5b      	ldr	r3, [r3, #84]	; 0x54
 8103e10:	f043 0210 	orr.w	r2, r3, #16
 8103e14:	687b      	ldr	r3, [r7, #4]
 8103e16:	655a      	str	r2, [r3, #84]	; 0x54

            /* Set ADC error code to ADC peripheral internal error */
            SET_BIT(hadc->ErrorCode, HAL_ADC_ERROR_INTERNAL);
 8103e18:	687b      	ldr	r3, [r7, #4]
 8103e1a:	6d9b      	ldr	r3, [r3, #88]	; 0x58
 8103e1c:	f043 0201 	orr.w	r2, r3, #1
 8103e20:	687b      	ldr	r3, [r7, #4]
 8103e22:	659a      	str	r2, [r3, #88]	; 0x58

            return HAL_ERROR;
 8103e24:	2301      	movs	r3, #1
 8103e26:	e007      	b.n	8103e38 <ADC_Enable+0xf8>
      while (__HAL_ADC_GET_FLAG(hadc, ADC_FLAG_RDY) == 0UL)
 8103e28:	687b      	ldr	r3, [r7, #4]
 8103e2a:	681b      	ldr	r3, [r3, #0]
 8103e2c:	681b      	ldr	r3, [r3, #0]
 8103e2e:	f003 0301 	and.w	r3, r3, #1
 8103e32:	2b01      	cmp	r3, #1
 8103e34:	d1cf      	bne.n	8103dd6 <ADC_Enable+0x96>
      }
    }
  }

  /* Return HAL status */
  return HAL_OK;
 8103e36:	2300      	movs	r3, #0
}
 8103e38:	4618      	mov	r0, r3
 8103e3a:	3710      	adds	r7, #16
 8103e3c:	46bd      	mov	sp, r7
 8103e3e:	bd80      	pop	{r7, pc}
 8103e40:	8000003f 	.word	0x8000003f
 8103e44:	40022000 	.word	0x40022000
 8103e48:	40022100 	.word	0x40022100
 8103e4c:	40022300 	.word	0x40022300
 8103e50:	58026300 	.word	0x58026300

08103e54 <ADC_Disable>:
  *         stopped.
  * @param hadc ADC handle
  * @retval HAL status.
  */
HAL_StatusTypeDef ADC_Disable(ADC_HandleTypeDef *hadc)
{
 8103e54:	b580      	push	{r7, lr}
 8103e56:	b084      	sub	sp, #16
 8103e58:	af00      	add	r7, sp, #0
 8103e5a:	6078      	str	r0, [r7, #4]
  uint32_t tickstart;
  const uint32_t tmp_adc_is_disable_on_going = LL_ADC_IsDisableOngoing(hadc->Instance);
 8103e5c:	687b      	ldr	r3, [r7, #4]
 8103e5e:	681b      	ldr	r3, [r3, #0]
 8103e60:	4618      	mov	r0, r3
 8103e62:	f7fe ff4a 	bl	8102cfa <LL_ADC_IsDisableOngoing>
 8103e66:	60f8      	str	r0, [r7, #12]

  /* Verification if ADC is not already disabled:                             */
  /* Note: forbidden to disable ADC (set bit ADC_CR_ADDIS) if ADC is already  */
  /*       disabled.                                                          */
  if ((LL_ADC_IsEnabled(hadc->Instance) != 0UL)
 8103e68:	687b      	ldr	r3, [r7, #4]
 8103e6a:	681b      	ldr	r3, [r3, #0]
 8103e6c:	4618      	mov	r0, r3
 8103e6e:	f7fe ff31 	bl	8102cd4 <LL_ADC_IsEnabled>
 8103e72:	4603      	mov	r3, r0
 8103e74:	2b00      	cmp	r3, #0
 8103e76:	d047      	beq.n	8103f08 <ADC_Disable+0xb4>
      && (tmp_adc_is_disable_on_going == 0UL)
 8103e78:	68fb      	ldr	r3, [r7, #12]
 8103e7a:	2b00      	cmp	r3, #0
 8103e7c:	d144      	bne.n	8103f08 <ADC_Disable+0xb4>
     )
  {
    /* Check if conditions to disable the ADC are fulfilled */
    if ((hadc->Instance->CR & (ADC_CR_JADSTART | ADC_CR_ADSTART | ADC_CR_ADEN)) == ADC_CR_ADEN)
 8103e7e:	687b      	ldr	r3, [r7, #4]
 8103e80:	681b      	ldr	r3, [r3, #0]
 8103e82:	689b      	ldr	r3, [r3, #8]
 8103e84:	f003 030d 	and.w	r3, r3, #13
 8103e88:	2b01      	cmp	r3, #1
 8103e8a:	d10c      	bne.n	8103ea6 <ADC_Disable+0x52>
    {
      /* Disable the ADC peripheral */
      LL_ADC_Disable(hadc->Instance);
 8103e8c:	687b      	ldr	r3, [r7, #4]
 8103e8e:	681b      	ldr	r3, [r3, #0]
 8103e90:	4618      	mov	r0, r3
 8103e92:	f7fe ff0b 	bl	8102cac <LL_ADC_Disable>
      __HAL_ADC_CLEAR_FLAG(hadc, (ADC_FLAG_EOSMP | ADC_FLAG_RDY));
 8103e96:	687b      	ldr	r3, [r7, #4]
 8103e98:	681b      	ldr	r3, [r3, #0]
 8103e9a:	2203      	movs	r2, #3
 8103e9c:	601a      	str	r2, [r3, #0]
      return HAL_ERROR;
    }

    /* Wait for ADC effectively disabled */
    /* Get tick count */
    tickstart = HAL_GetTick();
 8103e9e:	f7fe fd35 	bl	810290c <HAL_GetTick>
 8103ea2:	60b8      	str	r0, [r7, #8]

    while ((hadc->Instance->CR & ADC_CR_ADEN) != 0UL)
 8103ea4:	e029      	b.n	8103efa <ADC_Disable+0xa6>
      SET_BIT(hadc->State, HAL_ADC_STATE_ERROR_INTERNAL);
 8103ea6:	687b      	ldr	r3, [r7, #4]
 8103ea8:	6d5b      	ldr	r3, [r3, #84]	; 0x54
 8103eaa:	f043 0210 	orr.w	r2, r3, #16
 8103eae:	687b      	ldr	r3, [r7, #4]
 8103eb0:	655a      	str	r2, [r3, #84]	; 0x54
      SET_BIT(hadc->ErrorCode, HAL_ADC_ERROR_INTERNAL);
 8103eb2:	687b      	ldr	r3, [r7, #4]
 8103eb4:	6d9b      	ldr	r3, [r3, #88]	; 0x58
 8103eb6:	f043 0201 	orr.w	r2, r3, #1
 8103eba:	687b      	ldr	r3, [r7, #4]
 8103ebc:	659a      	str	r2, [r3, #88]	; 0x58
      return HAL_ERROR;
 8103ebe:	2301      	movs	r3, #1
 8103ec0:	e023      	b.n	8103f0a <ADC_Disable+0xb6>
    {
      if ((HAL_GetTick() - tickstart) > ADC_DISABLE_TIMEOUT)
 8103ec2:	f7fe fd23 	bl	810290c <HAL_GetTick>
 8103ec6:	4602      	mov	r2, r0
 8103ec8:	68bb      	ldr	r3, [r7, #8]
 8103eca:	1ad3      	subs	r3, r2, r3
 8103ecc:	2b02      	cmp	r3, #2
 8103ece:	d914      	bls.n	8103efa <ADC_Disable+0xa6>
      {
        /* New check to avoid false timeout detection in case of preemption */
        if ((hadc->Instance->CR & ADC_CR_ADEN) != 0UL)
 8103ed0:	687b      	ldr	r3, [r7, #4]
 8103ed2:	681b      	ldr	r3, [r3, #0]
 8103ed4:	689b      	ldr	r3, [r3, #8]
 8103ed6:	f003 0301 	and.w	r3, r3, #1
 8103eda:	2b00      	cmp	r3, #0
 8103edc:	d00d      	beq.n	8103efa <ADC_Disable+0xa6>
        {
          /* Update ADC state machine to error */
          SET_BIT(hadc->State, HAL_ADC_STATE_ERROR_INTERNAL);
 8103ede:	687b      	ldr	r3, [r7, #4]
 8103ee0:	6d5b      	ldr	r3, [r3, #84]	; 0x54
 8103ee2:	f043 0210 	orr.w	r2, r3, #16
 8103ee6:	687b      	ldr	r3, [r7, #4]
 8103ee8:	655a      	str	r2, [r3, #84]	; 0x54

          /* Set ADC error code to ADC peripheral internal error */
          SET_BIT(hadc->ErrorCode, HAL_ADC_ERROR_INTERNAL);
 8103eea:	687b      	ldr	r3, [r7, #4]
 8103eec:	6d9b      	ldr	r3, [r3, #88]	; 0x58
 8103eee:	f043 0201 	orr.w	r2, r3, #1
 8103ef2:	687b      	ldr	r3, [r7, #4]
 8103ef4:	659a      	str	r2, [r3, #88]	; 0x58

          return HAL_ERROR;
 8103ef6:	2301      	movs	r3, #1
 8103ef8:	e007      	b.n	8103f0a <ADC_Disable+0xb6>
    while ((hadc->Instance->CR & ADC_CR_ADEN) != 0UL)
 8103efa:	687b      	ldr	r3, [r7, #4]
 8103efc:	681b      	ldr	r3, [r3, #0]
 8103efe:	689b      	ldr	r3, [r3, #8]
 8103f00:	f003 0301 	and.w	r3, r3, #1
 8103f04:	2b00      	cmp	r3, #0
 8103f06:	d1dc      	bne.n	8103ec2 <ADC_Disable+0x6e>
      }
    }
  }

  /* Return HAL status */
  return HAL_OK;
 8103f08:	2300      	movs	r3, #0
}
 8103f0a:	4618      	mov	r0, r3
 8103f0c:	3710      	adds	r7, #16
 8103f0e:	46bd      	mov	sp, r7
 8103f10:	bd80      	pop	{r7, pc}
	...

08103f14 <ADC_ConfigureBoostMode>:
  *         stopped.
  * @param  hadc ADC handle
  * @retval None.
  */
void ADC_ConfigureBoostMode(ADC_HandleTypeDef *hadc)
{
 8103f14:	b580      	push	{r7, lr}
 8103f16:	b084      	sub	sp, #16
 8103f18:	af00      	add	r7, sp, #0
 8103f1a:	6078      	str	r0, [r7, #4]
  uint32_t freq;
  if (ADC_IS_SYNCHRONOUS_CLOCK_MODE(hadc))
 8103f1c:	687b      	ldr	r3, [r7, #4]
 8103f1e:	681b      	ldr	r3, [r3, #0]
 8103f20:	4a79      	ldr	r2, [pc, #484]	; (8104108 <ADC_ConfigureBoostMode+0x1f4>)
 8103f22:	4293      	cmp	r3, r2
 8103f24:	d004      	beq.n	8103f30 <ADC_ConfigureBoostMode+0x1c>
 8103f26:	687b      	ldr	r3, [r7, #4]
 8103f28:	681b      	ldr	r3, [r3, #0]
 8103f2a:	4a78      	ldr	r2, [pc, #480]	; (810410c <ADC_ConfigureBoostMode+0x1f8>)
 8103f2c:	4293      	cmp	r3, r2
 8103f2e:	d109      	bne.n	8103f44 <ADC_ConfigureBoostMode+0x30>
 8103f30:	4b77      	ldr	r3, [pc, #476]	; (8104110 <ADC_ConfigureBoostMode+0x1fc>)
 8103f32:	689b      	ldr	r3, [r3, #8]
 8103f34:	f403 3340 	and.w	r3, r3, #196608	; 0x30000
 8103f38:	2b00      	cmp	r3, #0
 8103f3a:	bf14      	ite	ne
 8103f3c:	2301      	movne	r3, #1
 8103f3e:	2300      	moveq	r3, #0
 8103f40:	b2db      	uxtb	r3, r3
 8103f42:	e008      	b.n	8103f56 <ADC_ConfigureBoostMode+0x42>
 8103f44:	4b73      	ldr	r3, [pc, #460]	; (8104114 <ADC_ConfigureBoostMode+0x200>)
 8103f46:	689b      	ldr	r3, [r3, #8]
 8103f48:	f403 3340 	and.w	r3, r3, #196608	; 0x30000
 8103f4c:	2b00      	cmp	r3, #0
 8103f4e:	bf14      	ite	ne
 8103f50:	2301      	movne	r3, #1
 8103f52:	2300      	moveq	r3, #0
 8103f54:	b2db      	uxtb	r3, r3
 8103f56:	2b00      	cmp	r3, #0
 8103f58:	d01c      	beq.n	8103f94 <ADC_ConfigureBoostMode+0x80>
  {
    freq = HAL_RCC_GetHCLKFreq();
 8103f5a:	f000 ff2b 	bl	8104db4 <HAL_RCC_GetHCLKFreq>
 8103f5e:	60f8      	str	r0, [r7, #12]
    switch (hadc->Init.ClockPrescaler)
 8103f60:	687b      	ldr	r3, [r7, #4]
 8103f62:	685b      	ldr	r3, [r3, #4]
 8103f64:	f5b3 3f40 	cmp.w	r3, #196608	; 0x30000
 8103f68:	d010      	beq.n	8103f8c <ADC_ConfigureBoostMode+0x78>
 8103f6a:	f5b3 3f40 	cmp.w	r3, #196608	; 0x30000
 8103f6e:	d871      	bhi.n	8104054 <ADC_ConfigureBoostMode+0x140>
 8103f70:	f5b3 3f80 	cmp.w	r3, #65536	; 0x10000
 8103f74:	d002      	beq.n	8103f7c <ADC_ConfigureBoostMode+0x68>
 8103f76:	f5b3 3f00 	cmp.w	r3, #131072	; 0x20000
 8103f7a:	d16b      	bne.n	8104054 <ADC_ConfigureBoostMode+0x140>
    {
      case ADC_CLOCK_SYNC_PCLK_DIV1:
      case ADC_CLOCK_SYNC_PCLK_DIV2:
        freq /= (hadc->Init.ClockPrescaler >> ADC_CCR_CKMODE_Pos);
 8103f7c:	687b      	ldr	r3, [r7, #4]
 8103f7e:	685b      	ldr	r3, [r3, #4]
 8103f80:	0c1b      	lsrs	r3, r3, #16
 8103f82:	68fa      	ldr	r2, [r7, #12]
 8103f84:	fbb2 f3f3 	udiv	r3, r2, r3
 8103f88:	60fb      	str	r3, [r7, #12]
        break;
 8103f8a:	e066      	b.n	810405a <ADC_ConfigureBoostMode+0x146>
      case ADC_CLOCK_SYNC_PCLK_DIV4:
        freq /= 4UL;
 8103f8c:	68fb      	ldr	r3, [r7, #12]
 8103f8e:	089b      	lsrs	r3, r3, #2
 8103f90:	60fb      	str	r3, [r7, #12]
        break;
 8103f92:	e062      	b.n	810405a <ADC_ConfigureBoostMode+0x146>
        break;
    }
  }
  else
  {
    freq = HAL_RCCEx_GetPeriphCLKFreq(RCC_PERIPHCLK_ADC);
 8103f94:	f44f 2000 	mov.w	r0, #524288	; 0x80000
 8103f98:	f001 feb0 	bl	8105cfc <HAL_RCCEx_GetPeriphCLKFreq>
 8103f9c:	60f8      	str	r0, [r7, #12]
    switch (hadc->Init.ClockPrescaler)
 8103f9e:	687b      	ldr	r3, [r7, #4]
 8103fa0:	685b      	ldr	r3, [r3, #4]
 8103fa2:	f5b3 1f30 	cmp.w	r3, #2883584	; 0x2c0000
 8103fa6:	d051      	beq.n	810404c <ADC_ConfigureBoostMode+0x138>
 8103fa8:	f5b3 1f30 	cmp.w	r3, #2883584	; 0x2c0000
 8103fac:	d854      	bhi.n	8104058 <ADC_ConfigureBoostMode+0x144>
 8103fae:	f5b3 1f20 	cmp.w	r3, #2621440	; 0x280000
 8103fb2:	d047      	beq.n	8104044 <ADC_ConfigureBoostMode+0x130>
 8103fb4:	f5b3 1f20 	cmp.w	r3, #2621440	; 0x280000
 8103fb8:	d84e      	bhi.n	8104058 <ADC_ConfigureBoostMode+0x144>
 8103fba:	f5b3 1f10 	cmp.w	r3, #2359296	; 0x240000
 8103fbe:	d03d      	beq.n	810403c <ADC_ConfigureBoostMode+0x128>
 8103fc0:	f5b3 1f10 	cmp.w	r3, #2359296	; 0x240000
 8103fc4:	d848      	bhi.n	8104058 <ADC_ConfigureBoostMode+0x144>
 8103fc6:	f5b3 1f00 	cmp.w	r3, #2097152	; 0x200000
 8103fca:	d033      	beq.n	8104034 <ADC_ConfigureBoostMode+0x120>
 8103fcc:	f5b3 1f00 	cmp.w	r3, #2097152	; 0x200000
 8103fd0:	d842      	bhi.n	8104058 <ADC_ConfigureBoostMode+0x144>
 8103fd2:	f5b3 1fe0 	cmp.w	r3, #1835008	; 0x1c0000
 8103fd6:	d029      	beq.n	810402c <ADC_ConfigureBoostMode+0x118>
 8103fd8:	f5b3 1fe0 	cmp.w	r3, #1835008	; 0x1c0000
 8103fdc:	d83c      	bhi.n	8104058 <ADC_ConfigureBoostMode+0x144>
 8103fde:	f5b3 1fc0 	cmp.w	r3, #1572864	; 0x180000
 8103fe2:	d01a      	beq.n	810401a <ADC_ConfigureBoostMode+0x106>
 8103fe4:	f5b3 1fc0 	cmp.w	r3, #1572864	; 0x180000
 8103fe8:	d836      	bhi.n	8104058 <ADC_ConfigureBoostMode+0x144>
 8103fea:	f5b3 1fa0 	cmp.w	r3, #1310720	; 0x140000
 8103fee:	d014      	beq.n	810401a <ADC_ConfigureBoostMode+0x106>
 8103ff0:	f5b3 1fa0 	cmp.w	r3, #1310720	; 0x140000
 8103ff4:	d830      	bhi.n	8104058 <ADC_ConfigureBoostMode+0x144>
 8103ff6:	f5b3 1f80 	cmp.w	r3, #1048576	; 0x100000
 8103ffa:	d00e      	beq.n	810401a <ADC_ConfigureBoostMode+0x106>
 8103ffc:	f5b3 1f80 	cmp.w	r3, #1048576	; 0x100000
 8104000:	d82a      	bhi.n	8104058 <ADC_ConfigureBoostMode+0x144>
 8104002:	f5b3 2f40 	cmp.w	r3, #786432	; 0xc0000
 8104006:	d008      	beq.n	810401a <ADC_ConfigureBoostMode+0x106>
 8104008:	f5b3 2f40 	cmp.w	r3, #786432	; 0xc0000
 810400c:	d824      	bhi.n	8104058 <ADC_ConfigureBoostMode+0x144>
 810400e:	f5b3 2f80 	cmp.w	r3, #262144	; 0x40000
 8104012:	d002      	beq.n	810401a <ADC_ConfigureBoostMode+0x106>
 8104014:	f5b3 2f00 	cmp.w	r3, #524288	; 0x80000
 8104018:	d11e      	bne.n	8104058 <ADC_ConfigureBoostMode+0x144>
      case ADC_CLOCK_ASYNC_DIV4:
      case ADC_CLOCK_ASYNC_DIV6:
      case ADC_CLOCK_ASYNC_DIV8:
      case ADC_CLOCK_ASYNC_DIV10:
      case ADC_CLOCK_ASYNC_DIV12:
        freq /= ((hadc->Init.ClockPrescaler >> ADC_CCR_PRESC_Pos) << 1UL);
 810401a:	687b      	ldr	r3, [r7, #4]
 810401c:	685b      	ldr	r3, [r3, #4]
 810401e:	0c9b      	lsrs	r3, r3, #18
 8104020:	005b      	lsls	r3, r3, #1
 8104022:	68fa      	ldr	r2, [r7, #12]
 8104024:	fbb2 f3f3 	udiv	r3, r2, r3
 8104028:	60fb      	str	r3, [r7, #12]
        break;
 810402a:	e016      	b.n	810405a <ADC_ConfigureBoostMode+0x146>
      case ADC_CLOCK_ASYNC_DIV16:
        freq /= 16UL;
 810402c:	68fb      	ldr	r3, [r7, #12]
 810402e:	091b      	lsrs	r3, r3, #4
 8104030:	60fb      	str	r3, [r7, #12]
        break;
 8104032:	e012      	b.n	810405a <ADC_ConfigureBoostMode+0x146>
      case ADC_CLOCK_ASYNC_DIV32:
        freq /= 32UL;
 8104034:	68fb      	ldr	r3, [r7, #12]
 8104036:	095b      	lsrs	r3, r3, #5
 8104038:	60fb      	str	r3, [r7, #12]
        break;
 810403a:	e00e      	b.n	810405a <ADC_ConfigureBoostMode+0x146>
      case ADC_CLOCK_ASYNC_DIV64:
        freq /= 64UL;
 810403c:	68fb      	ldr	r3, [r7, #12]
 810403e:	099b      	lsrs	r3, r3, #6
 8104040:	60fb      	str	r3, [r7, #12]
        break;
 8104042:	e00a      	b.n	810405a <ADC_ConfigureBoostMode+0x146>
      case ADC_CLOCK_ASYNC_DIV128:
        freq /= 128UL;
 8104044:	68fb      	ldr	r3, [r7, #12]
 8104046:	09db      	lsrs	r3, r3, #7
 8104048:	60fb      	str	r3, [r7, #12]
        break;
 810404a:	e006      	b.n	810405a <ADC_ConfigureBoostMode+0x146>
      case ADC_CLOCK_ASYNC_DIV256:
        freq /= 256UL;
 810404c:	68fb      	ldr	r3, [r7, #12]
 810404e:	0a1b      	lsrs	r3, r3, #8
 8104050:	60fb      	str	r3, [r7, #12]
        break;
 8104052:	e002      	b.n	810405a <ADC_ConfigureBoostMode+0x146>
        break;
 8104054:	bf00      	nop
 8104056:	e000      	b.n	810405a <ADC_ConfigureBoostMode+0x146>
      default:
        break;
 8104058:	bf00      	nop
  else /* if(freq > 25000000UL) */
  {
    MODIFY_REG(hadc->Instance->CR, ADC_CR_BOOST, ADC_CR_BOOST_1 | ADC_CR_BOOST_0);
  }
#else
  if (HAL_GetREVID() <= REV_ID_Y) /* STM32H7 silicon Rev.Y */
 810405a:	f7fe fc87 	bl	810296c <HAL_GetREVID>
 810405e:	4603      	mov	r3, r0
 8104060:	f241 0203 	movw	r2, #4099	; 0x1003
 8104064:	4293      	cmp	r3, r2
 8104066:	d815      	bhi.n	8104094 <ADC_ConfigureBoostMode+0x180>
  {
    if (freq > 20000000UL)
 8104068:	68fb      	ldr	r3, [r7, #12]
 810406a:	4a2b      	ldr	r2, [pc, #172]	; (8104118 <ADC_ConfigureBoostMode+0x204>)
 810406c:	4293      	cmp	r3, r2
 810406e:	d908      	bls.n	8104082 <ADC_ConfigureBoostMode+0x16e>
    {
      SET_BIT(hadc->Instance->CR, ADC_CR_BOOST_0);
 8104070:	687b      	ldr	r3, [r7, #4]
 8104072:	681b      	ldr	r3, [r3, #0]
 8104074:	689a      	ldr	r2, [r3, #8]
 8104076:	687b      	ldr	r3, [r7, #4]
 8104078:	681b      	ldr	r3, [r3, #0]
 810407a:	f442 7280 	orr.w	r2, r2, #256	; 0x100
 810407e:	609a      	str	r2, [r3, #8]
    {
      MODIFY_REG(hadc->Instance->CR, ADC_CR_BOOST, ADC_CR_BOOST_1 | ADC_CR_BOOST_0);
    }
  }
#endif /* ADC_VER_V5_3 */
}
 8104080:	e03e      	b.n	8104100 <ADC_ConfigureBoostMode+0x1ec>
      CLEAR_BIT(hadc->Instance->CR, ADC_CR_BOOST_0);
 8104082:	687b      	ldr	r3, [r7, #4]
 8104084:	681b      	ldr	r3, [r3, #0]
 8104086:	689a      	ldr	r2, [r3, #8]
 8104088:	687b      	ldr	r3, [r7, #4]
 810408a:	681b      	ldr	r3, [r3, #0]
 810408c:	f422 7280 	bic.w	r2, r2, #256	; 0x100
 8104090:	609a      	str	r2, [r3, #8]
}
 8104092:	e035      	b.n	8104100 <ADC_ConfigureBoostMode+0x1ec>
    freq /= 2U; /* divider by 2 for Rev.V */
 8104094:	68fb      	ldr	r3, [r7, #12]
 8104096:	085b      	lsrs	r3, r3, #1
 8104098:	60fb      	str	r3, [r7, #12]
    if (freq <= 6250000UL)
 810409a:	68fb      	ldr	r3, [r7, #12]
 810409c:	4a1f      	ldr	r2, [pc, #124]	; (810411c <ADC_ConfigureBoostMode+0x208>)
 810409e:	4293      	cmp	r3, r2
 81040a0:	d808      	bhi.n	81040b4 <ADC_ConfigureBoostMode+0x1a0>
      MODIFY_REG(hadc->Instance->CR, ADC_CR_BOOST, 0UL);
 81040a2:	687b      	ldr	r3, [r7, #4]
 81040a4:	681b      	ldr	r3, [r3, #0]
 81040a6:	689a      	ldr	r2, [r3, #8]
 81040a8:	687b      	ldr	r3, [r7, #4]
 81040aa:	681b      	ldr	r3, [r3, #0]
 81040ac:	f422 7240 	bic.w	r2, r2, #768	; 0x300
 81040b0:	609a      	str	r2, [r3, #8]
}
 81040b2:	e025      	b.n	8104100 <ADC_ConfigureBoostMode+0x1ec>
    else if (freq <= 12500000UL)
 81040b4:	68fb      	ldr	r3, [r7, #12]
 81040b6:	4a1a      	ldr	r2, [pc, #104]	; (8104120 <ADC_ConfigureBoostMode+0x20c>)
 81040b8:	4293      	cmp	r3, r2
 81040ba:	d80a      	bhi.n	81040d2 <ADC_ConfigureBoostMode+0x1be>
      MODIFY_REG(hadc->Instance->CR, ADC_CR_BOOST, ADC_CR_BOOST_0);
 81040bc:	687b      	ldr	r3, [r7, #4]
 81040be:	681b      	ldr	r3, [r3, #0]
 81040c0:	689b      	ldr	r3, [r3, #8]
 81040c2:	f423 7240 	bic.w	r2, r3, #768	; 0x300
 81040c6:	687b      	ldr	r3, [r7, #4]
 81040c8:	681b      	ldr	r3, [r3, #0]
 81040ca:	f442 7280 	orr.w	r2, r2, #256	; 0x100
 81040ce:	609a      	str	r2, [r3, #8]
}
 81040d0:	e016      	b.n	8104100 <ADC_ConfigureBoostMode+0x1ec>
    else if (freq <= 25000000UL)
 81040d2:	68fb      	ldr	r3, [r7, #12]
 81040d4:	4a13      	ldr	r2, [pc, #76]	; (8104124 <ADC_ConfigureBoostMode+0x210>)
 81040d6:	4293      	cmp	r3, r2
 81040d8:	d80a      	bhi.n	81040f0 <ADC_ConfigureBoostMode+0x1dc>
      MODIFY_REG(hadc->Instance->CR, ADC_CR_BOOST, ADC_CR_BOOST_1);
 81040da:	687b      	ldr	r3, [r7, #4]
 81040dc:	681b      	ldr	r3, [r3, #0]
 81040de:	689b      	ldr	r3, [r3, #8]
 81040e0:	f423 7240 	bic.w	r2, r3, #768	; 0x300
 81040e4:	687b      	ldr	r3, [r7, #4]
 81040e6:	681b      	ldr	r3, [r3, #0]
 81040e8:	f442 7200 	orr.w	r2, r2, #512	; 0x200
 81040ec:	609a      	str	r2, [r3, #8]
}
 81040ee:	e007      	b.n	8104100 <ADC_ConfigureBoostMode+0x1ec>
      MODIFY_REG(hadc->Instance->CR, ADC_CR_BOOST, ADC_CR_BOOST_1 | ADC_CR_BOOST_0);
 81040f0:	687b      	ldr	r3, [r7, #4]
 81040f2:	681b      	ldr	r3, [r3, #0]
 81040f4:	689a      	ldr	r2, [r3, #8]
 81040f6:	687b      	ldr	r3, [r7, #4]
 81040f8:	681b      	ldr	r3, [r3, #0]
 81040fa:	f442 7240 	orr.w	r2, r2, #768	; 0x300
 81040fe:	609a      	str	r2, [r3, #8]
}
 8104100:	bf00      	nop
 8104102:	3710      	adds	r7, #16
 8104104:	46bd      	mov	sp, r7
 8104106:	bd80      	pop	{r7, pc}
 8104108:	40022000 	.word	0x40022000
 810410c:	40022100 	.word	0x40022100
 8104110:	40022300 	.word	0x40022300
 8104114:	58026300 	.word	0x58026300
 8104118:	01312d00 	.word	0x01312d00
 810411c:	005f5e10 	.word	0x005f5e10
 8104120:	00bebc20 	.word	0x00bebc20
 8104124:	017d7840 	.word	0x017d7840

08104128 <LL_ADC_IsEnabled>:
{
 8104128:	b480      	push	{r7}
 810412a:	b083      	sub	sp, #12
 810412c:	af00      	add	r7, sp, #0
 810412e:	6078      	str	r0, [r7, #4]
  return ((READ_BIT(ADCx->CR, ADC_CR_ADEN) == (ADC_CR_ADEN)) ? 1UL : 0UL);
 8104130:	687b      	ldr	r3, [r7, #4]
 8104132:	689b      	ldr	r3, [r3, #8]
 8104134:	f003 0301 	and.w	r3, r3, #1
 8104138:	2b01      	cmp	r3, #1
 810413a:	d101      	bne.n	8104140 <LL_ADC_IsEnabled+0x18>
 810413c:	2301      	movs	r3, #1
 810413e:	e000      	b.n	8104142 <LL_ADC_IsEnabled+0x1a>
 8104140:	2300      	movs	r3, #0
}
 8104142:	4618      	mov	r0, r3
 8104144:	370c      	adds	r7, #12
 8104146:	46bd      	mov	sp, r7
 8104148:	f85d 7b04 	ldr.w	r7, [sp], #4
 810414c:	4770      	bx	lr

0810414e <LL_ADC_REG_IsConversionOngoing>:
{
 810414e:	b480      	push	{r7}
 8104150:	b083      	sub	sp, #12
 8104152:	af00      	add	r7, sp, #0
 8104154:	6078      	str	r0, [r7, #4]
  return ((READ_BIT(ADCx->CR, ADC_CR_ADSTART) == (ADC_CR_ADSTART)) ? 1UL : 0UL);
 8104156:	687b      	ldr	r3, [r7, #4]
 8104158:	689b      	ldr	r3, [r3, #8]
 810415a:	f003 0304 	and.w	r3, r3, #4
 810415e:	2b04      	cmp	r3, #4
 8104160:	d101      	bne.n	8104166 <LL_ADC_REG_IsConversionOngoing+0x18>
 8104162:	2301      	movs	r3, #1
 8104164:	e000      	b.n	8104168 <LL_ADC_REG_IsConversionOngoing+0x1a>
 8104166:	2300      	movs	r3, #0
}
 8104168:	4618      	mov	r0, r3
 810416a:	370c      	adds	r7, #12
 810416c:	46bd      	mov	sp, r7
 810416e:	f85d 7b04 	ldr.w	r7, [sp], #4
 8104172:	4770      	bx	lr

08104174 <HAL_ADCEx_MultiModeConfigChannel>:
  * @param hadc Master ADC handle
  * @param multimode Structure of ADC multimode configuration
  * @retval HAL status
  */
HAL_StatusTypeDef HAL_ADCEx_MultiModeConfigChannel(ADC_HandleTypeDef *hadc, ADC_MultiModeTypeDef *multimode)
{
 8104174:	b590      	push	{r4, r7, lr}
 8104176:	b09f      	sub	sp, #124	; 0x7c
 8104178:	af00      	add	r7, sp, #0
 810417a:	6078      	str	r0, [r7, #4]
 810417c:	6039      	str	r1, [r7, #0]
  HAL_StatusTypeDef tmp_hal_status = HAL_OK;
 810417e:	2300      	movs	r3, #0
 8104180:	f887 3077 	strb.w	r3, [r7, #119]	; 0x77
    assert_param(IS_ADC_DUAL_DATA_MODE(multimode->DualModeData));
    assert_param(IS_ADC_SAMPLING_DELAY(multimode->TwoSamplingDelay));
  }

  /* Process locked */
  __HAL_LOCK(hadc);
 8104184:	687b      	ldr	r3, [r7, #4]
 8104186:	f893 3050 	ldrb.w	r3, [r3, #80]	; 0x50
 810418a:	2b01      	cmp	r3, #1
 810418c:	d101      	bne.n	8104192 <HAL_ADCEx_MultiModeConfigChannel+0x1e>
 810418e:	2302      	movs	r3, #2
 8104190:	e0c4      	b.n	810431c <HAL_ADCEx_MultiModeConfigChannel+0x1a8>
 8104192:	687b      	ldr	r3, [r7, #4]
 8104194:	2201      	movs	r2, #1
 8104196:	f883 2050 	strb.w	r2, [r3, #80]	; 0x50

  tmphadcSlave.State = HAL_ADC_STATE_RESET;
 810419a:	2300      	movs	r3, #0
 810419c:	65fb      	str	r3, [r7, #92]	; 0x5c
  tmphadcSlave.ErrorCode = HAL_ADC_ERROR_NONE;
 810419e:	2300      	movs	r3, #0
 81041a0:	663b      	str	r3, [r7, #96]	; 0x60

  ADC_MULTI_SLAVE(hadc, &tmphadcSlave);
 81041a2:	687b      	ldr	r3, [r7, #4]
 81041a4:	681b      	ldr	r3, [r3, #0]
 81041a6:	4a5f      	ldr	r2, [pc, #380]	; (8104324 <HAL_ADCEx_MultiModeConfigChannel+0x1b0>)
 81041a8:	4293      	cmp	r3, r2
 81041aa:	d102      	bne.n	81041b2 <HAL_ADCEx_MultiModeConfigChannel+0x3e>
 81041ac:	4b5e      	ldr	r3, [pc, #376]	; (8104328 <HAL_ADCEx_MultiModeConfigChannel+0x1b4>)
 81041ae:	60bb      	str	r3, [r7, #8]
 81041b0:	e001      	b.n	81041b6 <HAL_ADCEx_MultiModeConfigChannel+0x42>
 81041b2:	2300      	movs	r3, #0
 81041b4:	60bb      	str	r3, [r7, #8]

  if (tmphadcSlave.Instance == NULL)
 81041b6:	68bb      	ldr	r3, [r7, #8]
 81041b8:	2b00      	cmp	r3, #0
 81041ba:	d10b      	bne.n	81041d4 <HAL_ADCEx_MultiModeConfigChannel+0x60>
  {
    /* Update ADC state machine to error */
    SET_BIT(hadc->State, HAL_ADC_STATE_ERROR_CONFIG);
 81041bc:	687b      	ldr	r3, [r7, #4]
 81041be:	6d5b      	ldr	r3, [r3, #84]	; 0x54
 81041c0:	f043 0220 	orr.w	r2, r3, #32
 81041c4:	687b      	ldr	r3, [r7, #4]
 81041c6:	655a      	str	r2, [r3, #84]	; 0x54

    /* Process unlocked */
    __HAL_UNLOCK(hadc);
 81041c8:	687b      	ldr	r3, [r7, #4]
 81041ca:	2200      	movs	r2, #0
 81041cc:	f883 2050 	strb.w	r2, [r3, #80]	; 0x50

    return HAL_ERROR;
 81041d0:	2301      	movs	r3, #1
 81041d2:	e0a3      	b.n	810431c <HAL_ADCEx_MultiModeConfigChannel+0x1a8>

  /* Parameters update conditioned to ADC state:                              */
  /* Parameters that can be updated when ADC is disabled or enabled without   */
  /* conversion on going on regular group:                                    */
  /*  - Multimode DATA Format configuration                                   */
  tmphadcSlave_conversion_on_going = LL_ADC_REG_IsConversionOngoing((&tmphadcSlave)->Instance);
 81041d4:	68bb      	ldr	r3, [r7, #8]
 81041d6:	4618      	mov	r0, r3
 81041d8:	f7ff ffb9 	bl	810414e <LL_ADC_REG_IsConversionOngoing>
 81041dc:	6738      	str	r0, [r7, #112]	; 0x70
  if ((LL_ADC_REG_IsConversionOngoing(hadc->Instance) == 0UL)
 81041de:	687b      	ldr	r3, [r7, #4]
 81041e0:	681b      	ldr	r3, [r3, #0]
 81041e2:	4618      	mov	r0, r3
 81041e4:	f7ff ffb3 	bl	810414e <LL_ADC_REG_IsConversionOngoing>
 81041e8:	4603      	mov	r3, r0
 81041ea:	2b00      	cmp	r3, #0
 81041ec:	f040 8085 	bne.w	81042fa <HAL_ADCEx_MultiModeConfigChannel+0x186>
      && (tmphadcSlave_conversion_on_going == 0UL))
 81041f0:	6f3b      	ldr	r3, [r7, #112]	; 0x70
 81041f2:	2b00      	cmp	r3, #0
 81041f4:	f040 8081 	bne.w	81042fa <HAL_ADCEx_MultiModeConfigChannel+0x186>
  {
    /* Pointer to the common control register */
    tmpADC_Common = __LL_ADC_COMMON_INSTANCE(hadc->Instance);
 81041f8:	687b      	ldr	r3, [r7, #4]
 81041fa:	681b      	ldr	r3, [r3, #0]
 81041fc:	4a49      	ldr	r2, [pc, #292]	; (8104324 <HAL_ADCEx_MultiModeConfigChannel+0x1b0>)
 81041fe:	4293      	cmp	r3, r2
 8104200:	d004      	beq.n	810420c <HAL_ADCEx_MultiModeConfigChannel+0x98>
 8104202:	687b      	ldr	r3, [r7, #4]
 8104204:	681b      	ldr	r3, [r3, #0]
 8104206:	4a48      	ldr	r2, [pc, #288]	; (8104328 <HAL_ADCEx_MultiModeConfigChannel+0x1b4>)
 8104208:	4293      	cmp	r3, r2
 810420a:	d101      	bne.n	8104210 <HAL_ADCEx_MultiModeConfigChannel+0x9c>
 810420c:	4b47      	ldr	r3, [pc, #284]	; (810432c <HAL_ADCEx_MultiModeConfigChannel+0x1b8>)
 810420e:	e000      	b.n	8104212 <HAL_ADCEx_MultiModeConfigChannel+0x9e>
 8104210:	4b47      	ldr	r3, [pc, #284]	; (8104330 <HAL_ADCEx_MultiModeConfigChannel+0x1bc>)
 8104212:	66fb      	str	r3, [r7, #108]	; 0x6c

    /* If multimode is selected, configure all multimode parameters.          */
    /* Otherwise, reset multimode parameters (can be used in case of          */
    /* transition from multimode to independent mode).                        */
    if (multimode->Mode != ADC_MODE_INDEPENDENT)
 8104214:	683b      	ldr	r3, [r7, #0]
 8104216:	681b      	ldr	r3, [r3, #0]
 8104218:	2b00      	cmp	r3, #0
 810421a:	d03b      	beq.n	8104294 <HAL_ADCEx_MultiModeConfigChannel+0x120>
    {
      MODIFY_REG(tmpADC_Common->CCR, ADC_CCR_DAMDF, multimode->DualModeData);
 810421c:	6efb      	ldr	r3, [r7, #108]	; 0x6c
 810421e:	689b      	ldr	r3, [r3, #8]
 8104220:	f423 4240 	bic.w	r2, r3, #49152	; 0xc000
 8104224:	683b      	ldr	r3, [r7, #0]
 8104226:	685b      	ldr	r3, [r3, #4]
 8104228:	431a      	orrs	r2, r3
 810422a:	6efb      	ldr	r3, [r7, #108]	; 0x6c
 810422c:	609a      	str	r2, [r3, #8]
      /*      from 1 to 8 clock cycles for 12 bits                              */
      /*      from 1 to 6 clock cycles for 10 and 8 bits                        */
      /*    If a higher delay is selected, it will be clipped to maximum delay  */
      /*    range                                                               */

      if (__LL_ADC_IS_ENABLED_ALL_COMMON_INSTANCE(__LL_ADC_COMMON_INSTANCE(hadc->Instance)) == 0UL)
 810422e:	687b      	ldr	r3, [r7, #4]
 8104230:	681b      	ldr	r3, [r3, #0]
 8104232:	4a3c      	ldr	r2, [pc, #240]	; (8104324 <HAL_ADCEx_MultiModeConfigChannel+0x1b0>)
 8104234:	4293      	cmp	r3, r2
 8104236:	d004      	beq.n	8104242 <HAL_ADCEx_MultiModeConfigChannel+0xce>
 8104238:	687b      	ldr	r3, [r7, #4]
 810423a:	681b      	ldr	r3, [r3, #0]
 810423c:	4a3a      	ldr	r2, [pc, #232]	; (8104328 <HAL_ADCEx_MultiModeConfigChannel+0x1b4>)
 810423e:	4293      	cmp	r3, r2
 8104240:	d10e      	bne.n	8104260 <HAL_ADCEx_MultiModeConfigChannel+0xec>
 8104242:	4838      	ldr	r0, [pc, #224]	; (8104324 <HAL_ADCEx_MultiModeConfigChannel+0x1b0>)
 8104244:	f7ff ff70 	bl	8104128 <LL_ADC_IsEnabled>
 8104248:	4604      	mov	r4, r0
 810424a:	4837      	ldr	r0, [pc, #220]	; (8104328 <HAL_ADCEx_MultiModeConfigChannel+0x1b4>)
 810424c:	f7ff ff6c 	bl	8104128 <LL_ADC_IsEnabled>
 8104250:	4603      	mov	r3, r0
 8104252:	4323      	orrs	r3, r4
 8104254:	2b00      	cmp	r3, #0
 8104256:	bf0c      	ite	eq
 8104258:	2301      	moveq	r3, #1
 810425a:	2300      	movne	r3, #0
 810425c:	b2db      	uxtb	r3, r3
 810425e:	e008      	b.n	8104272 <HAL_ADCEx_MultiModeConfigChannel+0xfe>
 8104260:	4834      	ldr	r0, [pc, #208]	; (8104334 <HAL_ADCEx_MultiModeConfigChannel+0x1c0>)
 8104262:	f7ff ff61 	bl	8104128 <LL_ADC_IsEnabled>
 8104266:	4603      	mov	r3, r0
 8104268:	2b00      	cmp	r3, #0
 810426a:	bf0c      	ite	eq
 810426c:	2301      	moveq	r3, #1
 810426e:	2300      	movne	r3, #0
 8104270:	b2db      	uxtb	r3, r3
 8104272:	2b00      	cmp	r3, #0
 8104274:	d04b      	beq.n	810430e <HAL_ADCEx_MultiModeConfigChannel+0x19a>
      {
        MODIFY_REG(tmpADC_Common->CCR,
 8104276:	6efb      	ldr	r3, [r7, #108]	; 0x6c
 8104278:	689b      	ldr	r3, [r3, #8]
 810427a:	f423 6371 	bic.w	r3, r3, #3856	; 0xf10
 810427e:	f023 030f 	bic.w	r3, r3, #15
 8104282:	683a      	ldr	r2, [r7, #0]
 8104284:	6811      	ldr	r1, [r2, #0]
 8104286:	683a      	ldr	r2, [r7, #0]
 8104288:	6892      	ldr	r2, [r2, #8]
 810428a:	430a      	orrs	r2, r1
 810428c:	431a      	orrs	r2, r3
 810428e:	6efb      	ldr	r3, [r7, #108]	; 0x6c
 8104290:	609a      	str	r2, [r3, #8]
    if (multimode->Mode != ADC_MODE_INDEPENDENT)
 8104292:	e03c      	b.n	810430e <HAL_ADCEx_MultiModeConfigChannel+0x19a>
                  );
      }
    }
    else /* ADC_MODE_INDEPENDENT */
    {
      CLEAR_BIT(tmpADC_Common->CCR, ADC_CCR_DAMDF);
 8104294:	6efb      	ldr	r3, [r7, #108]	; 0x6c
 8104296:	689b      	ldr	r3, [r3, #8]
 8104298:	f423 4240 	bic.w	r2, r3, #49152	; 0xc000
 810429c:	6efb      	ldr	r3, [r7, #108]	; 0x6c
 810429e:	609a      	str	r2, [r3, #8]

      /* Parameters that can be updated only when ADC is disabled:                */
      /*  - Multimode mode selection                                              */
      /*  - Multimode delay                                                       */
      if (__LL_ADC_IS_ENABLED_ALL_COMMON_INSTANCE(__LL_ADC_COMMON_INSTANCE(hadc->Instance)) == 0UL)
 81042a0:	687b      	ldr	r3, [r7, #4]
 81042a2:	681b      	ldr	r3, [r3, #0]
 81042a4:	4a1f      	ldr	r2, [pc, #124]	; (8104324 <HAL_ADCEx_MultiModeConfigChannel+0x1b0>)
 81042a6:	4293      	cmp	r3, r2
 81042a8:	d004      	beq.n	81042b4 <HAL_ADCEx_MultiModeConfigChannel+0x140>
 81042aa:	687b      	ldr	r3, [r7, #4]
 81042ac:	681b      	ldr	r3, [r3, #0]
 81042ae:	4a1e      	ldr	r2, [pc, #120]	; (8104328 <HAL_ADCEx_MultiModeConfigChannel+0x1b4>)
 81042b0:	4293      	cmp	r3, r2
 81042b2:	d10e      	bne.n	81042d2 <HAL_ADCEx_MultiModeConfigChannel+0x15e>
 81042b4:	481b      	ldr	r0, [pc, #108]	; (8104324 <HAL_ADCEx_MultiModeConfigChannel+0x1b0>)
 81042b6:	f7ff ff37 	bl	8104128 <LL_ADC_IsEnabled>
 81042ba:	4604      	mov	r4, r0
 81042bc:	481a      	ldr	r0, [pc, #104]	; (8104328 <HAL_ADCEx_MultiModeConfigChannel+0x1b4>)
 81042be:	f7ff ff33 	bl	8104128 <LL_ADC_IsEnabled>
 81042c2:	4603      	mov	r3, r0
 81042c4:	4323      	orrs	r3, r4
 81042c6:	2b00      	cmp	r3, #0
 81042c8:	bf0c      	ite	eq
 81042ca:	2301      	moveq	r3, #1
 81042cc:	2300      	movne	r3, #0
 81042ce:	b2db      	uxtb	r3, r3
 81042d0:	e008      	b.n	81042e4 <HAL_ADCEx_MultiModeConfigChannel+0x170>
 81042d2:	4818      	ldr	r0, [pc, #96]	; (8104334 <HAL_ADCEx_MultiModeConfigChannel+0x1c0>)
 81042d4:	f7ff ff28 	bl	8104128 <LL_ADC_IsEnabled>
 81042d8:	4603      	mov	r3, r0
 81042da:	2b00      	cmp	r3, #0
 81042dc:	bf0c      	ite	eq
 81042de:	2301      	moveq	r3, #1
 81042e0:	2300      	movne	r3, #0
 81042e2:	b2db      	uxtb	r3, r3
 81042e4:	2b00      	cmp	r3, #0
 81042e6:	d012      	beq.n	810430e <HAL_ADCEx_MultiModeConfigChannel+0x19a>
      {
        CLEAR_BIT(tmpADC_Common->CCR, ADC_CCR_DUAL | ADC_CCR_DELAY);
 81042e8:	6efb      	ldr	r3, [r7, #108]	; 0x6c
 81042ea:	689b      	ldr	r3, [r3, #8]
 81042ec:	f423 6371 	bic.w	r3, r3, #3856	; 0xf10
 81042f0:	f023 030f 	bic.w	r3, r3, #15
 81042f4:	6efa      	ldr	r2, [r7, #108]	; 0x6c
 81042f6:	6093      	str	r3, [r2, #8]
    if (multimode->Mode != ADC_MODE_INDEPENDENT)
 81042f8:	e009      	b.n	810430e <HAL_ADCEx_MultiModeConfigChannel+0x19a>
  /* If one of the ADC sharing the same common group is enabled, no update    */
  /* could be done on neither of the multimode structure parameters.          */
  else
  {
    /* Update ADC state machine to error */
    SET_BIT(hadc->State, HAL_ADC_STATE_ERROR_CONFIG);
 81042fa:	687b      	ldr	r3, [r7, #4]
 81042fc:	6d5b      	ldr	r3, [r3, #84]	; 0x54
 81042fe:	f043 0220 	orr.w	r2, r3, #32
 8104302:	687b      	ldr	r3, [r7, #4]
 8104304:	655a      	str	r2, [r3, #84]	; 0x54

    tmp_hal_status = HAL_ERROR;
 8104306:	2301      	movs	r3, #1
 8104308:	f887 3077 	strb.w	r3, [r7, #119]	; 0x77
 810430c:	e000      	b.n	8104310 <HAL_ADCEx_MultiModeConfigChannel+0x19c>
    if (multimode->Mode != ADC_MODE_INDEPENDENT)
 810430e:	bf00      	nop
  }

  /* Process unlocked */
  __HAL_UNLOCK(hadc);
 8104310:	687b      	ldr	r3, [r7, #4]
 8104312:	2200      	movs	r2, #0
 8104314:	f883 2050 	strb.w	r2, [r3, #80]	; 0x50

  /* Return function status */
  return tmp_hal_status;
 8104318:	f897 3077 	ldrb.w	r3, [r7, #119]	; 0x77
}
 810431c:	4618      	mov	r0, r3
 810431e:	377c      	adds	r7, #124	; 0x7c
 8104320:	46bd      	mov	sp, r7
 8104322:	bd90      	pop	{r4, r7, pc}
 8104324:	40022000 	.word	0x40022000
 8104328:	40022100 	.word	0x40022100
 810432c:	40022300 	.word	0x40022300
 8104330:	58026300 	.word	0x58026300
 8104334:	58026000 	.word	0x58026000

08104338 <__NVIC_SetPriorityGrouping>:
{
 8104338:	b480      	push	{r7}
 810433a:	b085      	sub	sp, #20
 810433c:	af00      	add	r7, sp, #0
 810433e:	6078      	str	r0, [r7, #4]
  uint32_t PriorityGroupTmp = (PriorityGroup & (uint32_t)0x07UL);             /* only values 0..7 are used          */
 8104340:	687b      	ldr	r3, [r7, #4]
 8104342:	f003 0307 	and.w	r3, r3, #7
 8104346:	60fb      	str	r3, [r7, #12]
  reg_value  =  SCB->AIRCR;                                                   /* read old register configuration    */
 8104348:	4b0c      	ldr	r3, [pc, #48]	; (810437c <__NVIC_SetPriorityGrouping+0x44>)
 810434a:	68db      	ldr	r3, [r3, #12]
 810434c:	60bb      	str	r3, [r7, #8]
  reg_value &= ~((uint32_t)(SCB_AIRCR_VECTKEY_Msk | SCB_AIRCR_PRIGROUP_Msk)); /* clear bits to change               */
 810434e:	68ba      	ldr	r2, [r7, #8]
 8104350:	f64f 03ff 	movw	r3, #63743	; 0xf8ff
 8104354:	4013      	ands	r3, r2
 8104356:	60bb      	str	r3, [r7, #8]
                (PriorityGroupTmp << SCB_AIRCR_PRIGROUP_Pos)  );              /* Insert write key and priority group */
 8104358:	68fb      	ldr	r3, [r7, #12]
 810435a:	021a      	lsls	r2, r3, #8
                ((uint32_t)0x5FAUL << SCB_AIRCR_VECTKEY_Pos) |
 810435c:	68bb      	ldr	r3, [r7, #8]
 810435e:	4313      	orrs	r3, r2
  reg_value  =  (reg_value                                   |
 8104360:	f043 63bf 	orr.w	r3, r3, #100139008	; 0x5f80000
 8104364:	f443 3300 	orr.w	r3, r3, #131072	; 0x20000
 8104368:	60bb      	str	r3, [r7, #8]
  SCB->AIRCR =  reg_value;
 810436a:	4a04      	ldr	r2, [pc, #16]	; (810437c <__NVIC_SetPriorityGrouping+0x44>)
 810436c:	68bb      	ldr	r3, [r7, #8]
 810436e:	60d3      	str	r3, [r2, #12]
}
 8104370:	bf00      	nop
 8104372:	3714      	adds	r7, #20
 8104374:	46bd      	mov	sp, r7
 8104376:	f85d 7b04 	ldr.w	r7, [sp], #4
 810437a:	4770      	bx	lr
 810437c:	e000ed00 	.word	0xe000ed00

08104380 <__NVIC_GetPriorityGrouping>:
{
 8104380:	b480      	push	{r7}
 8104382:	af00      	add	r7, sp, #0
  return ((uint32_t)((SCB->AIRCR & SCB_AIRCR_PRIGROUP_Msk) >> SCB_AIRCR_PRIGROUP_Pos));
 8104384:	4b04      	ldr	r3, [pc, #16]	; (8104398 <__NVIC_GetPriorityGrouping+0x18>)
 8104386:	68db      	ldr	r3, [r3, #12]
 8104388:	0a1b      	lsrs	r3, r3, #8
 810438a:	f003 0307 	and.w	r3, r3, #7
}
 810438e:	4618      	mov	r0, r3
 8104390:	46bd      	mov	sp, r7
 8104392:	f85d 7b04 	ldr.w	r7, [sp], #4
 8104396:	4770      	bx	lr
 8104398:	e000ed00 	.word	0xe000ed00

0810439c <__NVIC_EnableIRQ>:
{
 810439c:	b480      	push	{r7}
 810439e:	b083      	sub	sp, #12
 81043a0:	af00      	add	r7, sp, #0
 81043a2:	4603      	mov	r3, r0
 81043a4:	80fb      	strh	r3, [r7, #6]
  if ((int32_t)(IRQn) >= 0)
 81043a6:	f9b7 3006 	ldrsh.w	r3, [r7, #6]
 81043aa:	2b00      	cmp	r3, #0
 81043ac:	db0b      	blt.n	81043c6 <__NVIC_EnableIRQ+0x2a>
    NVIC->ISER[(((uint32_t)IRQn) >> 5UL)] = (uint32_t)(1UL << (((uint32_t)IRQn) & 0x1FUL));
 81043ae:	88fb      	ldrh	r3, [r7, #6]
 81043b0:	f003 021f 	and.w	r2, r3, #31
 81043b4:	4907      	ldr	r1, [pc, #28]	; (81043d4 <__NVIC_EnableIRQ+0x38>)
 81043b6:	f9b7 3006 	ldrsh.w	r3, [r7, #6]
 81043ba:	095b      	lsrs	r3, r3, #5
 81043bc:	2001      	movs	r0, #1
 81043be:	fa00 f202 	lsl.w	r2, r0, r2
 81043c2:	f841 2023 	str.w	r2, [r1, r3, lsl #2]
}
 81043c6:	bf00      	nop
 81043c8:	370c      	adds	r7, #12
 81043ca:	46bd      	mov	sp, r7
 81043cc:	f85d 7b04 	ldr.w	r7, [sp], #4
 81043d0:	4770      	bx	lr
 81043d2:	bf00      	nop
 81043d4:	e000e100 	.word	0xe000e100

081043d8 <__NVIC_SetPriority>:
{
 81043d8:	b480      	push	{r7}
 81043da:	b083      	sub	sp, #12
 81043dc:	af00      	add	r7, sp, #0
 81043de:	4603      	mov	r3, r0
 81043e0:	6039      	str	r1, [r7, #0]
 81043e2:	80fb      	strh	r3, [r7, #6]
  if ((int32_t)(IRQn) >= 0)
 81043e4:	f9b7 3006 	ldrsh.w	r3, [r7, #6]
 81043e8:	2b00      	cmp	r3, #0
 81043ea:	db0a      	blt.n	8104402 <__NVIC_SetPriority+0x2a>
    NVIC->IP[((uint32_t)IRQn)]               = (uint8_t)((priority << (8U - __NVIC_PRIO_BITS)) & (uint32_t)0xFFUL);
 81043ec:	683b      	ldr	r3, [r7, #0]
 81043ee:	b2da      	uxtb	r2, r3
 81043f0:	490c      	ldr	r1, [pc, #48]	; (8104424 <__NVIC_SetPriority+0x4c>)
 81043f2:	f9b7 3006 	ldrsh.w	r3, [r7, #6]
 81043f6:	0112      	lsls	r2, r2, #4
 81043f8:	b2d2      	uxtb	r2, r2
 81043fa:	440b      	add	r3, r1
 81043fc:	f883 2300 	strb.w	r2, [r3, #768]	; 0x300
}
 8104400:	e00a      	b.n	8104418 <__NVIC_SetPriority+0x40>
    SCB->SHP[(((uint32_t)IRQn) & 0xFUL)-4UL] = (uint8_t)((priority << (8U - __NVIC_PRIO_BITS)) & (uint32_t)0xFFUL);
 8104402:	683b      	ldr	r3, [r7, #0]
 8104404:	b2da      	uxtb	r2, r3
 8104406:	4908      	ldr	r1, [pc, #32]	; (8104428 <__NVIC_SetPriority+0x50>)
 8104408:	88fb      	ldrh	r3, [r7, #6]
 810440a:	f003 030f 	and.w	r3, r3, #15
 810440e:	3b04      	subs	r3, #4
 8104410:	0112      	lsls	r2, r2, #4
 8104412:	b2d2      	uxtb	r2, r2
 8104414:	440b      	add	r3, r1
 8104416:	761a      	strb	r2, [r3, #24]
}
 8104418:	bf00      	nop
 810441a:	370c      	adds	r7, #12
 810441c:	46bd      	mov	sp, r7
 810441e:	f85d 7b04 	ldr.w	r7, [sp], #4
 8104422:	4770      	bx	lr
 8104424:	e000e100 	.word	0xe000e100
 8104428:	e000ed00 	.word	0xe000ed00

0810442c <NVIC_EncodePriority>:
{
 810442c:	b480      	push	{r7}
 810442e:	b089      	sub	sp, #36	; 0x24
 8104430:	af00      	add	r7, sp, #0
 8104432:	60f8      	str	r0, [r7, #12]
 8104434:	60b9      	str	r1, [r7, #8]
 8104436:	607a      	str	r2, [r7, #4]
  uint32_t PriorityGroupTmp = (PriorityGroup & (uint32_t)0x07UL);   /* only values 0..7 are used          */
 8104438:	68fb      	ldr	r3, [r7, #12]
 810443a:	f003 0307 	and.w	r3, r3, #7
 810443e:	61fb      	str	r3, [r7, #28]
  PreemptPriorityBits = ((7UL - PriorityGroupTmp) > (uint32_t)(__NVIC_PRIO_BITS)) ? (uint32_t)(__NVIC_PRIO_BITS) : (uint32_t)(7UL - PriorityGroupTmp);
 8104440:	69fb      	ldr	r3, [r7, #28]
 8104442:	f1c3 0307 	rsb	r3, r3, #7
 8104446:	2b04      	cmp	r3, #4
 8104448:	bf28      	it	cs
 810444a:	2304      	movcs	r3, #4
 810444c:	61bb      	str	r3, [r7, #24]
  SubPriorityBits     = ((PriorityGroupTmp + (uint32_t)(__NVIC_PRIO_BITS)) < (uint32_t)7UL) ? (uint32_t)0UL : (uint32_t)((PriorityGroupTmp - 7UL) + (uint32_t)(__NVIC_PRIO_BITS));
 810444e:	69fb      	ldr	r3, [r7, #28]
 8104450:	3304      	adds	r3, #4
 8104452:	2b06      	cmp	r3, #6
 8104454:	d902      	bls.n	810445c <NVIC_EncodePriority+0x30>
 8104456:	69fb      	ldr	r3, [r7, #28]
 8104458:	3b03      	subs	r3, #3
 810445a:	e000      	b.n	810445e <NVIC_EncodePriority+0x32>
 810445c:	2300      	movs	r3, #0
 810445e:	617b      	str	r3, [r7, #20]
           ((PreemptPriority & (uint32_t)((1UL << (PreemptPriorityBits)) - 1UL)) << SubPriorityBits) |
 8104460:	f04f 32ff 	mov.w	r2, #4294967295
 8104464:	69bb      	ldr	r3, [r7, #24]
 8104466:	fa02 f303 	lsl.w	r3, r2, r3
 810446a:	43da      	mvns	r2, r3
 810446c:	68bb      	ldr	r3, [r7, #8]
 810446e:	401a      	ands	r2, r3
 8104470:	697b      	ldr	r3, [r7, #20]
 8104472:	409a      	lsls	r2, r3
           ((SubPriority     & (uint32_t)((1UL << (SubPriorityBits    )) - 1UL)))
 8104474:	f04f 31ff 	mov.w	r1, #4294967295
 8104478:	697b      	ldr	r3, [r7, #20]
 810447a:	fa01 f303 	lsl.w	r3, r1, r3
 810447e:	43d9      	mvns	r1, r3
 8104480:	687b      	ldr	r3, [r7, #4]
 8104482:	400b      	ands	r3, r1
           ((PreemptPriority & (uint32_t)((1UL << (PreemptPriorityBits)) - 1UL)) << SubPriorityBits) |
 8104484:	4313      	orrs	r3, r2
}
 8104486:	4618      	mov	r0, r3
 8104488:	3724      	adds	r7, #36	; 0x24
 810448a:	46bd      	mov	sp, r7
 810448c:	f85d 7b04 	ldr.w	r7, [sp], #4
 8104490:	4770      	bx	lr
	...

08104494 <SysTick_Config>:
  \note    When the variable <b>__Vendor_SysTickConfig</b> is set to 1, then the
           function <b>SysTick_Config</b> is not included. In this case, the file <b><i>device</i>.h</b>
           must contain a vendor-specific implementation of this function.
 */
__STATIC_INLINE uint32_t SysTick_Config(uint32_t ticks)
{
 8104494:	b580      	push	{r7, lr}
 8104496:	b082      	sub	sp, #8
 8104498:	af00      	add	r7, sp, #0
 810449a:	6078      	str	r0, [r7, #4]
  if ((ticks - 1UL) > SysTick_LOAD_RELOAD_Msk)
 810449c:	687b      	ldr	r3, [r7, #4]
 810449e:	3b01      	subs	r3, #1
 81044a0:	f1b3 7f80 	cmp.w	r3, #16777216	; 0x1000000
 81044a4:	d301      	bcc.n	81044aa <SysTick_Config+0x16>
  {
    return (1UL);                                                   /* Reload value impossible */
 81044a6:	2301      	movs	r3, #1
 81044a8:	e00f      	b.n	81044ca <SysTick_Config+0x36>
  }

  SysTick->LOAD  = (uint32_t)(ticks - 1UL);                         /* set reload register */
 81044aa:	4a0a      	ldr	r2, [pc, #40]	; (81044d4 <SysTick_Config+0x40>)
 81044ac:	687b      	ldr	r3, [r7, #4]
 81044ae:	3b01      	subs	r3, #1
 81044b0:	6053      	str	r3, [r2, #4]
  NVIC_SetPriority (SysTick_IRQn, (1UL << __NVIC_PRIO_BITS) - 1UL); /* set Priority for Systick Interrupt */
 81044b2:	210f      	movs	r1, #15
 81044b4:	f04f 30ff 	mov.w	r0, #4294967295
 81044b8:	f7ff ff8e 	bl	81043d8 <__NVIC_SetPriority>
  SysTick->VAL   = 0UL;                                             /* Load the SysTick Counter Value */
 81044bc:	4b05      	ldr	r3, [pc, #20]	; (81044d4 <SysTick_Config+0x40>)
 81044be:	2200      	movs	r2, #0
 81044c0:	609a      	str	r2, [r3, #8]
  SysTick->CTRL  = SysTick_CTRL_CLKSOURCE_Msk |
 81044c2:	4b04      	ldr	r3, [pc, #16]	; (81044d4 <SysTick_Config+0x40>)
 81044c4:	2207      	movs	r2, #7
 81044c6:	601a      	str	r2, [r3, #0]
                   SysTick_CTRL_TICKINT_Msk   |
                   SysTick_CTRL_ENABLE_Msk;                         /* Enable SysTick IRQ and SysTick Timer */
  return (0UL);                                                     /* Function successful */
 81044c8:	2300      	movs	r3, #0
}
 81044ca:	4618      	mov	r0, r3
 81044cc:	3708      	adds	r7, #8
 81044ce:	46bd      	mov	sp, r7
 81044d0:	bd80      	pop	{r7, pc}
 81044d2:	bf00      	nop
 81044d4:	e000e010 	.word	0xe000e010

081044d8 <HAL_NVIC_SetPriorityGrouping>:
  * @note   When the NVIC_PriorityGroup_0 is selected, IRQ preemption is no more possible.
  *         The pending IRQ priority will be managed only by the subpriority.
  * @retval None
  */
void HAL_NVIC_SetPriorityGrouping(uint32_t PriorityGroup)
{
 81044d8:	b580      	push	{r7, lr}
 81044da:	b082      	sub	sp, #8
 81044dc:	af00      	add	r7, sp, #0
 81044de:	6078      	str	r0, [r7, #4]
  /* Check the parameters */
  assert_param(IS_NVIC_PRIORITY_GROUP(PriorityGroup));

  /* Set the PRIGROUP[10:8] bits according to the PriorityGroup parameter value */
  NVIC_SetPriorityGrouping(PriorityGroup);
 81044e0:	6878      	ldr	r0, [r7, #4]
 81044e2:	f7ff ff29 	bl	8104338 <__NVIC_SetPriorityGrouping>
}
 81044e6:	bf00      	nop
 81044e8:	3708      	adds	r7, #8
 81044ea:	46bd      	mov	sp, r7
 81044ec:	bd80      	pop	{r7, pc}

081044ee <HAL_NVIC_SetPriority>:
  *         This parameter can be a value between 0 and 15
  *         A lower priority value indicates a higher priority.
  * @retval None
  */
void HAL_NVIC_SetPriority(IRQn_Type IRQn, uint32_t PreemptPriority, uint32_t SubPriority)
{
 81044ee:	b580      	push	{r7, lr}
 81044f0:	b086      	sub	sp, #24
 81044f2:	af00      	add	r7, sp, #0
 81044f4:	4603      	mov	r3, r0
 81044f6:	60b9      	str	r1, [r7, #8]
 81044f8:	607a      	str	r2, [r7, #4]
 81044fa:	81fb      	strh	r3, [r7, #14]

  /* Check the parameters */
  assert_param(IS_NVIC_SUB_PRIORITY(SubPriority));
  assert_param(IS_NVIC_PREEMPTION_PRIORITY(PreemptPriority));

  prioritygroup = NVIC_GetPriorityGrouping();
 81044fc:	f7ff ff40 	bl	8104380 <__NVIC_GetPriorityGrouping>
 8104500:	6178      	str	r0, [r7, #20]

  NVIC_SetPriority(IRQn, NVIC_EncodePriority(prioritygroup, PreemptPriority, SubPriority));
 8104502:	687a      	ldr	r2, [r7, #4]
 8104504:	68b9      	ldr	r1, [r7, #8]
 8104506:	6978      	ldr	r0, [r7, #20]
 8104508:	f7ff ff90 	bl	810442c <NVIC_EncodePriority>
 810450c:	4602      	mov	r2, r0
 810450e:	f9b7 300e 	ldrsh.w	r3, [r7, #14]
 8104512:	4611      	mov	r1, r2
 8104514:	4618      	mov	r0, r3
 8104516:	f7ff ff5f 	bl	81043d8 <__NVIC_SetPriority>
}
 810451a:	bf00      	nop
 810451c:	3718      	adds	r7, #24
 810451e:	46bd      	mov	sp, r7
 8104520:	bd80      	pop	{r7, pc}

08104522 <HAL_NVIC_EnableIRQ>:
  *         This parameter can be an enumerator of IRQn_Type enumeration
  *         (For the complete STM32 Devices IRQ Channels list, please refer to the appropriate CMSIS device file (stm32h7xxxx.h))
  * @retval None
  */
void HAL_NVIC_EnableIRQ(IRQn_Type IRQn)
{
 8104522:	b580      	push	{r7, lr}
 8104524:	b082      	sub	sp, #8
 8104526:	af00      	add	r7, sp, #0
 8104528:	4603      	mov	r3, r0
 810452a:	80fb      	strh	r3, [r7, #6]
  /* Check the parameters */
  assert_param(IS_NVIC_DEVICE_IRQ(IRQn));

  /* Enable interrupt */
  NVIC_EnableIRQ(IRQn);
 810452c:	f9b7 3006 	ldrsh.w	r3, [r7, #6]
 8104530:	4618      	mov	r0, r3
 8104532:	f7ff ff33 	bl	810439c <__NVIC_EnableIRQ>
}
 8104536:	bf00      	nop
 8104538:	3708      	adds	r7, #8
 810453a:	46bd      	mov	sp, r7
 810453c:	bd80      	pop	{r7, pc}

0810453e <HAL_SYSTICK_Config>:
  * @param  TicksNumb Specifies the ticks Number of ticks between two interrupts.
  * @retval status   - 0  Function succeeded.
  *                  - 1  Function failed.
  */
uint32_t HAL_SYSTICK_Config(uint32_t TicksNumb)
{
 810453e:	b580      	push	{r7, lr}
 8104540:	b082      	sub	sp, #8
 8104542:	af00      	add	r7, sp, #0
 8104544:	6078      	str	r0, [r7, #4]
   return SysTick_Config(TicksNumb);
 8104546:	6878      	ldr	r0, [r7, #4]
 8104548:	f7ff ffa4 	bl	8104494 <SysTick_Config>
 810454c:	4603      	mov	r3, r0
}
 810454e:	4618      	mov	r0, r3
 8104550:	3708      	adds	r7, #8
 8104552:	46bd      	mov	sp, r7
 8104554:	bd80      	pop	{r7, pc}
	...

08104558 <HAL_GetCurrentCPUID>:
/**
  * @brief  Returns the current CPU ID.
  * @retval CPU identifier
  */
uint32_t HAL_GetCurrentCPUID(void)
{
 8104558:	b480      	push	{r7}
 810455a:	af00      	add	r7, sp, #0
  if (((SCB->CPUID & 0x000000F0U) >> 4 )== 0x7U)
 810455c:	4b07      	ldr	r3, [pc, #28]	; (810457c <HAL_GetCurrentCPUID+0x24>)
 810455e:	681b      	ldr	r3, [r3, #0]
 8104560:	091b      	lsrs	r3, r3, #4
 8104562:	f003 030f 	and.w	r3, r3, #15
 8104566:	2b07      	cmp	r3, #7
 8104568:	d101      	bne.n	810456e <HAL_GetCurrentCPUID+0x16>
  {
    return  CM7_CPUID;
 810456a:	2303      	movs	r3, #3
 810456c:	e000      	b.n	8104570 <HAL_GetCurrentCPUID+0x18>
  }
  else
  {
    return CM4_CPUID;
 810456e:	2301      	movs	r3, #1
  }
}
 8104570:	4618      	mov	r0, r3
 8104572:	46bd      	mov	sp, r7
 8104574:	f85d 7b04 	ldr.w	r7, [sp], #4
 8104578:	4770      	bx	lr
 810457a:	bf00      	nop
 810457c:	e000ed00 	.word	0xe000ed00

08104580 <HAL_GPIO_Init>:
  * @param  GPIO_Init: pointer to a GPIO_InitTypeDef structure that contains
  *         the configuration information for the specified GPIO peripheral.
  * @retval None
  */
void HAL_GPIO_Init(GPIO_TypeDef  *GPIOx, GPIO_InitTypeDef *GPIO_Init)
{
 8104580:	b480      	push	{r7}
 8104582:	b089      	sub	sp, #36	; 0x24
 8104584:	af00      	add	r7, sp, #0
 8104586:	6078      	str	r0, [r7, #4]
 8104588:	6039      	str	r1, [r7, #0]
  uint32_t position = 0x00U;
 810458a:	2300      	movs	r3, #0
 810458c:	61fb      	str	r3, [r7, #28]
  uint32_t iocurrent;
  uint32_t temp;
  EXTI_Core_TypeDef *EXTI_CurrentCPU;

#if defined(DUAL_CORE) && defined(CORE_CM4)
  EXTI_CurrentCPU = EXTI_D2; /* EXTI for CM4 CPU */
 810458e:	4b89      	ldr	r3, [pc, #548]	; (81047b4 <HAL_GPIO_Init+0x234>)
 8104590:	617b      	str	r3, [r7, #20]
  assert_param(IS_GPIO_ALL_INSTANCE(GPIOx));
  assert_param(IS_GPIO_PIN(GPIO_Init->Pin));
  assert_param(IS_GPIO_MODE(GPIO_Init->Mode));

  /* Configure the port pins */
  while (((GPIO_Init->Pin) >> position) != 0x00U)
 8104592:	e194      	b.n	81048be <HAL_GPIO_Init+0x33e>
  {
    /* Get current io position */
    iocurrent = (GPIO_Init->Pin) & (1UL << position);
 8104594:	683b      	ldr	r3, [r7, #0]
 8104596:	681a      	ldr	r2, [r3, #0]
 8104598:	2101      	movs	r1, #1
 810459a:	69fb      	ldr	r3, [r7, #28]
 810459c:	fa01 f303 	lsl.w	r3, r1, r3
 81045a0:	4013      	ands	r3, r2
 81045a2:	613b      	str	r3, [r7, #16]

    if (iocurrent != 0x00U)
 81045a4:	693b      	ldr	r3, [r7, #16]
 81045a6:	2b00      	cmp	r3, #0
 81045a8:	f000 8186 	beq.w	81048b8 <HAL_GPIO_Init+0x338>
    {
      /*--------------------- GPIO Mode Configuration ------------------------*/
      /* In case of Output or Alternate function mode selection */
      if (((GPIO_Init->Mode & GPIO_MODE) == MODE_OUTPUT) || ((GPIO_Init->Mode & GPIO_MODE) == MODE_AF))
 81045ac:	683b      	ldr	r3, [r7, #0]
 81045ae:	685b      	ldr	r3, [r3, #4]
 81045b0:	f003 0303 	and.w	r3, r3, #3
 81045b4:	2b01      	cmp	r3, #1
 81045b6:	d005      	beq.n	81045c4 <HAL_GPIO_Init+0x44>
 81045b8:	683b      	ldr	r3, [r7, #0]
 81045ba:	685b      	ldr	r3, [r3, #4]
 81045bc:	f003 0303 	and.w	r3, r3, #3
 81045c0:	2b02      	cmp	r3, #2
 81045c2:	d130      	bne.n	8104626 <HAL_GPIO_Init+0xa6>
      {
        /* Check the Speed parameter */
        assert_param(IS_GPIO_SPEED(GPIO_Init->Speed));

        /* Configure the IO Speed */
        temp = GPIOx->OSPEEDR;
 81045c4:	687b      	ldr	r3, [r7, #4]
 81045c6:	689b      	ldr	r3, [r3, #8]
 81045c8:	61bb      	str	r3, [r7, #24]
        temp &= ~(GPIO_OSPEEDR_OSPEED0 << (position * 2U));
 81045ca:	69fb      	ldr	r3, [r7, #28]
 81045cc:	005b      	lsls	r3, r3, #1
 81045ce:	2203      	movs	r2, #3
 81045d0:	fa02 f303 	lsl.w	r3, r2, r3
 81045d4:	43db      	mvns	r3, r3
 81045d6:	69ba      	ldr	r2, [r7, #24]
 81045d8:	4013      	ands	r3, r2
 81045da:	61bb      	str	r3, [r7, #24]
        temp |= (GPIO_Init->Speed << (position * 2U));
 81045dc:	683b      	ldr	r3, [r7, #0]
 81045de:	68da      	ldr	r2, [r3, #12]
 81045e0:	69fb      	ldr	r3, [r7, #28]
 81045e2:	005b      	lsls	r3, r3, #1
 81045e4:	fa02 f303 	lsl.w	r3, r2, r3
 81045e8:	69ba      	ldr	r2, [r7, #24]
 81045ea:	4313      	orrs	r3, r2
 81045ec:	61bb      	str	r3, [r7, #24]
        GPIOx->OSPEEDR = temp;
 81045ee:	687b      	ldr	r3, [r7, #4]
 81045f0:	69ba      	ldr	r2, [r7, #24]
 81045f2:	609a      	str	r2, [r3, #8]

        /* Configure the IO Output Type */
        temp = GPIOx->OTYPER;
 81045f4:	687b      	ldr	r3, [r7, #4]
 81045f6:	685b      	ldr	r3, [r3, #4]
 81045f8:	61bb      	str	r3, [r7, #24]
        temp &= ~(GPIO_OTYPER_OT0 << position) ;
 81045fa:	2201      	movs	r2, #1
 81045fc:	69fb      	ldr	r3, [r7, #28]
 81045fe:	fa02 f303 	lsl.w	r3, r2, r3
 8104602:	43db      	mvns	r3, r3
 8104604:	69ba      	ldr	r2, [r7, #24]
 8104606:	4013      	ands	r3, r2
 8104608:	61bb      	str	r3, [r7, #24]
        temp |= (((GPIO_Init->Mode & OUTPUT_TYPE) >> OUTPUT_TYPE_Pos) << position);
 810460a:	683b      	ldr	r3, [r7, #0]
 810460c:	685b      	ldr	r3, [r3, #4]
 810460e:	091b      	lsrs	r3, r3, #4
 8104610:	f003 0201 	and.w	r2, r3, #1
 8104614:	69fb      	ldr	r3, [r7, #28]
 8104616:	fa02 f303 	lsl.w	r3, r2, r3
 810461a:	69ba      	ldr	r2, [r7, #24]
 810461c:	4313      	orrs	r3, r2
 810461e:	61bb      	str	r3, [r7, #24]
        GPIOx->OTYPER = temp;
 8104620:	687b      	ldr	r3, [r7, #4]
 8104622:	69ba      	ldr	r2, [r7, #24]
 8104624:	605a      	str	r2, [r3, #4]
      }

      if ((GPIO_Init->Mode & GPIO_MODE) != MODE_ANALOG)
 8104626:	683b      	ldr	r3, [r7, #0]
 8104628:	685b      	ldr	r3, [r3, #4]
 810462a:	f003 0303 	and.w	r3, r3, #3
 810462e:	2b03      	cmp	r3, #3
 8104630:	d017      	beq.n	8104662 <HAL_GPIO_Init+0xe2>
      {
       /* Check the Pull parameter */
       assert_param(IS_GPIO_PULL(GPIO_Init->Pull));

      /* Activate the Pull-up or Pull down resistor for the current IO */
      temp = GPIOx->PUPDR;
 8104632:	687b      	ldr	r3, [r7, #4]
 8104634:	68db      	ldr	r3, [r3, #12]
 8104636:	61bb      	str	r3, [r7, #24]
      temp &= ~(GPIO_PUPDR_PUPD0 << (position * 2U));
 8104638:	69fb      	ldr	r3, [r7, #28]
 810463a:	005b      	lsls	r3, r3, #1
 810463c:	2203      	movs	r2, #3
 810463e:	fa02 f303 	lsl.w	r3, r2, r3
 8104642:	43db      	mvns	r3, r3
 8104644:	69ba      	ldr	r2, [r7, #24]
 8104646:	4013      	ands	r3, r2
 8104648:	61bb      	str	r3, [r7, #24]
      temp |= ((GPIO_Init->Pull) << (position * 2U));
 810464a:	683b      	ldr	r3, [r7, #0]
 810464c:	689a      	ldr	r2, [r3, #8]
 810464e:	69fb      	ldr	r3, [r7, #28]
 8104650:	005b      	lsls	r3, r3, #1
 8104652:	fa02 f303 	lsl.w	r3, r2, r3
 8104656:	69ba      	ldr	r2, [r7, #24]
 8104658:	4313      	orrs	r3, r2
 810465a:	61bb      	str	r3, [r7, #24]
      GPIOx->PUPDR = temp;
 810465c:	687b      	ldr	r3, [r7, #4]
 810465e:	69ba      	ldr	r2, [r7, #24]
 8104660:	60da      	str	r2, [r3, #12]
      }

      /* In case of Alternate function mode selection */
      if ((GPIO_Init->Mode & GPIO_MODE) == MODE_AF)
 8104662:	683b      	ldr	r3, [r7, #0]
 8104664:	685b      	ldr	r3, [r3, #4]
 8104666:	f003 0303 	and.w	r3, r3, #3
 810466a:	2b02      	cmp	r3, #2
 810466c:	d123      	bne.n	81046b6 <HAL_GPIO_Init+0x136>
        /* Check the Alternate function parameters */
        assert_param(IS_GPIO_AF_INSTANCE(GPIOx));
        assert_param(IS_GPIO_AF(GPIO_Init->Alternate));

        /* Configure Alternate function mapped with the current IO */
        temp = GPIOx->AFR[position >> 3U];
 810466e:	69fb      	ldr	r3, [r7, #28]
 8104670:	08da      	lsrs	r2, r3, #3
 8104672:	687b      	ldr	r3, [r7, #4]
 8104674:	3208      	adds	r2, #8
 8104676:	f853 3022 	ldr.w	r3, [r3, r2, lsl #2]
 810467a:	61bb      	str	r3, [r7, #24]
        temp &= ~(0xFU << ((position & 0x07U) * 4U));
 810467c:	69fb      	ldr	r3, [r7, #28]
 810467e:	f003 0307 	and.w	r3, r3, #7
 8104682:	009b      	lsls	r3, r3, #2
 8104684:	220f      	movs	r2, #15
 8104686:	fa02 f303 	lsl.w	r3, r2, r3
 810468a:	43db      	mvns	r3, r3
 810468c:	69ba      	ldr	r2, [r7, #24]
 810468e:	4013      	ands	r3, r2
 8104690:	61bb      	str	r3, [r7, #24]
        temp |= ((GPIO_Init->Alternate) << ((position & 0x07U) * 4U));
 8104692:	683b      	ldr	r3, [r7, #0]
 8104694:	691a      	ldr	r2, [r3, #16]
 8104696:	69fb      	ldr	r3, [r7, #28]
 8104698:	f003 0307 	and.w	r3, r3, #7
 810469c:	009b      	lsls	r3, r3, #2
 810469e:	fa02 f303 	lsl.w	r3, r2, r3
 81046a2:	69ba      	ldr	r2, [r7, #24]
 81046a4:	4313      	orrs	r3, r2
 81046a6:	61bb      	str	r3, [r7, #24]
        GPIOx->AFR[position >> 3U] = temp;
 81046a8:	69fb      	ldr	r3, [r7, #28]
 81046aa:	08da      	lsrs	r2, r3, #3
 81046ac:	687b      	ldr	r3, [r7, #4]
 81046ae:	3208      	adds	r2, #8
 81046b0:	69b9      	ldr	r1, [r7, #24]
 81046b2:	f843 1022 	str.w	r1, [r3, r2, lsl #2]
      }

      /* Configure IO Direction mode (Input, Output, Alternate or Analog) */
      temp = GPIOx->MODER;
 81046b6:	687b      	ldr	r3, [r7, #4]
 81046b8:	681b      	ldr	r3, [r3, #0]
 81046ba:	61bb      	str	r3, [r7, #24]
      temp &= ~(GPIO_MODER_MODE0 << (position * 2U));
 81046bc:	69fb      	ldr	r3, [r7, #28]
 81046be:	005b      	lsls	r3, r3, #1
 81046c0:	2203      	movs	r2, #3
 81046c2:	fa02 f303 	lsl.w	r3, r2, r3
 81046c6:	43db      	mvns	r3, r3
 81046c8:	69ba      	ldr	r2, [r7, #24]
 81046ca:	4013      	ands	r3, r2
 81046cc:	61bb      	str	r3, [r7, #24]
      temp |= ((GPIO_Init->Mode & GPIO_MODE) << (position * 2U));
 81046ce:	683b      	ldr	r3, [r7, #0]
 81046d0:	685b      	ldr	r3, [r3, #4]
 81046d2:	f003 0203 	and.w	r2, r3, #3
 81046d6:	69fb      	ldr	r3, [r7, #28]
 81046d8:	005b      	lsls	r3, r3, #1
 81046da:	fa02 f303 	lsl.w	r3, r2, r3
 81046de:	69ba      	ldr	r2, [r7, #24]
 81046e0:	4313      	orrs	r3, r2
 81046e2:	61bb      	str	r3, [r7, #24]
      GPIOx->MODER = temp;
 81046e4:	687b      	ldr	r3, [r7, #4]
 81046e6:	69ba      	ldr	r2, [r7, #24]
 81046e8:	601a      	str	r2, [r3, #0]

      /*--------------------- EXTI Mode Configuration ------------------------*/
      /* Configure the External Interrupt or event for the current IO */
      if ((GPIO_Init->Mode & EXTI_MODE) != 0x00U)
 81046ea:	683b      	ldr	r3, [r7, #0]
 81046ec:	685b      	ldr	r3, [r3, #4]
 81046ee:	f403 3340 	and.w	r3, r3, #196608	; 0x30000
 81046f2:	2b00      	cmp	r3, #0
 81046f4:	f000 80e0 	beq.w	81048b8 <HAL_GPIO_Init+0x338>
      {
        /* Enable SYSCFG Clock */
        __HAL_RCC_SYSCFG_CLK_ENABLE();
 81046f8:	4b2f      	ldr	r3, [pc, #188]	; (81047b8 <HAL_GPIO_Init+0x238>)
 81046fa:	f8d3 30f4 	ldr.w	r3, [r3, #244]	; 0xf4
 81046fe:	4a2e      	ldr	r2, [pc, #184]	; (81047b8 <HAL_GPIO_Init+0x238>)
 8104700:	f043 0302 	orr.w	r3, r3, #2
 8104704:	f8c2 30f4 	str.w	r3, [r2, #244]	; 0xf4
 8104708:	4b2b      	ldr	r3, [pc, #172]	; (81047b8 <HAL_GPIO_Init+0x238>)
 810470a:	f8d3 30f4 	ldr.w	r3, [r3, #244]	; 0xf4
 810470e:	f003 0302 	and.w	r3, r3, #2
 8104712:	60fb      	str	r3, [r7, #12]
 8104714:	68fb      	ldr	r3, [r7, #12]

        temp = SYSCFG->EXTICR[position >> 2U];
 8104716:	4a29      	ldr	r2, [pc, #164]	; (81047bc <HAL_GPIO_Init+0x23c>)
 8104718:	69fb      	ldr	r3, [r7, #28]
 810471a:	089b      	lsrs	r3, r3, #2
 810471c:	3302      	adds	r3, #2
 810471e:	f852 3023 	ldr.w	r3, [r2, r3, lsl #2]
 8104722:	61bb      	str	r3, [r7, #24]
        temp &= ~(0x0FUL << (4U * (position & 0x03U)));
 8104724:	69fb      	ldr	r3, [r7, #28]
 8104726:	f003 0303 	and.w	r3, r3, #3
 810472a:	009b      	lsls	r3, r3, #2
 810472c:	220f      	movs	r2, #15
 810472e:	fa02 f303 	lsl.w	r3, r2, r3
 8104732:	43db      	mvns	r3, r3
 8104734:	69ba      	ldr	r2, [r7, #24]
 8104736:	4013      	ands	r3, r2
 8104738:	61bb      	str	r3, [r7, #24]
        temp |= (GPIO_GET_INDEX(GPIOx) << (4U * (position & 0x03U)));
 810473a:	687b      	ldr	r3, [r7, #4]
 810473c:	4a20      	ldr	r2, [pc, #128]	; (81047c0 <HAL_GPIO_Init+0x240>)
 810473e:	4293      	cmp	r3, r2
 8104740:	d052      	beq.n	81047e8 <HAL_GPIO_Init+0x268>
 8104742:	687b      	ldr	r3, [r7, #4]
 8104744:	4a1f      	ldr	r2, [pc, #124]	; (81047c4 <HAL_GPIO_Init+0x244>)
 8104746:	4293      	cmp	r3, r2
 8104748:	d031      	beq.n	81047ae <HAL_GPIO_Init+0x22e>
 810474a:	687b      	ldr	r3, [r7, #4]
 810474c:	4a1e      	ldr	r2, [pc, #120]	; (81047c8 <HAL_GPIO_Init+0x248>)
 810474e:	4293      	cmp	r3, r2
 8104750:	d02b      	beq.n	81047aa <HAL_GPIO_Init+0x22a>
 8104752:	687b      	ldr	r3, [r7, #4]
 8104754:	4a1d      	ldr	r2, [pc, #116]	; (81047cc <HAL_GPIO_Init+0x24c>)
 8104756:	4293      	cmp	r3, r2
 8104758:	d025      	beq.n	81047a6 <HAL_GPIO_Init+0x226>
 810475a:	687b      	ldr	r3, [r7, #4]
 810475c:	4a1c      	ldr	r2, [pc, #112]	; (81047d0 <HAL_GPIO_Init+0x250>)
 810475e:	4293      	cmp	r3, r2
 8104760:	d01f      	beq.n	81047a2 <HAL_GPIO_Init+0x222>
 8104762:	687b      	ldr	r3, [r7, #4]
 8104764:	4a1b      	ldr	r2, [pc, #108]	; (81047d4 <HAL_GPIO_Init+0x254>)
 8104766:	4293      	cmp	r3, r2
 8104768:	d019      	beq.n	810479e <HAL_GPIO_Init+0x21e>
 810476a:	687b      	ldr	r3, [r7, #4]
 810476c:	4a1a      	ldr	r2, [pc, #104]	; (81047d8 <HAL_GPIO_Init+0x258>)
 810476e:	4293      	cmp	r3, r2
 8104770:	d013      	beq.n	810479a <HAL_GPIO_Init+0x21a>
 8104772:	687b      	ldr	r3, [r7, #4]
 8104774:	4a19      	ldr	r2, [pc, #100]	; (81047dc <HAL_GPIO_Init+0x25c>)
 8104776:	4293      	cmp	r3, r2
 8104778:	d00d      	beq.n	8104796 <HAL_GPIO_Init+0x216>
 810477a:	687b      	ldr	r3, [r7, #4]
 810477c:	4a18      	ldr	r2, [pc, #96]	; (81047e0 <HAL_GPIO_Init+0x260>)
 810477e:	4293      	cmp	r3, r2
 8104780:	d007      	beq.n	8104792 <HAL_GPIO_Init+0x212>
 8104782:	687b      	ldr	r3, [r7, #4]
 8104784:	4a17      	ldr	r2, [pc, #92]	; (81047e4 <HAL_GPIO_Init+0x264>)
 8104786:	4293      	cmp	r3, r2
 8104788:	d101      	bne.n	810478e <HAL_GPIO_Init+0x20e>
 810478a:	2309      	movs	r3, #9
 810478c:	e02d      	b.n	81047ea <HAL_GPIO_Init+0x26a>
 810478e:	230a      	movs	r3, #10
 8104790:	e02b      	b.n	81047ea <HAL_GPIO_Init+0x26a>
 8104792:	2308      	movs	r3, #8
 8104794:	e029      	b.n	81047ea <HAL_GPIO_Init+0x26a>
 8104796:	2307      	movs	r3, #7
 8104798:	e027      	b.n	81047ea <HAL_GPIO_Init+0x26a>
 810479a:	2306      	movs	r3, #6
 810479c:	e025      	b.n	81047ea <HAL_GPIO_Init+0x26a>
 810479e:	2305      	movs	r3, #5
 81047a0:	e023      	b.n	81047ea <HAL_GPIO_Init+0x26a>
 81047a2:	2304      	movs	r3, #4
 81047a4:	e021      	b.n	81047ea <HAL_GPIO_Init+0x26a>
 81047a6:	2303      	movs	r3, #3
 81047a8:	e01f      	b.n	81047ea <HAL_GPIO_Init+0x26a>
 81047aa:	2302      	movs	r3, #2
 81047ac:	e01d      	b.n	81047ea <HAL_GPIO_Init+0x26a>
 81047ae:	2301      	movs	r3, #1
 81047b0:	e01b      	b.n	81047ea <HAL_GPIO_Init+0x26a>
 81047b2:	bf00      	nop
 81047b4:	580000c0 	.word	0x580000c0
 81047b8:	58024400 	.word	0x58024400
 81047bc:	58000400 	.word	0x58000400
 81047c0:	58020000 	.word	0x58020000
 81047c4:	58020400 	.word	0x58020400
 81047c8:	58020800 	.word	0x58020800
 81047cc:	58020c00 	.word	0x58020c00
 81047d0:	58021000 	.word	0x58021000
 81047d4:	58021400 	.word	0x58021400
 81047d8:	58021800 	.word	0x58021800
 81047dc:	58021c00 	.word	0x58021c00
 81047e0:	58022000 	.word	0x58022000
 81047e4:	58022400 	.word	0x58022400
 81047e8:	2300      	movs	r3, #0
 81047ea:	69fa      	ldr	r2, [r7, #28]
 81047ec:	f002 0203 	and.w	r2, r2, #3
 81047f0:	0092      	lsls	r2, r2, #2
 81047f2:	4093      	lsls	r3, r2
 81047f4:	69ba      	ldr	r2, [r7, #24]
 81047f6:	4313      	orrs	r3, r2
 81047f8:	61bb      	str	r3, [r7, #24]
        SYSCFG->EXTICR[position >> 2U] = temp;
 81047fa:	4938      	ldr	r1, [pc, #224]	; (81048dc <HAL_GPIO_Init+0x35c>)
 81047fc:	69fb      	ldr	r3, [r7, #28]
 81047fe:	089b      	lsrs	r3, r3, #2
 8104800:	3302      	adds	r3, #2
 8104802:	69ba      	ldr	r2, [r7, #24]
 8104804:	f841 2023 	str.w	r2, [r1, r3, lsl #2]

        /* Clear Rising Falling edge configuration */
        temp = EXTI->RTSR1;
 8104808:	f04f 43b0 	mov.w	r3, #1476395008	; 0x58000000
 810480c:	681b      	ldr	r3, [r3, #0]
 810480e:	61bb      	str	r3, [r7, #24]
        temp &= ~(iocurrent);
 8104810:	693b      	ldr	r3, [r7, #16]
 8104812:	43db      	mvns	r3, r3
 8104814:	69ba      	ldr	r2, [r7, #24]
 8104816:	4013      	ands	r3, r2
 8104818:	61bb      	str	r3, [r7, #24]
        if ((GPIO_Init->Mode & TRIGGER_RISING) != 0x00U)
 810481a:	683b      	ldr	r3, [r7, #0]
 810481c:	685b      	ldr	r3, [r3, #4]
 810481e:	f403 1380 	and.w	r3, r3, #1048576	; 0x100000
 8104822:	2b00      	cmp	r3, #0
 8104824:	d003      	beq.n	810482e <HAL_GPIO_Init+0x2ae>
        {
          temp |= iocurrent;
 8104826:	69ba      	ldr	r2, [r7, #24]
 8104828:	693b      	ldr	r3, [r7, #16]
 810482a:	4313      	orrs	r3, r2
 810482c:	61bb      	str	r3, [r7, #24]
        }
        EXTI->RTSR1 = temp;
 810482e:	f04f 42b0 	mov.w	r2, #1476395008	; 0x58000000
 8104832:	69bb      	ldr	r3, [r7, #24]
 8104834:	6013      	str	r3, [r2, #0]

        temp = EXTI->FTSR1;
 8104836:	f04f 43b0 	mov.w	r3, #1476395008	; 0x58000000
 810483a:	685b      	ldr	r3, [r3, #4]
 810483c:	61bb      	str	r3, [r7, #24]
        temp &= ~(iocurrent);
 810483e:	693b      	ldr	r3, [r7, #16]
 8104840:	43db      	mvns	r3, r3
 8104842:	69ba      	ldr	r2, [r7, #24]
 8104844:	4013      	ands	r3, r2
 8104846:	61bb      	str	r3, [r7, #24]
        if ((GPIO_Init->Mode & TRIGGER_FALLING) != 0x00U)
 8104848:	683b      	ldr	r3, [r7, #0]
 810484a:	685b      	ldr	r3, [r3, #4]
 810484c:	f403 1300 	and.w	r3, r3, #2097152	; 0x200000
 8104850:	2b00      	cmp	r3, #0
 8104852:	d003      	beq.n	810485c <HAL_GPIO_Init+0x2dc>
        {
          temp |= iocurrent;
 8104854:	69ba      	ldr	r2, [r7, #24]
 8104856:	693b      	ldr	r3, [r7, #16]
 8104858:	4313      	orrs	r3, r2
 810485a:	61bb      	str	r3, [r7, #24]
        }
        EXTI->FTSR1 = temp;
 810485c:	f04f 42b0 	mov.w	r2, #1476395008	; 0x58000000
 8104860:	69bb      	ldr	r3, [r7, #24]
 8104862:	6053      	str	r3, [r2, #4]

        temp = EXTI_CurrentCPU->EMR1;
 8104864:	697b      	ldr	r3, [r7, #20]
 8104866:	685b      	ldr	r3, [r3, #4]
 8104868:	61bb      	str	r3, [r7, #24]
        temp &= ~(iocurrent);
 810486a:	693b      	ldr	r3, [r7, #16]
 810486c:	43db      	mvns	r3, r3
 810486e:	69ba      	ldr	r2, [r7, #24]
 8104870:	4013      	ands	r3, r2
 8104872:	61bb      	str	r3, [r7, #24]
        if ((GPIO_Init->Mode & EXTI_EVT) != 0x00U)
 8104874:	683b      	ldr	r3, [r7, #0]
 8104876:	685b      	ldr	r3, [r3, #4]
 8104878:	f403 3300 	and.w	r3, r3, #131072	; 0x20000
 810487c:	2b00      	cmp	r3, #0
 810487e:	d003      	beq.n	8104888 <HAL_GPIO_Init+0x308>
        {
          temp |= iocurrent;
 8104880:	69ba      	ldr	r2, [r7, #24]
 8104882:	693b      	ldr	r3, [r7, #16]
 8104884:	4313      	orrs	r3, r2
 8104886:	61bb      	str	r3, [r7, #24]
        }
        EXTI_CurrentCPU->EMR1 = temp;
 8104888:	697b      	ldr	r3, [r7, #20]
 810488a:	69ba      	ldr	r2, [r7, #24]
 810488c:	605a      	str	r2, [r3, #4]

        /* Clear EXTI line configuration */
        temp = EXTI_CurrentCPU->IMR1;
 810488e:	697b      	ldr	r3, [r7, #20]
 8104890:	681b      	ldr	r3, [r3, #0]
 8104892:	61bb      	str	r3, [r7, #24]
        temp &= ~(iocurrent);
 8104894:	693b      	ldr	r3, [r7, #16]
 8104896:	43db      	mvns	r3, r3
 8104898:	69ba      	ldr	r2, [r7, #24]
 810489a:	4013      	ands	r3, r2
 810489c:	61bb      	str	r3, [r7, #24]
        if ((GPIO_Init->Mode & EXTI_IT) != 0x00U)
 810489e:	683b      	ldr	r3, [r7, #0]
 81048a0:	685b      	ldr	r3, [r3, #4]
 81048a2:	f403 3380 	and.w	r3, r3, #65536	; 0x10000
 81048a6:	2b00      	cmp	r3, #0
 81048a8:	d003      	beq.n	81048b2 <HAL_GPIO_Init+0x332>
        {
          temp |= iocurrent;
 81048aa:	69ba      	ldr	r2, [r7, #24]
 81048ac:	693b      	ldr	r3, [r7, #16]
 81048ae:	4313      	orrs	r3, r2
 81048b0:	61bb      	str	r3, [r7, #24]
        }
        EXTI_CurrentCPU->IMR1 = temp;
 81048b2:	697b      	ldr	r3, [r7, #20]
 81048b4:	69ba      	ldr	r2, [r7, #24]
 81048b6:	601a      	str	r2, [r3, #0]
      }
    }

    position++;
 81048b8:	69fb      	ldr	r3, [r7, #28]
 81048ba:	3301      	adds	r3, #1
 81048bc:	61fb      	str	r3, [r7, #28]
  while (((GPIO_Init->Pin) >> position) != 0x00U)
 81048be:	683b      	ldr	r3, [r7, #0]
 81048c0:	681a      	ldr	r2, [r3, #0]
 81048c2:	69fb      	ldr	r3, [r7, #28]
 81048c4:	fa22 f303 	lsr.w	r3, r2, r3
 81048c8:	2b00      	cmp	r3, #0
 81048ca:	f47f ae63 	bne.w	8104594 <HAL_GPIO_Init+0x14>
  }
}
 81048ce:	bf00      	nop
 81048d0:	bf00      	nop
 81048d2:	3724      	adds	r7, #36	; 0x24
 81048d4:	46bd      	mov	sp, r7
 81048d6:	f85d 7b04 	ldr.w	r7, [sp], #4
 81048da:	4770      	bx	lr
 81048dc:	58000400 	.word	0x58000400

081048e0 <HAL_GPIO_ReadPin>:
  * @param  GPIO_Pin: specifies the port bit to read.
  *         This parameter can be GPIO_PIN_x where x can be (0..15).
  * @retval The input port pin value.
  */
GPIO_PinState HAL_GPIO_ReadPin(GPIO_TypeDef *GPIOx, uint16_t GPIO_Pin)
{
 81048e0:	b480      	push	{r7}
 81048e2:	b085      	sub	sp, #20
 81048e4:	af00      	add	r7, sp, #0
 81048e6:	6078      	str	r0, [r7, #4]
 81048e8:	460b      	mov	r3, r1
 81048ea:	807b      	strh	r3, [r7, #2]
  GPIO_PinState bitstatus;

  /* Check the parameters */
  assert_param(IS_GPIO_PIN(GPIO_Pin));

  if ((GPIOx->IDR & GPIO_Pin) != 0x00U)
 81048ec:	687b      	ldr	r3, [r7, #4]
 81048ee:	691a      	ldr	r2, [r3, #16]
 81048f0:	887b      	ldrh	r3, [r7, #2]
 81048f2:	4013      	ands	r3, r2
 81048f4:	2b00      	cmp	r3, #0
 81048f6:	d002      	beq.n	81048fe <HAL_GPIO_ReadPin+0x1e>
  {
    bitstatus = GPIO_PIN_SET;
 81048f8:	2301      	movs	r3, #1
 81048fa:	73fb      	strb	r3, [r7, #15]
 81048fc:	e001      	b.n	8104902 <HAL_GPIO_ReadPin+0x22>
  }
  else
  {
    bitstatus = GPIO_PIN_RESET;
 81048fe:	2300      	movs	r3, #0
 8104900:	73fb      	strb	r3, [r7, #15]
  }
  return bitstatus;
 8104902:	7bfb      	ldrb	r3, [r7, #15]
}
 8104904:	4618      	mov	r0, r3
 8104906:	3714      	adds	r7, #20
 8104908:	46bd      	mov	sp, r7
 810490a:	f85d 7b04 	ldr.w	r7, [sp], #4
 810490e:	4770      	bx	lr

08104910 <HAL_GPIO_WritePin>:
  *            @arg GPIO_PIN_RESET: to clear the port pin
  *            @arg GPIO_PIN_SET: to set the port pin
  * @retval None
  */
void HAL_GPIO_WritePin(GPIO_TypeDef *GPIOx, uint16_t GPIO_Pin, GPIO_PinState PinState)
{
 8104910:	b480      	push	{r7}
 8104912:	b083      	sub	sp, #12
 8104914:	af00      	add	r7, sp, #0
 8104916:	6078      	str	r0, [r7, #4]
 8104918:	460b      	mov	r3, r1
 810491a:	807b      	strh	r3, [r7, #2]
 810491c:	4613      	mov	r3, r2
 810491e:	707b      	strb	r3, [r7, #1]
  /* Check the parameters */
  assert_param(IS_GPIO_PIN(GPIO_Pin));
  assert_param(IS_GPIO_PIN_ACTION(PinState));

  if (PinState != GPIO_PIN_RESET)
 8104920:	787b      	ldrb	r3, [r7, #1]
 8104922:	2b00      	cmp	r3, #0
 8104924:	d003      	beq.n	810492e <HAL_GPIO_WritePin+0x1e>
  {
    GPIOx->BSRR = GPIO_Pin;
 8104926:	887a      	ldrh	r2, [r7, #2]
 8104928:	687b      	ldr	r3, [r7, #4]
 810492a:	619a      	str	r2, [r3, #24]
  }
  else
  {
    GPIOx->BSRR = (uint32_t)GPIO_Pin << GPIO_NUMBER;
  }
}
 810492c:	e003      	b.n	8104936 <HAL_GPIO_WritePin+0x26>
    GPIOx->BSRR = (uint32_t)GPIO_Pin << GPIO_NUMBER;
 810492e:	887b      	ldrh	r3, [r7, #2]
 8104930:	041a      	lsls	r2, r3, #16
 8104932:	687b      	ldr	r3, [r7, #4]
 8104934:	619a      	str	r2, [r3, #24]
}
 8104936:	bf00      	nop
 8104938:	370c      	adds	r7, #12
 810493a:	46bd      	mov	sp, r7
 810493c:	f85d 7b04 	ldr.w	r7, [sp], #4
 8104940:	4770      	bx	lr
	...

08104944 <HAL_HSEM_ActivateNotification>:
  * @brief  Activate Semaphore release Notification for a given Semaphores Mask .
  * @param  SemMask: Mask of Released semaphores
  * @retval Semaphore Key
  */
void HAL_HSEM_ActivateNotification(uint32_t SemMask)
{
 8104944:	b480      	push	{r7}
 8104946:	b083      	sub	sp, #12
 8104948:	af00      	add	r7, sp, #0
 810494a:	6078      	str	r0, [r7, #4]
  {
    /*Use interrupt line 1 for CPU2 Master*/
    HSEM->C2IER |= SemMask;
  }
#else
  HSEM_COMMON->IER |= SemMask;
 810494c:	4b05      	ldr	r3, [pc, #20]	; (8104964 <HAL_HSEM_ActivateNotification+0x20>)
 810494e:	681a      	ldr	r2, [r3, #0]
 8104950:	4904      	ldr	r1, [pc, #16]	; (8104964 <HAL_HSEM_ActivateNotification+0x20>)
 8104952:	687b      	ldr	r3, [r7, #4]
 8104954:	4313      	orrs	r3, r2
 8104956:	600b      	str	r3, [r1, #0]
#endif
}
 8104958:	bf00      	nop
 810495a:	370c      	adds	r7, #12
 810495c:	46bd      	mov	sp, r7
 810495e:	f85d 7b04 	ldr.w	r7, [sp], #4
 8104962:	4770      	bx	lr
 8104964:	58026510 	.word	0x58026510

08104968 <HAL_HSEM_IRQHandler>:
/**
  * @brief  This function handles HSEM interrupt request
  * @retval None
  */
void HAL_HSEM_IRQHandler(void)
{
 8104968:	b580      	push	{r7, lr}
 810496a:	b082      	sub	sp, #8
 810496c:	af00      	add	r7, sp, #0
    /*Clear Flags*/
    HSEM->C2ICR = ((uint32_t)statusreg);
  }
#else
  /* Get the list of masked freed semaphores*/
  statusreg = HSEM_COMMON->MISR;
 810496e:	4b0a      	ldr	r3, [pc, #40]	; (8104998 <HAL_HSEM_IRQHandler+0x30>)
 8104970:	68db      	ldr	r3, [r3, #12]
 8104972:	607b      	str	r3, [r7, #4]

  /*Disable Interrupts*/
  HSEM_COMMON->IER &= ~((uint32_t)statusreg);
 8104974:	4b08      	ldr	r3, [pc, #32]	; (8104998 <HAL_HSEM_IRQHandler+0x30>)
 8104976:	681a      	ldr	r2, [r3, #0]
 8104978:	687b      	ldr	r3, [r7, #4]
 810497a:	43db      	mvns	r3, r3
 810497c:	4906      	ldr	r1, [pc, #24]	; (8104998 <HAL_HSEM_IRQHandler+0x30>)
 810497e:	4013      	ands	r3, r2
 8104980:	600b      	str	r3, [r1, #0]

  /*Clear Flags*/
  HSEM_COMMON->ICR = ((uint32_t)statusreg);
 8104982:	4a05      	ldr	r2, [pc, #20]	; (8104998 <HAL_HSEM_IRQHandler+0x30>)
 8104984:	687b      	ldr	r3, [r7, #4]
 8104986:	6053      	str	r3, [r2, #4]

#endif
  /* Call FreeCallback */
  HAL_HSEM_FreeCallback(statusreg);
 8104988:	6878      	ldr	r0, [r7, #4]
 810498a:	f000 f807 	bl	810499c <HAL_HSEM_FreeCallback>
}
 810498e:	bf00      	nop
 8104990:	3708      	adds	r7, #8
 8104992:	46bd      	mov	sp, r7
 8104994:	bd80      	pop	{r7, pc}
 8104996:	bf00      	nop
 8104998:	58026510 	.word	0x58026510

0810499c <HAL_HSEM_FreeCallback>:
  * @brief Semaphore Released Callback.
  * @param SemMask: Mask of Released semaphores
  * @retval None
  */
__weak void HAL_HSEM_FreeCallback(uint32_t SemMask)
{
 810499c:	b480      	push	{r7}
 810499e:	b083      	sub	sp, #12
 81049a0:	af00      	add	r7, sp, #0
 81049a2:	6078      	str	r0, [r7, #4]
  UNUSED(SemMask);

  /* NOTE : This function should not be modified, when the callback is needed,
  the HAL_HSEM_FreeCallback can be implemented in the user file
    */
}
 81049a4:	bf00      	nop
 81049a6:	370c      	adds	r7, #12
 81049a8:	46bd      	mov	sp, r7
 81049aa:	f85d 7b04 	ldr.w	r7, [sp], #4
 81049ae:	4770      	bx	lr

081049b0 <HAL_PWREx_EnterSTOPMode>:
  *            @arg PWR_D2_DOMAIN : Enter D2 Domain to DSTOP mode.
  *            @arg PWR_D3_DOMAIN : Enter D3/SRD Domain to DSTOP mode.
  * @retval None.
  */
void HAL_PWREx_EnterSTOPMode (uint32_t Regulator, uint8_t STOPEntry, uint32_t Domain)
{
 81049b0:	b580      	push	{r7, lr}
 81049b2:	b084      	sub	sp, #16
 81049b4:	af00      	add	r7, sp, #0
 81049b6:	60f8      	str	r0, [r7, #12]
 81049b8:	460b      	mov	r3, r1
 81049ba:	607a      	str	r2, [r7, #4]
 81049bc:	72fb      	strb	r3, [r7, #11]
  assert_param (IS_PWR_REGULATOR (Regulator));
  assert_param (IS_PWR_STOP_ENTRY (STOPEntry));
  assert_param (IS_PWR_DOMAIN (Domain));

  /* Select the regulator state in Stop mode */
  MODIFY_REG (PWR->CR1, PWR_CR1_LPDS, Regulator);
 81049be:	4b37      	ldr	r3, [pc, #220]	; (8104a9c <HAL_PWREx_EnterSTOPMode+0xec>)
 81049c0:	681b      	ldr	r3, [r3, #0]
 81049c2:	f023 0201 	bic.w	r2, r3, #1
 81049c6:	4935      	ldr	r1, [pc, #212]	; (8104a9c <HAL_PWREx_EnterSTOPMode+0xec>)
 81049c8:	68fb      	ldr	r3, [r7, #12]
 81049ca:	4313      	orrs	r3, r2
 81049cc:	600b      	str	r3, [r1, #0]

  /* Select the domain Power Down DeepSleep */
  if (Domain == PWR_D1_DOMAIN)
 81049ce:	687b      	ldr	r3, [r7, #4]
 81049d0:	2b00      	cmp	r3, #0
 81049d2:	d123      	bne.n	8104a1c <HAL_PWREx_EnterSTOPMode+0x6c>
  {
#if defined (DUAL_CORE)
    /* Check current core */
    if (HAL_GetCurrentCPUID () != CM7_CPUID)
 81049d4:	f7ff fdc0 	bl	8104558 <HAL_GetCurrentCPUID>
 81049d8:	4603      	mov	r3, r0
 81049da:	2b03      	cmp	r3, #3
 81049dc:	d158      	bne.n	8104a90 <HAL_PWREx_EnterSTOPMode+0xe0>
      return;
    }
#endif /* defined (DUAL_CORE) */

    /* Keep DSTOP mode when D1/CD domain enters Deepsleep */
    CLEAR_BIT (PWR->CPUCR, PWR_CPUCR_PDDS_D1);
 81049de:	4b2f      	ldr	r3, [pc, #188]	; (8104a9c <HAL_PWREx_EnterSTOPMode+0xec>)
 81049e0:	691b      	ldr	r3, [r3, #16]
 81049e2:	4a2e      	ldr	r2, [pc, #184]	; (8104a9c <HAL_PWREx_EnterSTOPMode+0xec>)
 81049e4:	f023 0301 	bic.w	r3, r3, #1
 81049e8:	6113      	str	r3, [r2, #16]

    /* Set SLEEPDEEP bit of Cortex System Control Register */
    SET_BIT (SCB->SCR, SCB_SCR_SLEEPDEEP_Msk);
 81049ea:	4b2d      	ldr	r3, [pc, #180]	; (8104aa0 <HAL_PWREx_EnterSTOPMode+0xf0>)
 81049ec:	691b      	ldr	r3, [r3, #16]
 81049ee:	4a2c      	ldr	r2, [pc, #176]	; (8104aa0 <HAL_PWREx_EnterSTOPMode+0xf0>)
 81049f0:	f043 0304 	orr.w	r3, r3, #4
 81049f4:	6113      	str	r3, [r2, #16]
  __ASM volatile ("dsb 0xF":::"memory");
 81049f6:	f3bf 8f4f 	dsb	sy
}
 81049fa:	bf00      	nop
  __ASM volatile ("isb 0xF":::"memory");
 81049fc:	f3bf 8f6f 	isb	sy
}
 8104a00:	bf00      	nop
    /* Ensure that all instructions are done before entering STOP mode */
    __DSB ();
    __ISB ();

    /* Select Stop mode entry */
    if (STOPEntry == PWR_STOPENTRY_WFI)
 8104a02:	7afb      	ldrb	r3, [r7, #11]
 8104a04:	2b01      	cmp	r3, #1
 8104a06:	d101      	bne.n	8104a0c <HAL_PWREx_EnterSTOPMode+0x5c>
    {
      /* Request Wait For Interrupt */
      __WFI ();
 8104a08:	bf30      	wfi
 8104a0a:	e000      	b.n	8104a0e <HAL_PWREx_EnterSTOPMode+0x5e>
    }
    else
    {
      /* Request Wait For Event */
      __WFE ();
 8104a0c:	bf20      	wfe
    }

    /* Clear SLEEPDEEP bit of Cortex-Mx in the System Control Register */
    CLEAR_BIT (SCB->SCR, SCB_SCR_SLEEPDEEP_Msk);
 8104a0e:	4b24      	ldr	r3, [pc, #144]	; (8104aa0 <HAL_PWREx_EnterSTOPMode+0xf0>)
 8104a10:	691b      	ldr	r3, [r3, #16]
 8104a12:	4a23      	ldr	r2, [pc, #140]	; (8104aa0 <HAL_PWREx_EnterSTOPMode+0xf0>)
 8104a14:	f023 0304 	bic.w	r3, r3, #4
 8104a18:	6113      	str	r3, [r2, #16]
 8104a1a:	e03c      	b.n	8104a96 <HAL_PWREx_EnterSTOPMode+0xe6>
  }
#if defined (PWR_CPUCR_PDDS_D2)
  else if (Domain == PWR_D2_DOMAIN)
 8104a1c:	687b      	ldr	r3, [r7, #4]
 8104a1e:	2b01      	cmp	r3, #1
 8104a20:	d123      	bne.n	8104a6a <HAL_PWREx_EnterSTOPMode+0xba>
  {
#if defined (DUAL_CORE)
    /* Check current core */
    if (HAL_GetCurrentCPUID () != CM4_CPUID)
 8104a22:	f7ff fd99 	bl	8104558 <HAL_GetCurrentCPUID>
 8104a26:	4603      	mov	r3, r0
 8104a28:	2b01      	cmp	r3, #1
 8104a2a:	d133      	bne.n	8104a94 <HAL_PWREx_EnterSTOPMode+0xe4>
      */
      return;
    }

    /* Keep DSTOP mode when D2 domain enters Deepsleep */
    CLEAR_BIT (PWR->CPU2CR, PWR_CPU2CR_PDDS_D2);
 8104a2c:	4b1b      	ldr	r3, [pc, #108]	; (8104a9c <HAL_PWREx_EnterSTOPMode+0xec>)
 8104a2e:	695b      	ldr	r3, [r3, #20]
 8104a30:	4a1a      	ldr	r2, [pc, #104]	; (8104a9c <HAL_PWREx_EnterSTOPMode+0xec>)
 8104a32:	f023 0302 	bic.w	r3, r3, #2
 8104a36:	6153      	str	r3, [r2, #20]

    /* Set SLEEPDEEP bit of Cortex System Control Register */
    SET_BIT (SCB->SCR, SCB_SCR_SLEEPDEEP_Msk);
 8104a38:	4b19      	ldr	r3, [pc, #100]	; (8104aa0 <HAL_PWREx_EnterSTOPMode+0xf0>)
 8104a3a:	691b      	ldr	r3, [r3, #16]
 8104a3c:	4a18      	ldr	r2, [pc, #96]	; (8104aa0 <HAL_PWREx_EnterSTOPMode+0xf0>)
 8104a3e:	f043 0304 	orr.w	r3, r3, #4
 8104a42:	6113      	str	r3, [r2, #16]
  __ASM volatile ("dsb 0xF":::"memory");
 8104a44:	f3bf 8f4f 	dsb	sy
}
 8104a48:	bf00      	nop
  __ASM volatile ("isb 0xF":::"memory");
 8104a4a:	f3bf 8f6f 	isb	sy
}
 8104a4e:	bf00      	nop
    /* Ensure that all instructions are done before entering STOP mode */
    __DSB ();
    __ISB ();

    /* Select Stop mode entry */
    if (STOPEntry == PWR_STOPENTRY_WFI)
 8104a50:	7afb      	ldrb	r3, [r7, #11]
 8104a52:	2b01      	cmp	r3, #1
 8104a54:	d101      	bne.n	8104a5a <HAL_PWREx_EnterSTOPMode+0xaa>
    {
      /* Request Wait For Interrupt */
      __WFI ();
 8104a56:	bf30      	wfi
 8104a58:	e000      	b.n	8104a5c <HAL_PWREx_EnterSTOPMode+0xac>
    }
    else
    {
      /* Request Wait For Event */
      __WFE ();
 8104a5a:	bf20      	wfe
    }

    /* Clear SLEEPDEEP bit of Cortex-Mx in the System Control Register */
    CLEAR_BIT (SCB->SCR, SCB_SCR_SLEEPDEEP_Msk);
 8104a5c:	4b10      	ldr	r3, [pc, #64]	; (8104aa0 <HAL_PWREx_EnterSTOPMode+0xf0>)
 8104a5e:	691b      	ldr	r3, [r3, #16]
 8104a60:	4a0f      	ldr	r2, [pc, #60]	; (8104aa0 <HAL_PWREx_EnterSTOPMode+0xf0>)
 8104a62:	f023 0304 	bic.w	r3, r3, #4
 8104a66:	6113      	str	r3, [r2, #16]
 8104a68:	e015      	b.n	8104a96 <HAL_PWREx_EnterSTOPMode+0xe6>
#endif /* defined (PWR_CPUCR_PDDS_D2) */
  else
  {
#if defined (DUAL_CORE)
    /* Check current core */
    if (HAL_GetCurrentCPUID () == CM7_CPUID)
 8104a6a:	f7ff fd75 	bl	8104558 <HAL_GetCurrentCPUID>
 8104a6e:	4603      	mov	r3, r0
 8104a70:	2b03      	cmp	r3, #3
 8104a72:	d106      	bne.n	8104a82 <HAL_PWREx_EnterSTOPMode+0xd2>
    {
      /* Keep DSTOP mode when D3 domain enters Deepsleep */
      CLEAR_BIT (PWR->CPUCR, PWR_CPUCR_PDDS_D3);
 8104a74:	4b09      	ldr	r3, [pc, #36]	; (8104a9c <HAL_PWREx_EnterSTOPMode+0xec>)
 8104a76:	691b      	ldr	r3, [r3, #16]
 8104a78:	4a08      	ldr	r2, [pc, #32]	; (8104a9c <HAL_PWREx_EnterSTOPMode+0xec>)
 8104a7a:	f023 0304 	bic.w	r3, r3, #4
 8104a7e:	6113      	str	r3, [r2, #16]
 8104a80:	e009      	b.n	8104a96 <HAL_PWREx_EnterSTOPMode+0xe6>
    }
    else
    {
      /* Keep DSTOP mode when D3 domain enters Deepsleep */
      CLEAR_BIT (PWR->CPU2CR, PWR_CPU2CR_PDDS_D3);
 8104a82:	4b06      	ldr	r3, [pc, #24]	; (8104a9c <HAL_PWREx_EnterSTOPMode+0xec>)
 8104a84:	695b      	ldr	r3, [r3, #20]
 8104a86:	4a05      	ldr	r2, [pc, #20]	; (8104a9c <HAL_PWREx_EnterSTOPMode+0xec>)
 8104a88:	f023 0304 	bic.w	r3, r3, #4
 8104a8c:	6153      	str	r3, [r2, #20]
 8104a8e:	e002      	b.n	8104a96 <HAL_PWREx_EnterSTOPMode+0xe6>
      return;
 8104a90:	bf00      	nop
 8104a92:	e000      	b.n	8104a96 <HAL_PWREx_EnterSTOPMode+0xe6>
      return;
 8104a94:	bf00      	nop
#else
    /* Keep DSTOP mode when D3/SRD domain enters Deepsleep */
    CLEAR_BIT (PWR->CPUCR, PWR_CPUCR_PDDS_D3);
#endif  /* defined (DUAL_CORE) */
  }
}
 8104a96:	3710      	adds	r7, #16
 8104a98:	46bd      	mov	sp, r7
 8104a9a:	bd80      	pop	{r7, pc}
 8104a9c:	58024800 	.word	0x58024800
 8104aa0:	e000ed00 	.word	0xe000ed00

08104aa4 <HAL_PWREx_ClearPendingEvent>:
  *         enter low power mode using Wait For Event request.
  * @note   Cortex-M7 must be in CRUN mode when calling this API by Cortex-M4.
  * @retval None.
  */
void HAL_PWREx_ClearPendingEvent (void)
{
 8104aa4:	b580      	push	{r7, lr}
 8104aa6:	af00      	add	r7, sp, #0
#if defined (DUAL_CORE)
  /* Check the current Core */
  if (HAL_GetCurrentCPUID () == CM7_CPUID)
 8104aa8:	f7ff fd56 	bl	8104558 <HAL_GetCurrentCPUID>
 8104aac:	4603      	mov	r3, r0
 8104aae:	2b03      	cmp	r3, #3
 8104ab0:	d101      	bne.n	8104ab6 <HAL_PWREx_ClearPendingEvent+0x12>
  {
    __WFE ();
 8104ab2:	bf20      	wfe
    __WFE ();
  }
#else
  __WFE ();
#endif /* defined (DUAL_CORE) */
}
 8104ab4:	e001      	b.n	8104aba <HAL_PWREx_ClearPendingEvent+0x16>
    __SEV ();
 8104ab6:	bf40      	sev
    __WFE ();
 8104ab8:	bf20      	wfe
}
 8104aba:	bf00      	nop
 8104abc:	bd80      	pop	{r7, pc}
	...

08104ac0 <HAL_RCC_GetSysClockFreq>:
  *
  *
  * @retval SYSCLK frequency
  */
uint32_t HAL_RCC_GetSysClockFreq(void)
{
 8104ac0:	b480      	push	{r7}
 8104ac2:	b089      	sub	sp, #36	; 0x24
 8104ac4:	af00      	add	r7, sp, #0
  float_t fracn1, pllvco;
  uint32_t sysclockfreq;

  /* Get SYSCLK source -------------------------------------------------------*/

  switch (RCC->CFGR & RCC_CFGR_SWS)
 8104ac6:	4bb3      	ldr	r3, [pc, #716]	; (8104d94 <HAL_RCC_GetSysClockFreq+0x2d4>)
 8104ac8:	691b      	ldr	r3, [r3, #16]
 8104aca:	f003 0338 	and.w	r3, r3, #56	; 0x38
 8104ace:	2b18      	cmp	r3, #24
 8104ad0:	f200 8155 	bhi.w	8104d7e <HAL_RCC_GetSysClockFreq+0x2be>
 8104ad4:	a201      	add	r2, pc, #4	; (adr r2, 8104adc <HAL_RCC_GetSysClockFreq+0x1c>)
 8104ad6:	f852 f023 	ldr.w	pc, [r2, r3, lsl #2]
 8104ada:	bf00      	nop
 8104adc:	08104b41 	.word	0x08104b41
 8104ae0:	08104d7f 	.word	0x08104d7f
 8104ae4:	08104d7f 	.word	0x08104d7f
 8104ae8:	08104d7f 	.word	0x08104d7f
 8104aec:	08104d7f 	.word	0x08104d7f
 8104af0:	08104d7f 	.word	0x08104d7f
 8104af4:	08104d7f 	.word	0x08104d7f
 8104af8:	08104d7f 	.word	0x08104d7f
 8104afc:	08104b67 	.word	0x08104b67
 8104b00:	08104d7f 	.word	0x08104d7f
 8104b04:	08104d7f 	.word	0x08104d7f
 8104b08:	08104d7f 	.word	0x08104d7f
 8104b0c:	08104d7f 	.word	0x08104d7f
 8104b10:	08104d7f 	.word	0x08104d7f
 8104b14:	08104d7f 	.word	0x08104d7f
 8104b18:	08104d7f 	.word	0x08104d7f
 8104b1c:	08104b6d 	.word	0x08104b6d
 8104b20:	08104d7f 	.word	0x08104d7f
 8104b24:	08104d7f 	.word	0x08104d7f
 8104b28:	08104d7f 	.word	0x08104d7f
 8104b2c:	08104d7f 	.word	0x08104d7f
 8104b30:	08104d7f 	.word	0x08104d7f
 8104b34:	08104d7f 	.word	0x08104d7f
 8104b38:	08104d7f 	.word	0x08104d7f
 8104b3c:	08104b73 	.word	0x08104b73
  {
  case RCC_CFGR_SWS_HSI:  /* HSI used as system clock source */

   if (__HAL_RCC_GET_FLAG(RCC_FLAG_HSIDIV) != 0U)
 8104b40:	4b94      	ldr	r3, [pc, #592]	; (8104d94 <HAL_RCC_GetSysClockFreq+0x2d4>)
 8104b42:	681b      	ldr	r3, [r3, #0]
 8104b44:	f003 0320 	and.w	r3, r3, #32
 8104b48:	2b00      	cmp	r3, #0
 8104b4a:	d009      	beq.n	8104b60 <HAL_RCC_GetSysClockFreq+0xa0>
      {
        sysclockfreq = (uint32_t) (HSI_VALUE >> (__HAL_RCC_GET_HSI_DIVIDER()>> 3));
 8104b4c:	4b91      	ldr	r3, [pc, #580]	; (8104d94 <HAL_RCC_GetSysClockFreq+0x2d4>)
 8104b4e:	681b      	ldr	r3, [r3, #0]
 8104b50:	08db      	lsrs	r3, r3, #3
 8104b52:	f003 0303 	and.w	r3, r3, #3
 8104b56:	4a90      	ldr	r2, [pc, #576]	; (8104d98 <HAL_RCC_GetSysClockFreq+0x2d8>)
 8104b58:	fa22 f303 	lsr.w	r3, r2, r3
 8104b5c:	61bb      	str	r3, [r7, #24]
      else
      {
        sysclockfreq = (uint32_t) HSI_VALUE;
      }

    break;
 8104b5e:	e111      	b.n	8104d84 <HAL_RCC_GetSysClockFreq+0x2c4>
        sysclockfreq = (uint32_t) HSI_VALUE;
 8104b60:	4b8d      	ldr	r3, [pc, #564]	; (8104d98 <HAL_RCC_GetSysClockFreq+0x2d8>)
 8104b62:	61bb      	str	r3, [r7, #24]
    break;
 8104b64:	e10e      	b.n	8104d84 <HAL_RCC_GetSysClockFreq+0x2c4>

  case RCC_CFGR_SWS_CSI:  /* CSI used as system clock  source */
    sysclockfreq = CSI_VALUE;
 8104b66:	4b8d      	ldr	r3, [pc, #564]	; (8104d9c <HAL_RCC_GetSysClockFreq+0x2dc>)
 8104b68:	61bb      	str	r3, [r7, #24]
    break;
 8104b6a:	e10b      	b.n	8104d84 <HAL_RCC_GetSysClockFreq+0x2c4>

  case RCC_CFGR_SWS_HSE:  /* HSE used as system clock  source */
    sysclockfreq = HSE_VALUE;
 8104b6c:	4b8c      	ldr	r3, [pc, #560]	; (8104da0 <HAL_RCC_GetSysClockFreq+0x2e0>)
 8104b6e:	61bb      	str	r3, [r7, #24]
    break;
 8104b70:	e108      	b.n	8104d84 <HAL_RCC_GetSysClockFreq+0x2c4>
  case RCC_CFGR_SWS_PLL1:  /* PLL1 used as system clock  source */

    /* PLL_VCO = (HSE_VALUE or HSI_VALUE or CSI_VALUE/ PLLM) * PLLN
    SYSCLK = PLL_VCO / PLLR
    */
    pllsource = (RCC->PLLCKSELR & RCC_PLLCKSELR_PLLSRC);
 8104b72:	4b88      	ldr	r3, [pc, #544]	; (8104d94 <HAL_RCC_GetSysClockFreq+0x2d4>)
 8104b74:	6a9b      	ldr	r3, [r3, #40]	; 0x28
 8104b76:	f003 0303 	and.w	r3, r3, #3
 8104b7a:	617b      	str	r3, [r7, #20]
    pllm = ((RCC->PLLCKSELR & RCC_PLLCKSELR_DIVM1)>> 4)  ;
 8104b7c:	4b85      	ldr	r3, [pc, #532]	; (8104d94 <HAL_RCC_GetSysClockFreq+0x2d4>)
 8104b7e:	6a9b      	ldr	r3, [r3, #40]	; 0x28
 8104b80:	091b      	lsrs	r3, r3, #4
 8104b82:	f003 033f 	and.w	r3, r3, #63	; 0x3f
 8104b86:	613b      	str	r3, [r7, #16]
    pllfracen = ((RCC-> PLLCFGR & RCC_PLLCFGR_PLL1FRACEN)>>RCC_PLLCFGR_PLL1FRACEN_Pos);
 8104b88:	4b82      	ldr	r3, [pc, #520]	; (8104d94 <HAL_RCC_GetSysClockFreq+0x2d4>)
 8104b8a:	6adb      	ldr	r3, [r3, #44]	; 0x2c
 8104b8c:	f003 0301 	and.w	r3, r3, #1
 8104b90:	60fb      	str	r3, [r7, #12]
    fracn1 = (float_t)(uint32_t)(pllfracen* ((RCC->PLL1FRACR & RCC_PLL1FRACR_FRACN1)>> 3));
 8104b92:	4b80      	ldr	r3, [pc, #512]	; (8104d94 <HAL_RCC_GetSysClockFreq+0x2d4>)
 8104b94:	6b5b      	ldr	r3, [r3, #52]	; 0x34
 8104b96:	08db      	lsrs	r3, r3, #3
 8104b98:	f3c3 030c 	ubfx	r3, r3, #0, #13
 8104b9c:	68fa      	ldr	r2, [r7, #12]
 8104b9e:	fb02 f303 	mul.w	r3, r2, r3
 8104ba2:	ee07 3a90 	vmov	s15, r3
 8104ba6:	eef8 7a67 	vcvt.f32.u32	s15, s15
 8104baa:	edc7 7a02 	vstr	s15, [r7, #8]

    if (pllm != 0U)
 8104bae:	693b      	ldr	r3, [r7, #16]
 8104bb0:	2b00      	cmp	r3, #0
 8104bb2:	f000 80e1 	beq.w	8104d78 <HAL_RCC_GetSysClockFreq+0x2b8>
 8104bb6:	697b      	ldr	r3, [r7, #20]
 8104bb8:	2b02      	cmp	r3, #2
 8104bba:	f000 8083 	beq.w	8104cc4 <HAL_RCC_GetSysClockFreq+0x204>
 8104bbe:	697b      	ldr	r3, [r7, #20]
 8104bc0:	2b02      	cmp	r3, #2
 8104bc2:	f200 80a1 	bhi.w	8104d08 <HAL_RCC_GetSysClockFreq+0x248>
 8104bc6:	697b      	ldr	r3, [r7, #20]
 8104bc8:	2b00      	cmp	r3, #0
 8104bca:	d003      	beq.n	8104bd4 <HAL_RCC_GetSysClockFreq+0x114>
 8104bcc:	697b      	ldr	r3, [r7, #20]
 8104bce:	2b01      	cmp	r3, #1
 8104bd0:	d056      	beq.n	8104c80 <HAL_RCC_GetSysClockFreq+0x1c0>
 8104bd2:	e099      	b.n	8104d08 <HAL_RCC_GetSysClockFreq+0x248>
    {
      switch (pllsource)
      {
      case RCC_PLLSOURCE_HSI:  /* HSI used as PLL clock source */

       if (__HAL_RCC_GET_FLAG(RCC_FLAG_HSIDIV) != 0U)
 8104bd4:	4b6f      	ldr	r3, [pc, #444]	; (8104d94 <HAL_RCC_GetSysClockFreq+0x2d4>)
 8104bd6:	681b      	ldr	r3, [r3, #0]
 8104bd8:	f003 0320 	and.w	r3, r3, #32
 8104bdc:	2b00      	cmp	r3, #0
 8104bde:	d02d      	beq.n	8104c3c <HAL_RCC_GetSysClockFreq+0x17c>
        {
          hsivalue= (HSI_VALUE >> (__HAL_RCC_GET_HSI_DIVIDER()>> 3));
 8104be0:	4b6c      	ldr	r3, [pc, #432]	; (8104d94 <HAL_RCC_GetSysClockFreq+0x2d4>)
 8104be2:	681b      	ldr	r3, [r3, #0]
 8104be4:	08db      	lsrs	r3, r3, #3
 8104be6:	f003 0303 	and.w	r3, r3, #3
 8104bea:	4a6b      	ldr	r2, [pc, #428]	; (8104d98 <HAL_RCC_GetSysClockFreq+0x2d8>)
 8104bec:	fa22 f303 	lsr.w	r3, r2, r3
 8104bf0:	607b      	str	r3, [r7, #4]
          pllvco = ( (float_t)hsivalue / (float_t)pllm) * ((float_t)(uint32_t)(RCC->PLL1DIVR & RCC_PLL1DIVR_N1) + (fracn1/(float_t)0x2000) +(float_t)1 );
 8104bf2:	687b      	ldr	r3, [r7, #4]
 8104bf4:	ee07 3a90 	vmov	s15, r3
 8104bf8:	eef8 6a67 	vcvt.f32.u32	s13, s15
 8104bfc:	693b      	ldr	r3, [r7, #16]
 8104bfe:	ee07 3a90 	vmov	s15, r3
 8104c02:	eef8 7a67 	vcvt.f32.u32	s15, s15
 8104c06:	ee86 7aa7 	vdiv.f32	s14, s13, s15
 8104c0a:	4b62      	ldr	r3, [pc, #392]	; (8104d94 <HAL_RCC_GetSysClockFreq+0x2d4>)
 8104c0c:	6b1b      	ldr	r3, [r3, #48]	; 0x30
 8104c0e:	f3c3 0308 	ubfx	r3, r3, #0, #9
 8104c12:	ee07 3a90 	vmov	s15, r3
 8104c16:	eef8 6a67 	vcvt.f32.u32	s13, s15
 8104c1a:	ed97 6a02 	vldr	s12, [r7, #8]
 8104c1e:	eddf 5a61 	vldr	s11, [pc, #388]	; 8104da4 <HAL_RCC_GetSysClockFreq+0x2e4>
 8104c22:	eec6 7a25 	vdiv.f32	s15, s12, s11
 8104c26:	ee76 7aa7 	vadd.f32	s15, s13, s15
 8104c2a:	eef7 6a00 	vmov.f32	s13, #112	; 0x3f800000  1.0
 8104c2e:	ee77 7aa6 	vadd.f32	s15, s15, s13
 8104c32:	ee67 7a27 	vmul.f32	s15, s14, s15
 8104c36:	edc7 7a07 	vstr	s15, [r7, #28]
        }
        else
        {
          pllvco = ((float_t)HSI_VALUE / (float_t)pllm) * ((float_t)(uint32_t)(RCC->PLL1DIVR & RCC_PLL1DIVR_N1) + (fracn1/(float_t)0x2000) +(float_t)1 );
        }
        break;
 8104c3a:	e087      	b.n	8104d4c <HAL_RCC_GetSysClockFreq+0x28c>
          pllvco = ((float_t)HSI_VALUE / (float_t)pllm) * ((float_t)(uint32_t)(RCC->PLL1DIVR & RCC_PLL1DIVR_N1) + (fracn1/(float_t)0x2000) +(float_t)1 );
 8104c3c:	693b      	ldr	r3, [r7, #16]
 8104c3e:	ee07 3a90 	vmov	s15, r3
 8104c42:	eef8 7a67 	vcvt.f32.u32	s15, s15
 8104c46:	eddf 6a58 	vldr	s13, [pc, #352]	; 8104da8 <HAL_RCC_GetSysClockFreq+0x2e8>
 8104c4a:	ee86 7aa7 	vdiv.f32	s14, s13, s15
 8104c4e:	4b51      	ldr	r3, [pc, #324]	; (8104d94 <HAL_RCC_GetSysClockFreq+0x2d4>)
 8104c50:	6b1b      	ldr	r3, [r3, #48]	; 0x30
 8104c52:	f3c3 0308 	ubfx	r3, r3, #0, #9
 8104c56:	ee07 3a90 	vmov	s15, r3
 8104c5a:	eef8 6a67 	vcvt.f32.u32	s13, s15
 8104c5e:	ed97 6a02 	vldr	s12, [r7, #8]
 8104c62:	eddf 5a50 	vldr	s11, [pc, #320]	; 8104da4 <HAL_RCC_GetSysClockFreq+0x2e4>
 8104c66:	eec6 7a25 	vdiv.f32	s15, s12, s11
 8104c6a:	ee76 7aa7 	vadd.f32	s15, s13, s15
 8104c6e:	eef7 6a00 	vmov.f32	s13, #112	; 0x3f800000  1.0
 8104c72:	ee77 7aa6 	vadd.f32	s15, s15, s13
 8104c76:	ee67 7a27 	vmul.f32	s15, s14, s15
 8104c7a:	edc7 7a07 	vstr	s15, [r7, #28]
        break;
 8104c7e:	e065      	b.n	8104d4c <HAL_RCC_GetSysClockFreq+0x28c>

      case RCC_PLLSOURCE_CSI:  /* CSI used as PLL clock source */
        pllvco = ((float_t)CSI_VALUE / (float_t)pllm) * ((float_t)(uint32_t)(RCC->PLL1DIVR & RCC_PLL1DIVR_N1) + (fracn1/(float_t)0x2000) +(float_t)1 );
 8104c80:	693b      	ldr	r3, [r7, #16]
 8104c82:	ee07 3a90 	vmov	s15, r3
 8104c86:	eef8 7a67 	vcvt.f32.u32	s15, s15
 8104c8a:	eddf 6a48 	vldr	s13, [pc, #288]	; 8104dac <HAL_RCC_GetSysClockFreq+0x2ec>
 8104c8e:	ee86 7aa7 	vdiv.f32	s14, s13, s15
 8104c92:	4b40      	ldr	r3, [pc, #256]	; (8104d94 <HAL_RCC_GetSysClockFreq+0x2d4>)
 8104c94:	6b1b      	ldr	r3, [r3, #48]	; 0x30
 8104c96:	f3c3 0308 	ubfx	r3, r3, #0, #9
 8104c9a:	ee07 3a90 	vmov	s15, r3
 8104c9e:	eef8 6a67 	vcvt.f32.u32	s13, s15
 8104ca2:	ed97 6a02 	vldr	s12, [r7, #8]
 8104ca6:	eddf 5a3f 	vldr	s11, [pc, #252]	; 8104da4 <HAL_RCC_GetSysClockFreq+0x2e4>
 8104caa:	eec6 7a25 	vdiv.f32	s15, s12, s11
 8104cae:	ee76 7aa7 	vadd.f32	s15, s13, s15
 8104cb2:	eef7 6a00 	vmov.f32	s13, #112	; 0x3f800000  1.0
 8104cb6:	ee77 7aa6 	vadd.f32	s15, s15, s13
 8104cba:	ee67 7a27 	vmul.f32	s15, s14, s15
 8104cbe:	edc7 7a07 	vstr	s15, [r7, #28]
        break;
 8104cc2:	e043      	b.n	8104d4c <HAL_RCC_GetSysClockFreq+0x28c>

      case RCC_PLLSOURCE_HSE:  /* HSE used as PLL clock source */
        pllvco = ((float_t)HSE_VALUE / (float_t)pllm) * ((float_t)(uint32_t)(RCC->PLL1DIVR & RCC_PLL1DIVR_N1) + (fracn1/(float_t)0x2000) +(float_t)1 );
 8104cc4:	693b      	ldr	r3, [r7, #16]
 8104cc6:	ee07 3a90 	vmov	s15, r3
 8104cca:	eef8 7a67 	vcvt.f32.u32	s15, s15
 8104cce:	eddf 6a38 	vldr	s13, [pc, #224]	; 8104db0 <HAL_RCC_GetSysClockFreq+0x2f0>
 8104cd2:	ee86 7aa7 	vdiv.f32	s14, s13, s15
 8104cd6:	4b2f      	ldr	r3, [pc, #188]	; (8104d94 <HAL_RCC_GetSysClockFreq+0x2d4>)
 8104cd8:	6b1b      	ldr	r3, [r3, #48]	; 0x30
 8104cda:	f3c3 0308 	ubfx	r3, r3, #0, #9
 8104cde:	ee07 3a90 	vmov	s15, r3
 8104ce2:	eef8 6a67 	vcvt.f32.u32	s13, s15
 8104ce6:	ed97 6a02 	vldr	s12, [r7, #8]
 8104cea:	eddf 5a2e 	vldr	s11, [pc, #184]	; 8104da4 <HAL_RCC_GetSysClockFreq+0x2e4>
 8104cee:	eec6 7a25 	vdiv.f32	s15, s12, s11
 8104cf2:	ee76 7aa7 	vadd.f32	s15, s13, s15
 8104cf6:	eef7 6a00 	vmov.f32	s13, #112	; 0x3f800000  1.0
 8104cfa:	ee77 7aa6 	vadd.f32	s15, s15, s13
 8104cfe:	ee67 7a27 	vmul.f32	s15, s14, s15
 8104d02:	edc7 7a07 	vstr	s15, [r7, #28]
        break;
 8104d06:	e021      	b.n	8104d4c <HAL_RCC_GetSysClockFreq+0x28c>

      default:
        pllvco = ((float_t)CSI_VALUE / (float_t)pllm) * ((float_t)(uint32_t)(RCC->PLL1DIVR & RCC_PLL1DIVR_N1) + (fracn1/(float_t)0x2000) +(float_t)1 );
 8104d08:	693b      	ldr	r3, [r7, #16]
 8104d0a:	ee07 3a90 	vmov	s15, r3
 8104d0e:	eef8 7a67 	vcvt.f32.u32	s15, s15
 8104d12:	eddf 6a26 	vldr	s13, [pc, #152]	; 8104dac <HAL_RCC_GetSysClockFreq+0x2ec>
 8104d16:	ee86 7aa7 	vdiv.f32	s14, s13, s15
 8104d1a:	4b1e      	ldr	r3, [pc, #120]	; (8104d94 <HAL_RCC_GetSysClockFreq+0x2d4>)
 8104d1c:	6b1b      	ldr	r3, [r3, #48]	; 0x30
 8104d1e:	f3c3 0308 	ubfx	r3, r3, #0, #9
 8104d22:	ee07 3a90 	vmov	s15, r3
 8104d26:	eef8 6a67 	vcvt.f32.u32	s13, s15
 8104d2a:	ed97 6a02 	vldr	s12, [r7, #8]
 8104d2e:	eddf 5a1d 	vldr	s11, [pc, #116]	; 8104da4 <HAL_RCC_GetSysClockFreq+0x2e4>
 8104d32:	eec6 7a25 	vdiv.f32	s15, s12, s11
 8104d36:	ee76 7aa7 	vadd.f32	s15, s13, s15
 8104d3a:	eef7 6a00 	vmov.f32	s13, #112	; 0x3f800000  1.0
 8104d3e:	ee77 7aa6 	vadd.f32	s15, s15, s13
 8104d42:	ee67 7a27 	vmul.f32	s15, s14, s15
 8104d46:	edc7 7a07 	vstr	s15, [r7, #28]
        break;
 8104d4a:	bf00      	nop
      }
      pllp = (((RCC->PLL1DIVR & RCC_PLL1DIVR_P1) >>9) + 1U ) ;
 8104d4c:	4b11      	ldr	r3, [pc, #68]	; (8104d94 <HAL_RCC_GetSysClockFreq+0x2d4>)
 8104d4e:	6b1b      	ldr	r3, [r3, #48]	; 0x30
 8104d50:	0a5b      	lsrs	r3, r3, #9
 8104d52:	f003 037f 	and.w	r3, r3, #127	; 0x7f
 8104d56:	3301      	adds	r3, #1
 8104d58:	603b      	str	r3, [r7, #0]
      sysclockfreq =  (uint32_t)(float_t)(pllvco/(float_t)pllp);
 8104d5a:	683b      	ldr	r3, [r7, #0]
 8104d5c:	ee07 3a90 	vmov	s15, r3
 8104d60:	eeb8 7a67 	vcvt.f32.u32	s14, s15
 8104d64:	edd7 6a07 	vldr	s13, [r7, #28]
 8104d68:	eec6 7a87 	vdiv.f32	s15, s13, s14
 8104d6c:	eefc 7ae7 	vcvt.u32.f32	s15, s15
 8104d70:	ee17 3a90 	vmov	r3, s15
 8104d74:	61bb      	str	r3, [r7, #24]
    }
    else
    {
      sysclockfreq = 0U;
    }
    break;
 8104d76:	e005      	b.n	8104d84 <HAL_RCC_GetSysClockFreq+0x2c4>
      sysclockfreq = 0U;
 8104d78:	2300      	movs	r3, #0
 8104d7a:	61bb      	str	r3, [r7, #24]
    break;
 8104d7c:	e002      	b.n	8104d84 <HAL_RCC_GetSysClockFreq+0x2c4>

  default:
    sysclockfreq = CSI_VALUE;
 8104d7e:	4b07      	ldr	r3, [pc, #28]	; (8104d9c <HAL_RCC_GetSysClockFreq+0x2dc>)
 8104d80:	61bb      	str	r3, [r7, #24]
    break;
 8104d82:	bf00      	nop
  }

  return sysclockfreq;
 8104d84:	69bb      	ldr	r3, [r7, #24]
}
 8104d86:	4618      	mov	r0, r3
 8104d88:	3724      	adds	r7, #36	; 0x24
 8104d8a:	46bd      	mov	sp, r7
 8104d8c:	f85d 7b04 	ldr.w	r7, [sp], #4
 8104d90:	4770      	bx	lr
 8104d92:	bf00      	nop
 8104d94:	58024400 	.word	0x58024400
 8104d98:	03d09000 	.word	0x03d09000
 8104d9c:	003d0900 	.word	0x003d0900
 8104da0:	007a1200 	.word	0x007a1200
 8104da4:	46000000 	.word	0x46000000
 8104da8:	4c742400 	.word	0x4c742400
 8104dac:	4a742400 	.word	0x4a742400
 8104db0:	4af42400 	.word	0x4af42400

08104db4 <HAL_RCC_GetHCLKFreq>:
  * @note   The SystemD2Clock CMSIS variable is used to store System domain2 Clock Frequency
  *         and updated within this function
  * @retval HCLK frequency
  */
uint32_t HAL_RCC_GetHCLKFreq(void)
{
 8104db4:	b580      	push	{r7, lr}
 8104db6:	b082      	sub	sp, #8
 8104db8:	af00      	add	r7, sp, #0
uint32_t common_system_clock;

#if defined(RCC_D1CFGR_D1CPRE)
  common_system_clock = HAL_RCC_GetSysClockFreq() >> (D1CorePrescTable[(RCC->D1CFGR & RCC_D1CFGR_D1CPRE)>> RCC_D1CFGR_D1CPRE_Pos] & 0x1FU);
 8104dba:	f7ff fe81 	bl	8104ac0 <HAL_RCC_GetSysClockFreq>
 8104dbe:	4602      	mov	r2, r0
 8104dc0:	4b11      	ldr	r3, [pc, #68]	; (8104e08 <HAL_RCC_GetHCLKFreq+0x54>)
 8104dc2:	699b      	ldr	r3, [r3, #24]
 8104dc4:	0a1b      	lsrs	r3, r3, #8
 8104dc6:	f003 030f 	and.w	r3, r3, #15
 8104dca:	4910      	ldr	r1, [pc, #64]	; (8104e0c <HAL_RCC_GetHCLKFreq+0x58>)
 8104dcc:	5ccb      	ldrb	r3, [r1, r3]
 8104dce:	f003 031f 	and.w	r3, r3, #31
 8104dd2:	fa22 f303 	lsr.w	r3, r2, r3
 8104dd6:	607b      	str	r3, [r7, #4]
#else
  common_system_clock = HAL_RCC_GetSysClockFreq() >> (D1CorePrescTable[(RCC->CDCFGR1 & RCC_CDCFGR1_CDCPRE)>> RCC_CDCFGR1_CDCPRE_Pos] & 0x1FU);
#endif

#if defined(RCC_D1CFGR_HPRE)
  SystemD2Clock = (common_system_clock >> ((D1CorePrescTable[(RCC->D1CFGR & RCC_D1CFGR_HPRE)>> RCC_D1CFGR_HPRE_Pos]) & 0x1FU));
 8104dd8:	4b0b      	ldr	r3, [pc, #44]	; (8104e08 <HAL_RCC_GetHCLKFreq+0x54>)
 8104dda:	699b      	ldr	r3, [r3, #24]
 8104ddc:	f003 030f 	and.w	r3, r3, #15
 8104de0:	4a0a      	ldr	r2, [pc, #40]	; (8104e0c <HAL_RCC_GetHCLKFreq+0x58>)
 8104de2:	5cd3      	ldrb	r3, [r2, r3]
 8104de4:	f003 031f 	and.w	r3, r3, #31
 8104de8:	687a      	ldr	r2, [r7, #4]
 8104dea:	fa22 f303 	lsr.w	r3, r2, r3
 8104dee:	4a08      	ldr	r2, [pc, #32]	; (8104e10 <HAL_RCC_GetHCLKFreq+0x5c>)
 8104df0:	6013      	str	r3, [r2, #0]
#else
  SystemD2Clock = (common_system_clock >> ((D1CorePrescTable[(RCC->CDCFGR1 & RCC_CDCFGR1_HPRE)>> RCC_CDCFGR1_HPRE_Pos]) & 0x1FU));
#endif

#if defined(DUAL_CORE) && defined(CORE_CM4)
  SystemCoreClock = SystemD2Clock;
 8104df2:	4b07      	ldr	r3, [pc, #28]	; (8104e10 <HAL_RCC_GetHCLKFreq+0x5c>)
 8104df4:	681b      	ldr	r3, [r3, #0]
 8104df6:	4a07      	ldr	r2, [pc, #28]	; (8104e14 <HAL_RCC_GetHCLKFreq+0x60>)
 8104df8:	6013      	str	r3, [r2, #0]
#else
  SystemCoreClock = common_system_clock;
#endif /* DUAL_CORE && CORE_CM4 */

  return SystemD2Clock;
 8104dfa:	4b05      	ldr	r3, [pc, #20]	; (8104e10 <HAL_RCC_GetHCLKFreq+0x5c>)
 8104dfc:	681b      	ldr	r3, [r3, #0]
}
 8104dfe:	4618      	mov	r0, r3
 8104e00:	3708      	adds	r7, #8
 8104e02:	46bd      	mov	sp, r7
 8104e04:	bd80      	pop	{r7, pc}
 8104e06:	bf00      	nop
 8104e08:	58024400 	.word	0x58024400
 8104e0c:	08109db8 	.word	0x08109db8
 8104e10:	10000004 	.word	0x10000004
 8104e14:	10000000 	.word	0x10000000

08104e18 <HAL_RCC_GetPCLK1Freq>:
  * @note   Each time PCLK1 changes, this function must be called to update the
  *         right PCLK1 value. Otherwise, any configuration based on this function will be incorrect.
  * @retval PCLK1 frequency
  */
uint32_t HAL_RCC_GetPCLK1Freq(void)
{
 8104e18:	b580      	push	{r7, lr}
 8104e1a:	af00      	add	r7, sp, #0
#if defined (RCC_D2CFGR_D2PPRE1)
  /* Get HCLK source and Compute PCLK1 frequency ---------------------------*/
  return (HAL_RCC_GetHCLKFreq() >> ((D1CorePrescTable[(RCC->D2CFGR & RCC_D2CFGR_D2PPRE1)>> RCC_D2CFGR_D2PPRE1_Pos]) & 0x1FU));
 8104e1c:	f7ff ffca 	bl	8104db4 <HAL_RCC_GetHCLKFreq>
 8104e20:	4602      	mov	r2, r0
 8104e22:	4b06      	ldr	r3, [pc, #24]	; (8104e3c <HAL_RCC_GetPCLK1Freq+0x24>)
 8104e24:	69db      	ldr	r3, [r3, #28]
 8104e26:	091b      	lsrs	r3, r3, #4
 8104e28:	f003 0307 	and.w	r3, r3, #7
 8104e2c:	4904      	ldr	r1, [pc, #16]	; (8104e40 <HAL_RCC_GetPCLK1Freq+0x28>)
 8104e2e:	5ccb      	ldrb	r3, [r1, r3]
 8104e30:	f003 031f 	and.w	r3, r3, #31
 8104e34:	fa22 f303 	lsr.w	r3, r2, r3
#else
 /* Get HCLK source and Compute PCLK1 frequency ---------------------------*/
  return (HAL_RCC_GetHCLKFreq() >> ((D1CorePrescTable[(RCC->CDCFGR2 & RCC_CDCFGR2_CDPPRE1)>> RCC_CDCFGR2_CDPPRE1_Pos]) & 0x1FU));
#endif
}
 8104e38:	4618      	mov	r0, r3
 8104e3a:	bd80      	pop	{r7, pc}
 8104e3c:	58024400 	.word	0x58024400
 8104e40:	08109db8 	.word	0x08109db8

08104e44 <HAL_RCC_GetPCLK2Freq>:
  * @note   Each time PCLK2 changes, this function must be called to update the
  *         right PCLK2 value. Otherwise, any configuration based on this function will be incorrect.
  * @retval PCLK1 frequency
  */
uint32_t HAL_RCC_GetPCLK2Freq(void)
{
 8104e44:	b580      	push	{r7, lr}
 8104e46:	af00      	add	r7, sp, #0
  /* Get HCLK source and Compute PCLK1 frequency ---------------------------*/
#if defined(RCC_D2CFGR_D2PPRE2)
  return (HAL_RCC_GetHCLKFreq() >> ((D1CorePrescTable[(RCC->D2CFGR & RCC_D2CFGR_D2PPRE2)>> RCC_D2CFGR_D2PPRE2_Pos]) & 0x1FU));
 8104e48:	f7ff ffb4 	bl	8104db4 <HAL_RCC_GetHCLKFreq>
 8104e4c:	4602      	mov	r2, r0
 8104e4e:	4b06      	ldr	r3, [pc, #24]	; (8104e68 <HAL_RCC_GetPCLK2Freq+0x24>)
 8104e50:	69db      	ldr	r3, [r3, #28]
 8104e52:	0a1b      	lsrs	r3, r3, #8
 8104e54:	f003 0307 	and.w	r3, r3, #7
 8104e58:	4904      	ldr	r1, [pc, #16]	; (8104e6c <HAL_RCC_GetPCLK2Freq+0x28>)
 8104e5a:	5ccb      	ldrb	r3, [r1, r3]
 8104e5c:	f003 031f 	and.w	r3, r3, #31
 8104e60:	fa22 f303 	lsr.w	r3, r2, r3
#else
  return (HAL_RCC_GetHCLKFreq() >> ((D1CorePrescTable[(RCC->CDCFGR2 & RCC_CDCFGR2_CDPPRE2)>> RCC_CDCFGR2_CDPPRE2_Pos]) & 0x1FU));
#endif
}
 8104e64:	4618      	mov	r0, r3
 8104e66:	bd80      	pop	{r7, pc}
 8104e68:	58024400 	.word	0x58024400
 8104e6c:	08109db8 	.word	0x08109db8

08104e70 <HAL_RCCEx_PeriphCLKConfig>:
  * (*) : Available on some STM32H7 lines only.
  *
  * @retval HAL status
  */
HAL_StatusTypeDef HAL_RCCEx_PeriphCLKConfig(RCC_PeriphCLKInitTypeDef  *PeriphClkInit)
{
 8104e70:	b580      	push	{r7, lr}
 8104e72:	b086      	sub	sp, #24
 8104e74:	af00      	add	r7, sp, #0
 8104e76:	6078      	str	r0, [r7, #4]
  uint32_t tmpreg;
  uint32_t tickstart;
  HAL_StatusTypeDef ret = HAL_OK;      /* Intermediate status */
 8104e78:	2300      	movs	r3, #0
 8104e7a:	75fb      	strb	r3, [r7, #23]
  HAL_StatusTypeDef status = HAL_OK;   /* Final status */
 8104e7c:	2300      	movs	r3, #0
 8104e7e:	75bb      	strb	r3, [r7, #22]

  /*---------------------------- SPDIFRX configuration -------------------------------*/

  if(((PeriphClkInit->PeriphClockSelection) & RCC_PERIPHCLK_SPDIFRX) == RCC_PERIPHCLK_SPDIFRX)
 8104e80:	687b      	ldr	r3, [r7, #4]
 8104e82:	681b      	ldr	r3, [r3, #0]
 8104e84:	f003 6300 	and.w	r3, r3, #134217728	; 0x8000000
 8104e88:	2b00      	cmp	r3, #0
 8104e8a:	d03f      	beq.n	8104f0c <HAL_RCCEx_PeriphCLKConfig+0x9c>
  {

    switch(PeriphClkInit->SpdifrxClockSelection)
 8104e8c:	687b      	ldr	r3, [r7, #4]
 8104e8e:	6e5b      	ldr	r3, [r3, #100]	; 0x64
 8104e90:	f5b3 1f40 	cmp.w	r3, #3145728	; 0x300000
 8104e94:	d02a      	beq.n	8104eec <HAL_RCCEx_PeriphCLKConfig+0x7c>
 8104e96:	f5b3 1f40 	cmp.w	r3, #3145728	; 0x300000
 8104e9a:	d824      	bhi.n	8104ee6 <HAL_RCCEx_PeriphCLKConfig+0x76>
 8104e9c:	f5b3 1f00 	cmp.w	r3, #2097152	; 0x200000
 8104ea0:	d018      	beq.n	8104ed4 <HAL_RCCEx_PeriphCLKConfig+0x64>
 8104ea2:	f5b3 1f00 	cmp.w	r3, #2097152	; 0x200000
 8104ea6:	d81e      	bhi.n	8104ee6 <HAL_RCCEx_PeriphCLKConfig+0x76>
 8104ea8:	2b00      	cmp	r3, #0
 8104eaa:	d003      	beq.n	8104eb4 <HAL_RCCEx_PeriphCLKConfig+0x44>
 8104eac:	f5b3 1f80 	cmp.w	r3, #1048576	; 0x100000
 8104eb0:	d007      	beq.n	8104ec2 <HAL_RCCEx_PeriphCLKConfig+0x52>
 8104eb2:	e018      	b.n	8104ee6 <HAL_RCCEx_PeriphCLKConfig+0x76>
    {
    case RCC_SPDIFRXCLKSOURCE_PLL:      /* PLL is used as clock source for SPDIFRX*/
      /* Enable PLL1Q Clock output generated form System PLL . */
      __HAL_RCC_PLLCLKOUT_ENABLE(RCC_PLL1_DIVQ);
 8104eb4:	4ba3      	ldr	r3, [pc, #652]	; (8105144 <HAL_RCCEx_PeriphCLKConfig+0x2d4>)
 8104eb6:	6adb      	ldr	r3, [r3, #44]	; 0x2c
 8104eb8:	4aa2      	ldr	r2, [pc, #648]	; (8105144 <HAL_RCCEx_PeriphCLKConfig+0x2d4>)
 8104eba:	f443 3300 	orr.w	r3, r3, #131072	; 0x20000
 8104ebe:	62d3      	str	r3, [r2, #44]	; 0x2c

      /* SPDIFRX clock source configuration done later after clock selection check */
      break;
 8104ec0:	e015      	b.n	8104eee <HAL_RCCEx_PeriphCLKConfig+0x7e>

    case RCC_SPDIFRXCLKSOURCE_PLL2: /* PLL2 is used as clock source for SPDIFRX*/

      ret = RCCEx_PLL2_Config(&(PeriphClkInit->PLL2),DIVIDER_R_UPDATE);
 8104ec2:	687b      	ldr	r3, [r7, #4]
 8104ec4:	3304      	adds	r3, #4
 8104ec6:	2102      	movs	r1, #2
 8104ec8:	4618      	mov	r0, r3
 8104eca:	f001 fff9 	bl	8106ec0 <RCCEx_PLL2_Config>
 8104ece:	4603      	mov	r3, r0
 8104ed0:	75fb      	strb	r3, [r7, #23]

      /* SPDIFRX clock source configuration done later after clock selection check */
      break;
 8104ed2:	e00c      	b.n	8104eee <HAL_RCCEx_PeriphCLKConfig+0x7e>

    case RCC_SPDIFRXCLKSOURCE_PLL3:  /* PLL3 is used as clock source for SPDIFRX*/
      ret = RCCEx_PLL3_Config(&(PeriphClkInit->PLL3),DIVIDER_R_UPDATE);
 8104ed4:	687b      	ldr	r3, [r7, #4]
 8104ed6:	3324      	adds	r3, #36	; 0x24
 8104ed8:	2102      	movs	r1, #2
 8104eda:	4618      	mov	r0, r3
 8104edc:	f002 f8a2 	bl	8107024 <RCCEx_PLL3_Config>
 8104ee0:	4603      	mov	r3, r0
 8104ee2:	75fb      	strb	r3, [r7, #23]

      /* SPDIFRX clock source configuration done later after clock selection check */
      break;
 8104ee4:	e003      	b.n	8104eee <HAL_RCCEx_PeriphCLKConfig+0x7e>
      /* Internal OSC clock is used as source of SPDIFRX clock*/
      /* SPDIFRX clock source configuration done later after clock selection check */
      break;

    default:
      ret = HAL_ERROR;
 8104ee6:	2301      	movs	r3, #1
 8104ee8:	75fb      	strb	r3, [r7, #23]
      break;
 8104eea:	e000      	b.n	8104eee <HAL_RCCEx_PeriphCLKConfig+0x7e>
      break;
 8104eec:	bf00      	nop
    }

    if(ret == HAL_OK)
 8104eee:	7dfb      	ldrb	r3, [r7, #23]
 8104ef0:	2b00      	cmp	r3, #0
 8104ef2:	d109      	bne.n	8104f08 <HAL_RCCEx_PeriphCLKConfig+0x98>
    {
      /* Set the source of SPDIFRX clock*/
      __HAL_RCC_SPDIFRX_CONFIG(PeriphClkInit->SpdifrxClockSelection);
 8104ef4:	4b93      	ldr	r3, [pc, #588]	; (8105144 <HAL_RCCEx_PeriphCLKConfig+0x2d4>)
 8104ef6:	6d1b      	ldr	r3, [r3, #80]	; 0x50
 8104ef8:	f423 1240 	bic.w	r2, r3, #3145728	; 0x300000
 8104efc:	687b      	ldr	r3, [r7, #4]
 8104efe:	6e5b      	ldr	r3, [r3, #100]	; 0x64
 8104f00:	4990      	ldr	r1, [pc, #576]	; (8105144 <HAL_RCCEx_PeriphCLKConfig+0x2d4>)
 8104f02:	4313      	orrs	r3, r2
 8104f04:	650b      	str	r3, [r1, #80]	; 0x50
 8104f06:	e001      	b.n	8104f0c <HAL_RCCEx_PeriphCLKConfig+0x9c>
    }
    else
    {
      /* set overall return value */
      status = ret;
 8104f08:	7dfb      	ldrb	r3, [r7, #23]
 8104f0a:	75bb      	strb	r3, [r7, #22]
    }
  }

  /*---------------------------- SAI1 configuration -------------------------------*/
  if(((PeriphClkInit->PeriphClockSelection) & RCC_PERIPHCLK_SAI1) == RCC_PERIPHCLK_SAI1)
 8104f0c:	687b      	ldr	r3, [r7, #4]
 8104f0e:	681b      	ldr	r3, [r3, #0]
 8104f10:	f403 7380 	and.w	r3, r3, #256	; 0x100
 8104f14:	2b00      	cmp	r3, #0
 8104f16:	d03d      	beq.n	8104f94 <HAL_RCCEx_PeriphCLKConfig+0x124>
  {
    switch(PeriphClkInit->Sai1ClockSelection)
 8104f18:	687b      	ldr	r3, [r7, #4]
 8104f1a:	6d5b      	ldr	r3, [r3, #84]	; 0x54
 8104f1c:	2b04      	cmp	r3, #4
 8104f1e:	d826      	bhi.n	8104f6e <HAL_RCCEx_PeriphCLKConfig+0xfe>
 8104f20:	a201      	add	r2, pc, #4	; (adr r2, 8104f28 <HAL_RCCEx_PeriphCLKConfig+0xb8>)
 8104f22:	f852 f023 	ldr.w	pc, [r2, r3, lsl #2]
 8104f26:	bf00      	nop
 8104f28:	08104f3d 	.word	0x08104f3d
 8104f2c:	08104f4b 	.word	0x08104f4b
 8104f30:	08104f5d 	.word	0x08104f5d
 8104f34:	08104f75 	.word	0x08104f75
 8104f38:	08104f75 	.word	0x08104f75
    {
    case RCC_SAI1CLKSOURCE_PLL:      /* PLL is used as clock source for SAI1*/
      /* Enable SAI Clock output generated form System PLL . */
      __HAL_RCC_PLLCLKOUT_ENABLE(RCC_PLL1_DIVQ);
 8104f3c:	4b81      	ldr	r3, [pc, #516]	; (8105144 <HAL_RCCEx_PeriphCLKConfig+0x2d4>)
 8104f3e:	6adb      	ldr	r3, [r3, #44]	; 0x2c
 8104f40:	4a80      	ldr	r2, [pc, #512]	; (8105144 <HAL_RCCEx_PeriphCLKConfig+0x2d4>)
 8104f42:	f443 3300 	orr.w	r3, r3, #131072	; 0x20000
 8104f46:	62d3      	str	r3, [r2, #44]	; 0x2c

      /* SAI1 clock source configuration done later after clock selection check */
      break;
 8104f48:	e015      	b.n	8104f76 <HAL_RCCEx_PeriphCLKConfig+0x106>

    case RCC_SAI1CLKSOURCE_PLL2: /* PLL2 is used as clock source for SAI1*/

      ret = RCCEx_PLL2_Config(&(PeriphClkInit->PLL2),DIVIDER_P_UPDATE);
 8104f4a:	687b      	ldr	r3, [r7, #4]
 8104f4c:	3304      	adds	r3, #4
 8104f4e:	2100      	movs	r1, #0
 8104f50:	4618      	mov	r0, r3
 8104f52:	f001 ffb5 	bl	8106ec0 <RCCEx_PLL2_Config>
 8104f56:	4603      	mov	r3, r0
 8104f58:	75fb      	strb	r3, [r7, #23]

      /* SAI1 clock source configuration done later after clock selection check */
      break;
 8104f5a:	e00c      	b.n	8104f76 <HAL_RCCEx_PeriphCLKConfig+0x106>

    case RCC_SAI1CLKSOURCE_PLL3:  /* PLL3 is used as clock source for SAI1*/
      ret = RCCEx_PLL3_Config(&(PeriphClkInit->PLL3),DIVIDER_P_UPDATE);
 8104f5c:	687b      	ldr	r3, [r7, #4]
 8104f5e:	3324      	adds	r3, #36	; 0x24
 8104f60:	2100      	movs	r1, #0
 8104f62:	4618      	mov	r0, r3
 8104f64:	f002 f85e 	bl	8107024 <RCCEx_PLL3_Config>
 8104f68:	4603      	mov	r3, r0
 8104f6a:	75fb      	strb	r3, [r7, #23]

      /* SAI1 clock source configuration done later after clock selection check */
      break;
 8104f6c:	e003      	b.n	8104f76 <HAL_RCCEx_PeriphCLKConfig+0x106>
      /* HSI, HSE, or CSI oscillator is used as source of SAI1 clock */
      /* SAI1 clock source configuration done later after clock selection check */
      break;

    default:
      ret = HAL_ERROR;
 8104f6e:	2301      	movs	r3, #1
 8104f70:	75fb      	strb	r3, [r7, #23]
      break;
 8104f72:	e000      	b.n	8104f76 <HAL_RCCEx_PeriphCLKConfig+0x106>
      break;
 8104f74:	bf00      	nop
    }

    if(ret == HAL_OK)
 8104f76:	7dfb      	ldrb	r3, [r7, #23]
 8104f78:	2b00      	cmp	r3, #0
 8104f7a:	d109      	bne.n	8104f90 <HAL_RCCEx_PeriphCLKConfig+0x120>
    {
      /* Set the source of SAI1 clock*/
      __HAL_RCC_SAI1_CONFIG(PeriphClkInit->Sai1ClockSelection);
 8104f7c:	4b71      	ldr	r3, [pc, #452]	; (8105144 <HAL_RCCEx_PeriphCLKConfig+0x2d4>)
 8104f7e:	6d1b      	ldr	r3, [r3, #80]	; 0x50
 8104f80:	f023 0207 	bic.w	r2, r3, #7
 8104f84:	687b      	ldr	r3, [r7, #4]
 8104f86:	6d5b      	ldr	r3, [r3, #84]	; 0x54
 8104f88:	496e      	ldr	r1, [pc, #440]	; (8105144 <HAL_RCCEx_PeriphCLKConfig+0x2d4>)
 8104f8a:	4313      	orrs	r3, r2
 8104f8c:	650b      	str	r3, [r1, #80]	; 0x50
 8104f8e:	e001      	b.n	8104f94 <HAL_RCCEx_PeriphCLKConfig+0x124>
    }
    else
    {
      /* set overall return value */
      status = ret;
 8104f90:	7dfb      	ldrb	r3, [r7, #23]
 8104f92:	75bb      	strb	r3, [r7, #22]
    }
  }

#if defined(SAI3)
  /*---------------------------- SAI2/3 configuration -------------------------------*/
  if(((PeriphClkInit->PeriphClockSelection) & RCC_PERIPHCLK_SAI23) == RCC_PERIPHCLK_SAI23)
 8104f94:	687b      	ldr	r3, [r7, #4]
 8104f96:	681b      	ldr	r3, [r3, #0]
 8104f98:	f403 7300 	and.w	r3, r3, #512	; 0x200
 8104f9c:	2b00      	cmp	r3, #0
 8104f9e:	d042      	beq.n	8105026 <HAL_RCCEx_PeriphCLKConfig+0x1b6>
  {
    switch(PeriphClkInit->Sai23ClockSelection)
 8104fa0:	687b      	ldr	r3, [r7, #4]
 8104fa2:	6d9b      	ldr	r3, [r3, #88]	; 0x58
 8104fa4:	f5b3 7f80 	cmp.w	r3, #256	; 0x100
 8104fa8:	d02b      	beq.n	8105002 <HAL_RCCEx_PeriphCLKConfig+0x192>
 8104faa:	f5b3 7f80 	cmp.w	r3, #256	; 0x100
 8104fae:	d825      	bhi.n	8104ffc <HAL_RCCEx_PeriphCLKConfig+0x18c>
 8104fb0:	2bc0      	cmp	r3, #192	; 0xc0
 8104fb2:	d028      	beq.n	8105006 <HAL_RCCEx_PeriphCLKConfig+0x196>
 8104fb4:	2bc0      	cmp	r3, #192	; 0xc0
 8104fb6:	d821      	bhi.n	8104ffc <HAL_RCCEx_PeriphCLKConfig+0x18c>
 8104fb8:	2b80      	cmp	r3, #128	; 0x80
 8104fba:	d016      	beq.n	8104fea <HAL_RCCEx_PeriphCLKConfig+0x17a>
 8104fbc:	2b80      	cmp	r3, #128	; 0x80
 8104fbe:	d81d      	bhi.n	8104ffc <HAL_RCCEx_PeriphCLKConfig+0x18c>
 8104fc0:	2b00      	cmp	r3, #0
 8104fc2:	d002      	beq.n	8104fca <HAL_RCCEx_PeriphCLKConfig+0x15a>
 8104fc4:	2b40      	cmp	r3, #64	; 0x40
 8104fc6:	d007      	beq.n	8104fd8 <HAL_RCCEx_PeriphCLKConfig+0x168>
 8104fc8:	e018      	b.n	8104ffc <HAL_RCCEx_PeriphCLKConfig+0x18c>
    {
    case RCC_SAI23CLKSOURCE_PLL:      /* PLL is used as clock source for SAI2/3 */
      /* Enable SAI Clock output generated form System PLL . */
      __HAL_RCC_PLLCLKOUT_ENABLE(RCC_PLL1_DIVQ);
 8104fca:	4b5e      	ldr	r3, [pc, #376]	; (8105144 <HAL_RCCEx_PeriphCLKConfig+0x2d4>)
 8104fcc:	6adb      	ldr	r3, [r3, #44]	; 0x2c
 8104fce:	4a5d      	ldr	r2, [pc, #372]	; (8105144 <HAL_RCCEx_PeriphCLKConfig+0x2d4>)
 8104fd0:	f443 3300 	orr.w	r3, r3, #131072	; 0x20000
 8104fd4:	62d3      	str	r3, [r2, #44]	; 0x2c

      /* SAI2/3 clock source configuration done later after clock selection check */
      break;
 8104fd6:	e017      	b.n	8105008 <HAL_RCCEx_PeriphCLKConfig+0x198>

    case RCC_SAI23CLKSOURCE_PLL2: /* PLL2 is used as clock source for SAI2/3 */

      ret = RCCEx_PLL2_Config(&(PeriphClkInit->PLL2),DIVIDER_P_UPDATE);
 8104fd8:	687b      	ldr	r3, [r7, #4]
 8104fda:	3304      	adds	r3, #4
 8104fdc:	2100      	movs	r1, #0
 8104fde:	4618      	mov	r0, r3
 8104fe0:	f001 ff6e 	bl	8106ec0 <RCCEx_PLL2_Config>
 8104fe4:	4603      	mov	r3, r0
 8104fe6:	75fb      	strb	r3, [r7, #23]

      /* SAI2/3 clock source configuration done later after clock selection check */
      break;
 8104fe8:	e00e      	b.n	8105008 <HAL_RCCEx_PeriphCLKConfig+0x198>

    case RCC_SAI23CLKSOURCE_PLL3:  /* PLL3 is used as clock source for SAI2/3 */
      ret = RCCEx_PLL3_Config(&(PeriphClkInit->PLL3),DIVIDER_P_UPDATE);
 8104fea:	687b      	ldr	r3, [r7, #4]
 8104fec:	3324      	adds	r3, #36	; 0x24
 8104fee:	2100      	movs	r1, #0
 8104ff0:	4618      	mov	r0, r3
 8104ff2:	f002 f817 	bl	8107024 <RCCEx_PLL3_Config>
 8104ff6:	4603      	mov	r3, r0
 8104ff8:	75fb      	strb	r3, [r7, #23]

      /* SAI2/3 clock source configuration done later after clock selection check */
      break;
 8104ffa:	e005      	b.n	8105008 <HAL_RCCEx_PeriphCLKConfig+0x198>
      /* HSI, HSE, or CSI oscillator is used as source of SAI2/3 clock */
      /* SAI2/3 clock source configuration done later after clock selection check */
      break;

    default:
      ret = HAL_ERROR;
 8104ffc:	2301      	movs	r3, #1
 8104ffe:	75fb      	strb	r3, [r7, #23]
      break;
 8105000:	e002      	b.n	8105008 <HAL_RCCEx_PeriphCLKConfig+0x198>
      break;
 8105002:	bf00      	nop
 8105004:	e000      	b.n	8105008 <HAL_RCCEx_PeriphCLKConfig+0x198>
      break;
 8105006:	bf00      	nop
    }

    if(ret == HAL_OK)
 8105008:	7dfb      	ldrb	r3, [r7, #23]
 810500a:	2b00      	cmp	r3, #0
 810500c:	d109      	bne.n	8105022 <HAL_RCCEx_PeriphCLKConfig+0x1b2>
    {
      /* Set the source of SAI2/3 clock*/
      __HAL_RCC_SAI23_CONFIG(PeriphClkInit->Sai23ClockSelection);
 810500e:	4b4d      	ldr	r3, [pc, #308]	; (8105144 <HAL_RCCEx_PeriphCLKConfig+0x2d4>)
 8105010:	6d1b      	ldr	r3, [r3, #80]	; 0x50
 8105012:	f423 72e0 	bic.w	r2, r3, #448	; 0x1c0
 8105016:	687b      	ldr	r3, [r7, #4]
 8105018:	6d9b      	ldr	r3, [r3, #88]	; 0x58
 810501a:	494a      	ldr	r1, [pc, #296]	; (8105144 <HAL_RCCEx_PeriphCLKConfig+0x2d4>)
 810501c:	4313      	orrs	r3, r2
 810501e:	650b      	str	r3, [r1, #80]	; 0x50
 8105020:	e001      	b.n	8105026 <HAL_RCCEx_PeriphCLKConfig+0x1b6>
    }
    else
    {
      /* set overall return value */
      status = ret;
 8105022:	7dfb      	ldrb	r3, [r7, #23]
 8105024:	75bb      	strb	r3, [r7, #22]
  }
#endif  /*SAI2B*/

#if defined(SAI4)
  /*---------------------------- SAI4A configuration -------------------------------*/
  if(((PeriphClkInit->PeriphClockSelection) & RCC_PERIPHCLK_SAI4A) == RCC_PERIPHCLK_SAI4A)
 8105026:	687b      	ldr	r3, [r7, #4]
 8105028:	681b      	ldr	r3, [r3, #0]
 810502a:	f403 6380 	and.w	r3, r3, #1024	; 0x400
 810502e:	2b00      	cmp	r3, #0
 8105030:	d049      	beq.n	81050c6 <HAL_RCCEx_PeriphCLKConfig+0x256>
  {
    switch(PeriphClkInit->Sai4AClockSelection)
 8105032:	687b      	ldr	r3, [r7, #4]
 8105034:	f8d3 30a4 	ldr.w	r3, [r3, #164]	; 0xa4
 8105038:	f5b3 0f00 	cmp.w	r3, #8388608	; 0x800000
 810503c:	d030      	beq.n	81050a0 <HAL_RCCEx_PeriphCLKConfig+0x230>
 810503e:	f5b3 0f00 	cmp.w	r3, #8388608	; 0x800000
 8105042:	d82a      	bhi.n	810509a <HAL_RCCEx_PeriphCLKConfig+0x22a>
 8105044:	f5b3 0fc0 	cmp.w	r3, #6291456	; 0x600000
 8105048:	d02c      	beq.n	81050a4 <HAL_RCCEx_PeriphCLKConfig+0x234>
 810504a:	f5b3 0fc0 	cmp.w	r3, #6291456	; 0x600000
 810504e:	d824      	bhi.n	810509a <HAL_RCCEx_PeriphCLKConfig+0x22a>
 8105050:	f5b3 0f80 	cmp.w	r3, #4194304	; 0x400000
 8105054:	d018      	beq.n	8105088 <HAL_RCCEx_PeriphCLKConfig+0x218>
 8105056:	f5b3 0f80 	cmp.w	r3, #4194304	; 0x400000
 810505a:	d81e      	bhi.n	810509a <HAL_RCCEx_PeriphCLKConfig+0x22a>
 810505c:	2b00      	cmp	r3, #0
 810505e:	d003      	beq.n	8105068 <HAL_RCCEx_PeriphCLKConfig+0x1f8>
 8105060:	f5b3 1f00 	cmp.w	r3, #2097152	; 0x200000
 8105064:	d007      	beq.n	8105076 <HAL_RCCEx_PeriphCLKConfig+0x206>
 8105066:	e018      	b.n	810509a <HAL_RCCEx_PeriphCLKConfig+0x22a>
    {
    case RCC_SAI4ACLKSOURCE_PLL:      /* PLL is used as clock source for SAI2*/
      /* Enable SAI Clock output generated form System PLL . */
      __HAL_RCC_PLLCLKOUT_ENABLE(RCC_PLL1_DIVQ);
 8105068:	4b36      	ldr	r3, [pc, #216]	; (8105144 <HAL_RCCEx_PeriphCLKConfig+0x2d4>)
 810506a:	6adb      	ldr	r3, [r3, #44]	; 0x2c
 810506c:	4a35      	ldr	r2, [pc, #212]	; (8105144 <HAL_RCCEx_PeriphCLKConfig+0x2d4>)
 810506e:	f443 3300 	orr.w	r3, r3, #131072	; 0x20000
 8105072:	62d3      	str	r3, [r2, #44]	; 0x2c

      /* SAI1 clock source configuration done later after clock selection check */
      break;
 8105074:	e017      	b.n	81050a6 <HAL_RCCEx_PeriphCLKConfig+0x236>

    case RCC_SAI4ACLKSOURCE_PLL2: /* PLL2 is used as clock source for SAI2*/

      ret = RCCEx_PLL2_Config(&(PeriphClkInit->PLL2),DIVIDER_P_UPDATE);
 8105076:	687b      	ldr	r3, [r7, #4]
 8105078:	3304      	adds	r3, #4
 810507a:	2100      	movs	r1, #0
 810507c:	4618      	mov	r0, r3
 810507e:	f001 ff1f 	bl	8106ec0 <RCCEx_PLL2_Config>
 8105082:	4603      	mov	r3, r0
 8105084:	75fb      	strb	r3, [r7, #23]

      /* SAI2 clock source configuration done later after clock selection check */
      break;
 8105086:	e00e      	b.n	81050a6 <HAL_RCCEx_PeriphCLKConfig+0x236>

    case RCC_SAI4ACLKSOURCE_PLL3:  /* PLL3 is used as clock source for SAI2*/
      ret = RCCEx_PLL3_Config(&(PeriphClkInit->PLL3),DIVIDER_P_UPDATE);
 8105088:	687b      	ldr	r3, [r7, #4]
 810508a:	3324      	adds	r3, #36	; 0x24
 810508c:	2100      	movs	r1, #0
 810508e:	4618      	mov	r0, r3
 8105090:	f001 ffc8 	bl	8107024 <RCCEx_PLL3_Config>
 8105094:	4603      	mov	r3, r0
 8105096:	75fb      	strb	r3, [r7, #23]

      /* SAI1 clock source configuration done later after clock selection check */
      break;
 8105098:	e005      	b.n	81050a6 <HAL_RCCEx_PeriphCLKConfig+0x236>
      /* SAI4A clock source configuration done later after clock selection check */
      break;
#endif /* RCC_VER_3_0 */

    default:
      ret = HAL_ERROR;
 810509a:	2301      	movs	r3, #1
 810509c:	75fb      	strb	r3, [r7, #23]
      break;
 810509e:	e002      	b.n	81050a6 <HAL_RCCEx_PeriphCLKConfig+0x236>
      break;
 81050a0:	bf00      	nop
 81050a2:	e000      	b.n	81050a6 <HAL_RCCEx_PeriphCLKConfig+0x236>
      break;
 81050a4:	bf00      	nop
    }

    if(ret == HAL_OK)
 81050a6:	7dfb      	ldrb	r3, [r7, #23]
 81050a8:	2b00      	cmp	r3, #0
 81050aa:	d10a      	bne.n	81050c2 <HAL_RCCEx_PeriphCLKConfig+0x252>
    {
      /* Set the source of SAI4A clock*/
      __HAL_RCC_SAI4A_CONFIG(PeriphClkInit->Sai4AClockSelection);
 81050ac:	4b25      	ldr	r3, [pc, #148]	; (8105144 <HAL_RCCEx_PeriphCLKConfig+0x2d4>)
 81050ae:	6d9b      	ldr	r3, [r3, #88]	; 0x58
 81050b0:	f423 0260 	bic.w	r2, r3, #14680064	; 0xe00000
 81050b4:	687b      	ldr	r3, [r7, #4]
 81050b6:	f8d3 30a4 	ldr.w	r3, [r3, #164]	; 0xa4
 81050ba:	4922      	ldr	r1, [pc, #136]	; (8105144 <HAL_RCCEx_PeriphCLKConfig+0x2d4>)
 81050bc:	4313      	orrs	r3, r2
 81050be:	658b      	str	r3, [r1, #88]	; 0x58
 81050c0:	e001      	b.n	81050c6 <HAL_RCCEx_PeriphCLKConfig+0x256>
    }
    else
    {
      /* set overall return value */
      status = ret;
 81050c2:	7dfb      	ldrb	r3, [r7, #23]
 81050c4:	75bb      	strb	r3, [r7, #22]
    }
  }
  /*---------------------------- SAI4B configuration -------------------------------*/
  if(((PeriphClkInit->PeriphClockSelection) & RCC_PERIPHCLK_SAI4B) == RCC_PERIPHCLK_SAI4B)
 81050c6:	687b      	ldr	r3, [r7, #4]
 81050c8:	681b      	ldr	r3, [r3, #0]
 81050ca:	f403 6300 	and.w	r3, r3, #2048	; 0x800
 81050ce:	2b00      	cmp	r3, #0
 81050d0:	d04b      	beq.n	810516a <HAL_RCCEx_PeriphCLKConfig+0x2fa>
  {
    switch(PeriphClkInit->Sai4BClockSelection)
 81050d2:	687b      	ldr	r3, [r7, #4]
 81050d4:	f8d3 30a8 	ldr.w	r3, [r3, #168]	; 0xa8
 81050d8:	f1b3 6f80 	cmp.w	r3, #67108864	; 0x4000000
 81050dc:	d030      	beq.n	8105140 <HAL_RCCEx_PeriphCLKConfig+0x2d0>
 81050de:	f1b3 6f80 	cmp.w	r3, #67108864	; 0x4000000
 81050e2:	d82a      	bhi.n	810513a <HAL_RCCEx_PeriphCLKConfig+0x2ca>
 81050e4:	f1b3 7f40 	cmp.w	r3, #50331648	; 0x3000000
 81050e8:	d02e      	beq.n	8105148 <HAL_RCCEx_PeriphCLKConfig+0x2d8>
 81050ea:	f1b3 7f40 	cmp.w	r3, #50331648	; 0x3000000
 81050ee:	d824      	bhi.n	810513a <HAL_RCCEx_PeriphCLKConfig+0x2ca>
 81050f0:	f1b3 7f00 	cmp.w	r3, #33554432	; 0x2000000
 81050f4:	d018      	beq.n	8105128 <HAL_RCCEx_PeriphCLKConfig+0x2b8>
 81050f6:	f1b3 7f00 	cmp.w	r3, #33554432	; 0x2000000
 81050fa:	d81e      	bhi.n	810513a <HAL_RCCEx_PeriphCLKConfig+0x2ca>
 81050fc:	2b00      	cmp	r3, #0
 81050fe:	d003      	beq.n	8105108 <HAL_RCCEx_PeriphCLKConfig+0x298>
 8105100:	f1b3 7f80 	cmp.w	r3, #16777216	; 0x1000000
 8105104:	d007      	beq.n	8105116 <HAL_RCCEx_PeriphCLKConfig+0x2a6>
 8105106:	e018      	b.n	810513a <HAL_RCCEx_PeriphCLKConfig+0x2ca>
    {
    case RCC_SAI4BCLKSOURCE_PLL:      /* PLL is used as clock source for SAI2*/
      /* Enable SAI Clock output generated form System PLL . */
      __HAL_RCC_PLLCLKOUT_ENABLE(RCC_PLL1_DIVQ);
 8105108:	4b0e      	ldr	r3, [pc, #56]	; (8105144 <HAL_RCCEx_PeriphCLKConfig+0x2d4>)
 810510a:	6adb      	ldr	r3, [r3, #44]	; 0x2c
 810510c:	4a0d      	ldr	r2, [pc, #52]	; (8105144 <HAL_RCCEx_PeriphCLKConfig+0x2d4>)
 810510e:	f443 3300 	orr.w	r3, r3, #131072	; 0x20000
 8105112:	62d3      	str	r3, [r2, #44]	; 0x2c

      /* SAI1 clock source configuration done later after clock selection check */
      break;
 8105114:	e019      	b.n	810514a <HAL_RCCEx_PeriphCLKConfig+0x2da>

    case RCC_SAI4BCLKSOURCE_PLL2: /* PLL2 is used as clock source for SAI2*/

      ret = RCCEx_PLL2_Config(&(PeriphClkInit->PLL2),DIVIDER_P_UPDATE);
 8105116:	687b      	ldr	r3, [r7, #4]
 8105118:	3304      	adds	r3, #4
 810511a:	2100      	movs	r1, #0
 810511c:	4618      	mov	r0, r3
 810511e:	f001 fecf 	bl	8106ec0 <RCCEx_PLL2_Config>
 8105122:	4603      	mov	r3, r0
 8105124:	75fb      	strb	r3, [r7, #23]

      /* SAI2 clock source configuration done later after clock selection check */
      break;
 8105126:	e010      	b.n	810514a <HAL_RCCEx_PeriphCLKConfig+0x2da>

    case RCC_SAI4BCLKSOURCE_PLL3:  /* PLL3 is used as clock source for SAI2*/
      ret = RCCEx_PLL3_Config(&(PeriphClkInit->PLL3), DIVIDER_P_UPDATE);
 8105128:	687b      	ldr	r3, [r7, #4]
 810512a:	3324      	adds	r3, #36	; 0x24
 810512c:	2100      	movs	r1, #0
 810512e:	4618      	mov	r0, r3
 8105130:	f001 ff78 	bl	8107024 <RCCEx_PLL3_Config>
 8105134:	4603      	mov	r3, r0
 8105136:	75fb      	strb	r3, [r7, #23]

      /* SAI1 clock source configuration done later after clock selection check */
      break;
 8105138:	e007      	b.n	810514a <HAL_RCCEx_PeriphCLKConfig+0x2da>
      /* SAI4B clock source configuration done later after clock selection check */
      break;
#endif /* RCC_VER_3_0 */

    default:
      ret = HAL_ERROR;
 810513a:	2301      	movs	r3, #1
 810513c:	75fb      	strb	r3, [r7, #23]
      break;
 810513e:	e004      	b.n	810514a <HAL_RCCEx_PeriphCLKConfig+0x2da>
      break;
 8105140:	bf00      	nop
 8105142:	e002      	b.n	810514a <HAL_RCCEx_PeriphCLKConfig+0x2da>
 8105144:	58024400 	.word	0x58024400
      break;
 8105148:	bf00      	nop
    }

    if(ret == HAL_OK)
 810514a:	7dfb      	ldrb	r3, [r7, #23]
 810514c:	2b00      	cmp	r3, #0
 810514e:	d10a      	bne.n	8105166 <HAL_RCCEx_PeriphCLKConfig+0x2f6>
    {
      /* Set the source of SAI4B clock*/
      __HAL_RCC_SAI4B_CONFIG(PeriphClkInit->Sai4BClockSelection);
 8105150:	4b99      	ldr	r3, [pc, #612]	; (81053b8 <HAL_RCCEx_PeriphCLKConfig+0x548>)
 8105152:	6d9b      	ldr	r3, [r3, #88]	; 0x58
 8105154:	f023 62e0 	bic.w	r2, r3, #117440512	; 0x7000000
 8105158:	687b      	ldr	r3, [r7, #4]
 810515a:	f8d3 30a8 	ldr.w	r3, [r3, #168]	; 0xa8
 810515e:	4996      	ldr	r1, [pc, #600]	; (81053b8 <HAL_RCCEx_PeriphCLKConfig+0x548>)
 8105160:	4313      	orrs	r3, r2
 8105162:	658b      	str	r3, [r1, #88]	; 0x58
 8105164:	e001      	b.n	810516a <HAL_RCCEx_PeriphCLKConfig+0x2fa>
    }
    else
    {
      /* set overall return value */
      status = ret;
 8105166:	7dfb      	ldrb	r3, [r7, #23]
 8105168:	75bb      	strb	r3, [r7, #22]
  }
#endif  /*SAI4*/

#if defined(QUADSPI)
  /*---------------------------- QSPI configuration -------------------------------*/
  if(((PeriphClkInit->PeriphClockSelection) & RCC_PERIPHCLK_QSPI) == RCC_PERIPHCLK_QSPI)
 810516a:	687b      	ldr	r3, [r7, #4]
 810516c:	681b      	ldr	r3, [r3, #0]
 810516e:	f003 7300 	and.w	r3, r3, #33554432	; 0x2000000
 8105172:	2b00      	cmp	r3, #0
 8105174:	d032      	beq.n	81051dc <HAL_RCCEx_PeriphCLKConfig+0x36c>
  {
    switch(PeriphClkInit->QspiClockSelection)
 8105176:	687b      	ldr	r3, [r7, #4]
 8105178:	6c9b      	ldr	r3, [r3, #72]	; 0x48
 810517a:	2b30      	cmp	r3, #48	; 0x30
 810517c:	d01c      	beq.n	81051b8 <HAL_RCCEx_PeriphCLKConfig+0x348>
 810517e:	2b30      	cmp	r3, #48	; 0x30
 8105180:	d817      	bhi.n	81051b2 <HAL_RCCEx_PeriphCLKConfig+0x342>
 8105182:	2b20      	cmp	r3, #32
 8105184:	d00c      	beq.n	81051a0 <HAL_RCCEx_PeriphCLKConfig+0x330>
 8105186:	2b20      	cmp	r3, #32
 8105188:	d813      	bhi.n	81051b2 <HAL_RCCEx_PeriphCLKConfig+0x342>
 810518a:	2b00      	cmp	r3, #0
 810518c:	d016      	beq.n	81051bc <HAL_RCCEx_PeriphCLKConfig+0x34c>
 810518e:	2b10      	cmp	r3, #16
 8105190:	d10f      	bne.n	81051b2 <HAL_RCCEx_PeriphCLKConfig+0x342>
    {
    case RCC_QSPICLKSOURCE_PLL:      /* PLL is used as clock source for QSPI*/
      /* Enable QSPI Clock output generated form System PLL . */
      __HAL_RCC_PLLCLKOUT_ENABLE(RCC_PLL1_DIVQ);
 8105192:	4b89      	ldr	r3, [pc, #548]	; (81053b8 <HAL_RCCEx_PeriphCLKConfig+0x548>)
 8105194:	6adb      	ldr	r3, [r3, #44]	; 0x2c
 8105196:	4a88      	ldr	r2, [pc, #544]	; (81053b8 <HAL_RCCEx_PeriphCLKConfig+0x548>)
 8105198:	f443 3300 	orr.w	r3, r3, #131072	; 0x20000
 810519c:	62d3      	str	r3, [r2, #44]	; 0x2c

      /* QSPI clock source configuration done later after clock selection check */
      break;
 810519e:	e00e      	b.n	81051be <HAL_RCCEx_PeriphCLKConfig+0x34e>

    case RCC_QSPICLKSOURCE_PLL2: /* PLL2 is used as clock source for QSPI*/

      ret = RCCEx_PLL2_Config(&(PeriphClkInit->PLL2),DIVIDER_R_UPDATE);
 81051a0:	687b      	ldr	r3, [r7, #4]
 81051a2:	3304      	adds	r3, #4
 81051a4:	2102      	movs	r1, #2
 81051a6:	4618      	mov	r0, r3
 81051a8:	f001 fe8a 	bl	8106ec0 <RCCEx_PLL2_Config>
 81051ac:	4603      	mov	r3, r0
 81051ae:	75fb      	strb	r3, [r7, #23]

      /* QSPI clock source configuration done later after clock selection check */
      break;
 81051b0:	e005      	b.n	81051be <HAL_RCCEx_PeriphCLKConfig+0x34e>
    case RCC_QSPICLKSOURCE_D1HCLK:
      /* Domain1 HCLK  clock selected as QSPI kernel peripheral clock */
      break;

    default:
      ret = HAL_ERROR;
 81051b2:	2301      	movs	r3, #1
 81051b4:	75fb      	strb	r3, [r7, #23]
      break;
 81051b6:	e002      	b.n	81051be <HAL_RCCEx_PeriphCLKConfig+0x34e>
      break;
 81051b8:	bf00      	nop
 81051ba:	e000      	b.n	81051be <HAL_RCCEx_PeriphCLKConfig+0x34e>
      break;
 81051bc:	bf00      	nop
    }

    if(ret == HAL_OK)
 81051be:	7dfb      	ldrb	r3, [r7, #23]
 81051c0:	2b00      	cmp	r3, #0
 81051c2:	d109      	bne.n	81051d8 <HAL_RCCEx_PeriphCLKConfig+0x368>
    {
      /* Set the source of QSPI clock*/
      __HAL_RCC_QSPI_CONFIG(PeriphClkInit->QspiClockSelection);
 81051c4:	4b7c      	ldr	r3, [pc, #496]	; (81053b8 <HAL_RCCEx_PeriphCLKConfig+0x548>)
 81051c6:	6cdb      	ldr	r3, [r3, #76]	; 0x4c
 81051c8:	f023 0230 	bic.w	r2, r3, #48	; 0x30
 81051cc:	687b      	ldr	r3, [r7, #4]
 81051ce:	6c9b      	ldr	r3, [r3, #72]	; 0x48
 81051d0:	4979      	ldr	r1, [pc, #484]	; (81053b8 <HAL_RCCEx_PeriphCLKConfig+0x548>)
 81051d2:	4313      	orrs	r3, r2
 81051d4:	64cb      	str	r3, [r1, #76]	; 0x4c
 81051d6:	e001      	b.n	81051dc <HAL_RCCEx_PeriphCLKConfig+0x36c>
    }
    else
    {
      /* set overall return value */
      status = ret;
 81051d8:	7dfb      	ldrb	r3, [r7, #23]
 81051da:	75bb      	strb	r3, [r7, #22]
    }
  }
#endif  /*OCTOSPI*/

  /*---------------------------- SPI1/2/3 configuration -------------------------------*/
  if(((PeriphClkInit->PeriphClockSelection) & RCC_PERIPHCLK_SPI123) == RCC_PERIPHCLK_SPI123)
 81051dc:	687b      	ldr	r3, [r7, #4]
 81051de:	681b      	ldr	r3, [r3, #0]
 81051e0:	f403 5380 	and.w	r3, r3, #4096	; 0x1000
 81051e4:	2b00      	cmp	r3, #0
 81051e6:	d047      	beq.n	8105278 <HAL_RCCEx_PeriphCLKConfig+0x408>
  {
    switch(PeriphClkInit->Spi123ClockSelection)
 81051e8:	687b      	ldr	r3, [r7, #4]
 81051ea:	6ddb      	ldr	r3, [r3, #92]	; 0x5c
 81051ec:	f5b3 4f80 	cmp.w	r3, #16384	; 0x4000
 81051f0:	d030      	beq.n	8105254 <HAL_RCCEx_PeriphCLKConfig+0x3e4>
 81051f2:	f5b3 4f80 	cmp.w	r3, #16384	; 0x4000
 81051f6:	d82a      	bhi.n	810524e <HAL_RCCEx_PeriphCLKConfig+0x3de>
 81051f8:	f5b3 5f40 	cmp.w	r3, #12288	; 0x3000
 81051fc:	d02c      	beq.n	8105258 <HAL_RCCEx_PeriphCLKConfig+0x3e8>
 81051fe:	f5b3 5f40 	cmp.w	r3, #12288	; 0x3000
 8105202:	d824      	bhi.n	810524e <HAL_RCCEx_PeriphCLKConfig+0x3de>
 8105204:	f5b3 5f00 	cmp.w	r3, #8192	; 0x2000
 8105208:	d018      	beq.n	810523c <HAL_RCCEx_PeriphCLKConfig+0x3cc>
 810520a:	f5b3 5f00 	cmp.w	r3, #8192	; 0x2000
 810520e:	d81e      	bhi.n	810524e <HAL_RCCEx_PeriphCLKConfig+0x3de>
 8105210:	2b00      	cmp	r3, #0
 8105212:	d003      	beq.n	810521c <HAL_RCCEx_PeriphCLKConfig+0x3ac>
 8105214:	f5b3 5f80 	cmp.w	r3, #4096	; 0x1000
 8105218:	d007      	beq.n	810522a <HAL_RCCEx_PeriphCLKConfig+0x3ba>
 810521a:	e018      	b.n	810524e <HAL_RCCEx_PeriphCLKConfig+0x3de>
    {
    case RCC_SPI123CLKSOURCE_PLL:      /* PLL is used as clock source for SPI1/2/3 */
      /* Enable SPI Clock output generated form System PLL . */
      __HAL_RCC_PLLCLKOUT_ENABLE(RCC_PLL1_DIVQ);
 810521c:	4b66      	ldr	r3, [pc, #408]	; (81053b8 <HAL_RCCEx_PeriphCLKConfig+0x548>)
 810521e:	6adb      	ldr	r3, [r3, #44]	; 0x2c
 8105220:	4a65      	ldr	r2, [pc, #404]	; (81053b8 <HAL_RCCEx_PeriphCLKConfig+0x548>)
 8105222:	f443 3300 	orr.w	r3, r3, #131072	; 0x20000
 8105226:	62d3      	str	r3, [r2, #44]	; 0x2c

      /* SPI1/2/3 clock source configuration done later after clock selection check */
      break;
 8105228:	e017      	b.n	810525a <HAL_RCCEx_PeriphCLKConfig+0x3ea>

    case RCC_SPI123CLKSOURCE_PLL2: /* PLL2 is used as clock source for SPI1/2/3 */
      ret = RCCEx_PLL2_Config(&(PeriphClkInit->PLL2),DIVIDER_P_UPDATE);
 810522a:	687b      	ldr	r3, [r7, #4]
 810522c:	3304      	adds	r3, #4
 810522e:	2100      	movs	r1, #0
 8105230:	4618      	mov	r0, r3
 8105232:	f001 fe45 	bl	8106ec0 <RCCEx_PLL2_Config>
 8105236:	4603      	mov	r3, r0
 8105238:	75fb      	strb	r3, [r7, #23]

      /* SPI1/2/3 clock source configuration done later after clock selection check */
      break;
 810523a:	e00e      	b.n	810525a <HAL_RCCEx_PeriphCLKConfig+0x3ea>

    case RCC_SPI123CLKSOURCE_PLL3:  /* PLL3 is used as clock source for SPI1/2/3 */
      ret = RCCEx_PLL3_Config(&(PeriphClkInit->PLL3),DIVIDER_P_UPDATE);
 810523c:	687b      	ldr	r3, [r7, #4]
 810523e:	3324      	adds	r3, #36	; 0x24
 8105240:	2100      	movs	r1, #0
 8105242:	4618      	mov	r0, r3
 8105244:	f001 feee 	bl	8107024 <RCCEx_PLL3_Config>
 8105248:	4603      	mov	r3, r0
 810524a:	75fb      	strb	r3, [r7, #23]

      /* SPI1/2/3 clock source configuration done later after clock selection check */
      break;
 810524c:	e005      	b.n	810525a <HAL_RCCEx_PeriphCLKConfig+0x3ea>
      /* HSI, HSE, or CSI oscillator is used as source of SPI1/2/3 clock */
      /* SPI1/2/3 clock source configuration done later after clock selection check */
      break;

    default:
      ret = HAL_ERROR;
 810524e:	2301      	movs	r3, #1
 8105250:	75fb      	strb	r3, [r7, #23]
      break;
 8105252:	e002      	b.n	810525a <HAL_RCCEx_PeriphCLKConfig+0x3ea>
      break;
 8105254:	bf00      	nop
 8105256:	e000      	b.n	810525a <HAL_RCCEx_PeriphCLKConfig+0x3ea>
      break;
 8105258:	bf00      	nop
    }

    if(ret == HAL_OK)
 810525a:	7dfb      	ldrb	r3, [r7, #23]
 810525c:	2b00      	cmp	r3, #0
 810525e:	d109      	bne.n	8105274 <HAL_RCCEx_PeriphCLKConfig+0x404>
    {
      /* Set the source of SPI1/2/3 clock*/
      __HAL_RCC_SPI123_CONFIG(PeriphClkInit->Spi123ClockSelection);
 8105260:	4b55      	ldr	r3, [pc, #340]	; (81053b8 <HAL_RCCEx_PeriphCLKConfig+0x548>)
 8105262:	6d1b      	ldr	r3, [r3, #80]	; 0x50
 8105264:	f423 42e0 	bic.w	r2, r3, #28672	; 0x7000
 8105268:	687b      	ldr	r3, [r7, #4]
 810526a:	6ddb      	ldr	r3, [r3, #92]	; 0x5c
 810526c:	4952      	ldr	r1, [pc, #328]	; (81053b8 <HAL_RCCEx_PeriphCLKConfig+0x548>)
 810526e:	4313      	orrs	r3, r2
 8105270:	650b      	str	r3, [r1, #80]	; 0x50
 8105272:	e001      	b.n	8105278 <HAL_RCCEx_PeriphCLKConfig+0x408>
    }
    else
    {
      /* set overall return value */
      status = ret;
 8105274:	7dfb      	ldrb	r3, [r7, #23]
 8105276:	75bb      	strb	r3, [r7, #22]
    }
  }

  /*---------------------------- SPI4/5 configuration -------------------------------*/
  if(((PeriphClkInit->PeriphClockSelection) & RCC_PERIPHCLK_SPI45) == RCC_PERIPHCLK_SPI45)
 8105278:	687b      	ldr	r3, [r7, #4]
 810527a:	681b      	ldr	r3, [r3, #0]
 810527c:	f403 5300 	and.w	r3, r3, #8192	; 0x2000
 8105280:	2b00      	cmp	r3, #0
 8105282:	d049      	beq.n	8105318 <HAL_RCCEx_PeriphCLKConfig+0x4a8>
  {
    switch(PeriphClkInit->Spi45ClockSelection)
 8105284:	687b      	ldr	r3, [r7, #4]
 8105286:	6e1b      	ldr	r3, [r3, #96]	; 0x60
 8105288:	f5b3 2fa0 	cmp.w	r3, #327680	; 0x50000
 810528c:	d02e      	beq.n	81052ec <HAL_RCCEx_PeriphCLKConfig+0x47c>
 810528e:	f5b3 2fa0 	cmp.w	r3, #327680	; 0x50000
 8105292:	d828      	bhi.n	81052e6 <HAL_RCCEx_PeriphCLKConfig+0x476>
 8105294:	f5b3 2f80 	cmp.w	r3, #262144	; 0x40000
 8105298:	d02a      	beq.n	81052f0 <HAL_RCCEx_PeriphCLKConfig+0x480>
 810529a:	f5b3 2f80 	cmp.w	r3, #262144	; 0x40000
 810529e:	d822      	bhi.n	81052e6 <HAL_RCCEx_PeriphCLKConfig+0x476>
 81052a0:	f5b3 3f40 	cmp.w	r3, #196608	; 0x30000
 81052a4:	d026      	beq.n	81052f4 <HAL_RCCEx_PeriphCLKConfig+0x484>
 81052a6:	f5b3 3f40 	cmp.w	r3, #196608	; 0x30000
 81052aa:	d81c      	bhi.n	81052e6 <HAL_RCCEx_PeriphCLKConfig+0x476>
 81052ac:	f5b3 3f00 	cmp.w	r3, #131072	; 0x20000
 81052b0:	d010      	beq.n	81052d4 <HAL_RCCEx_PeriphCLKConfig+0x464>
 81052b2:	f5b3 3f00 	cmp.w	r3, #131072	; 0x20000
 81052b6:	d816      	bhi.n	81052e6 <HAL_RCCEx_PeriphCLKConfig+0x476>
 81052b8:	2b00      	cmp	r3, #0
 81052ba:	d01d      	beq.n	81052f8 <HAL_RCCEx_PeriphCLKConfig+0x488>
 81052bc:	f5b3 3f80 	cmp.w	r3, #65536	; 0x10000
 81052c0:	d111      	bne.n	81052e6 <HAL_RCCEx_PeriphCLKConfig+0x476>
      /* SPI4/5 clock source configuration done later after clock selection check */
      break;

    case RCC_SPI45CLKSOURCE_PLL2: /* PLL2 is used as clock source for SPI4/5 */

      ret = RCCEx_PLL2_Config(&(PeriphClkInit->PLL2),DIVIDER_Q_UPDATE);
 81052c2:	687b      	ldr	r3, [r7, #4]
 81052c4:	3304      	adds	r3, #4
 81052c6:	2101      	movs	r1, #1
 81052c8:	4618      	mov	r0, r3
 81052ca:	f001 fdf9 	bl	8106ec0 <RCCEx_PLL2_Config>
 81052ce:	4603      	mov	r3, r0
 81052d0:	75fb      	strb	r3, [r7, #23]

      /* SPI4/5 clock source configuration done later after clock selection check */
      break;
 81052d2:	e012      	b.n	81052fa <HAL_RCCEx_PeriphCLKConfig+0x48a>
    case RCC_SPI45CLKSOURCE_PLL3:  /* PLL3 is used as clock source for SPI4/5 */
      ret = RCCEx_PLL3_Config(&(PeriphClkInit->PLL3),DIVIDER_Q_UPDATE);
 81052d4:	687b      	ldr	r3, [r7, #4]
 81052d6:	3324      	adds	r3, #36	; 0x24
 81052d8:	2101      	movs	r1, #1
 81052da:	4618      	mov	r0, r3
 81052dc:	f001 fea2 	bl	8107024 <RCCEx_PLL3_Config>
 81052e0:	4603      	mov	r3, r0
 81052e2:	75fb      	strb	r3, [r7, #23]
      /* SPI4/5 clock source configuration done later after clock selection check */
      break;
 81052e4:	e009      	b.n	81052fa <HAL_RCCEx_PeriphCLKConfig+0x48a>
      /* HSE,  oscillator is used as source of SPI4/5 clock */
      /* SPI4/5 clock source configuration done later after clock selection check */
      break;

    default:
      ret = HAL_ERROR;
 81052e6:	2301      	movs	r3, #1
 81052e8:	75fb      	strb	r3, [r7, #23]
      break;
 81052ea:	e006      	b.n	81052fa <HAL_RCCEx_PeriphCLKConfig+0x48a>
      break;
 81052ec:	bf00      	nop
 81052ee:	e004      	b.n	81052fa <HAL_RCCEx_PeriphCLKConfig+0x48a>
      break;
 81052f0:	bf00      	nop
 81052f2:	e002      	b.n	81052fa <HAL_RCCEx_PeriphCLKConfig+0x48a>
      break;
 81052f4:	bf00      	nop
 81052f6:	e000      	b.n	81052fa <HAL_RCCEx_PeriphCLKConfig+0x48a>
      break;
 81052f8:	bf00      	nop
    }

    if(ret == HAL_OK)
 81052fa:	7dfb      	ldrb	r3, [r7, #23]
 81052fc:	2b00      	cmp	r3, #0
 81052fe:	d109      	bne.n	8105314 <HAL_RCCEx_PeriphCLKConfig+0x4a4>
    {
      /* Set the source of SPI4/5 clock*/
      __HAL_RCC_SPI45_CONFIG(PeriphClkInit->Spi45ClockSelection);
 8105300:	4b2d      	ldr	r3, [pc, #180]	; (81053b8 <HAL_RCCEx_PeriphCLKConfig+0x548>)
 8105302:	6d1b      	ldr	r3, [r3, #80]	; 0x50
 8105304:	f423 22e0 	bic.w	r2, r3, #458752	; 0x70000
 8105308:	687b      	ldr	r3, [r7, #4]
 810530a:	6e1b      	ldr	r3, [r3, #96]	; 0x60
 810530c:	492a      	ldr	r1, [pc, #168]	; (81053b8 <HAL_RCCEx_PeriphCLKConfig+0x548>)
 810530e:	4313      	orrs	r3, r2
 8105310:	650b      	str	r3, [r1, #80]	; 0x50
 8105312:	e001      	b.n	8105318 <HAL_RCCEx_PeriphCLKConfig+0x4a8>
    }
    else
    {
      /* set overall return value */
      status = ret;
 8105314:	7dfb      	ldrb	r3, [r7, #23]
 8105316:	75bb      	strb	r3, [r7, #22]
    }
  }

  /*---------------------------- SPI6 configuration -------------------------------*/
  if(((PeriphClkInit->PeriphClockSelection) & RCC_PERIPHCLK_SPI6) == RCC_PERIPHCLK_SPI6)
 8105318:	687b      	ldr	r3, [r7, #4]
 810531a:	681b      	ldr	r3, [r3, #0]
 810531c:	f403 4380 	and.w	r3, r3, #16384	; 0x4000
 8105320:	2b00      	cmp	r3, #0
 8105322:	d04d      	beq.n	81053c0 <HAL_RCCEx_PeriphCLKConfig+0x550>
  {
    switch(PeriphClkInit->Spi6ClockSelection)
 8105324:	687b      	ldr	r3, [r7, #4]
 8105326:	f8d3 30ac 	ldr.w	r3, [r3, #172]	; 0xac
 810532a:	f1b3 4fa0 	cmp.w	r3, #1342177280	; 0x50000000
 810532e:	d02e      	beq.n	810538e <HAL_RCCEx_PeriphCLKConfig+0x51e>
 8105330:	f1b3 4fa0 	cmp.w	r3, #1342177280	; 0x50000000
 8105334:	d828      	bhi.n	8105388 <HAL_RCCEx_PeriphCLKConfig+0x518>
 8105336:	f1b3 4f80 	cmp.w	r3, #1073741824	; 0x40000000
 810533a:	d02a      	beq.n	8105392 <HAL_RCCEx_PeriphCLKConfig+0x522>
 810533c:	f1b3 4f80 	cmp.w	r3, #1073741824	; 0x40000000
 8105340:	d822      	bhi.n	8105388 <HAL_RCCEx_PeriphCLKConfig+0x518>
 8105342:	f1b3 5f40 	cmp.w	r3, #805306368	; 0x30000000
 8105346:	d026      	beq.n	8105396 <HAL_RCCEx_PeriphCLKConfig+0x526>
 8105348:	f1b3 5f40 	cmp.w	r3, #805306368	; 0x30000000
 810534c:	d81c      	bhi.n	8105388 <HAL_RCCEx_PeriphCLKConfig+0x518>
 810534e:	f1b3 5f00 	cmp.w	r3, #536870912	; 0x20000000
 8105352:	d010      	beq.n	8105376 <HAL_RCCEx_PeriphCLKConfig+0x506>
 8105354:	f1b3 5f00 	cmp.w	r3, #536870912	; 0x20000000
 8105358:	d816      	bhi.n	8105388 <HAL_RCCEx_PeriphCLKConfig+0x518>
 810535a:	2b00      	cmp	r3, #0
 810535c:	d01d      	beq.n	810539a <HAL_RCCEx_PeriphCLKConfig+0x52a>
 810535e:	f1b3 5f80 	cmp.w	r3, #268435456	; 0x10000000
 8105362:	d111      	bne.n	8105388 <HAL_RCCEx_PeriphCLKConfig+0x518>
      /* SPI6 clock source configuration done later after clock selection check */
      break;

    case RCC_SPI6CLKSOURCE_PLL2: /* PLL2 is used as clock source for SPI6*/

      ret = RCCEx_PLL2_Config(&(PeriphClkInit->PLL2),DIVIDER_Q_UPDATE);
 8105364:	687b      	ldr	r3, [r7, #4]
 8105366:	3304      	adds	r3, #4
 8105368:	2101      	movs	r1, #1
 810536a:	4618      	mov	r0, r3
 810536c:	f001 fda8 	bl	8106ec0 <RCCEx_PLL2_Config>
 8105370:	4603      	mov	r3, r0
 8105372:	75fb      	strb	r3, [r7, #23]

      /* SPI6 clock source configuration done later after clock selection check */
      break;
 8105374:	e012      	b.n	810539c <HAL_RCCEx_PeriphCLKConfig+0x52c>
    case RCC_SPI6CLKSOURCE_PLL3:  /* PLL3 is used as clock source for SPI6*/
      ret = RCCEx_PLL3_Config(&(PeriphClkInit->PLL3),DIVIDER_Q_UPDATE);
 8105376:	687b      	ldr	r3, [r7, #4]
 8105378:	3324      	adds	r3, #36	; 0x24
 810537a:	2101      	movs	r1, #1
 810537c:	4618      	mov	r0, r3
 810537e:	f001 fe51 	bl	8107024 <RCCEx_PLL3_Config>
 8105382:	4603      	mov	r3, r0
 8105384:	75fb      	strb	r3, [r7, #23]
      /* SPI6 clock source configuration done later after clock selection check */
      break;
 8105386:	e009      	b.n	810539c <HAL_RCCEx_PeriphCLKConfig+0x52c>
      /* SPI6 clock source configuration done later after clock selection check */
      break;
#endif

    default:
      ret = HAL_ERROR;
 8105388:	2301      	movs	r3, #1
 810538a:	75fb      	strb	r3, [r7, #23]
      break;
 810538c:	e006      	b.n	810539c <HAL_RCCEx_PeriphCLKConfig+0x52c>
      break;
 810538e:	bf00      	nop
 8105390:	e004      	b.n	810539c <HAL_RCCEx_PeriphCLKConfig+0x52c>
      break;
 8105392:	bf00      	nop
 8105394:	e002      	b.n	810539c <HAL_RCCEx_PeriphCLKConfig+0x52c>
      break;
 8105396:	bf00      	nop
 8105398:	e000      	b.n	810539c <HAL_RCCEx_PeriphCLKConfig+0x52c>
      break;
 810539a:	bf00      	nop
    }

    if(ret == HAL_OK)
 810539c:	7dfb      	ldrb	r3, [r7, #23]
 810539e:	2b00      	cmp	r3, #0
 81053a0:	d10c      	bne.n	81053bc <HAL_RCCEx_PeriphCLKConfig+0x54c>
    {
      /* Set the source of SPI6 clock*/
      __HAL_RCC_SPI6_CONFIG(PeriphClkInit->Spi6ClockSelection);
 81053a2:	4b05      	ldr	r3, [pc, #20]	; (81053b8 <HAL_RCCEx_PeriphCLKConfig+0x548>)
 81053a4:	6d9b      	ldr	r3, [r3, #88]	; 0x58
 81053a6:	f023 42e0 	bic.w	r2, r3, #1879048192	; 0x70000000
 81053aa:	687b      	ldr	r3, [r7, #4]
 81053ac:	f8d3 30ac 	ldr.w	r3, [r3, #172]	; 0xac
 81053b0:	4901      	ldr	r1, [pc, #4]	; (81053b8 <HAL_RCCEx_PeriphCLKConfig+0x548>)
 81053b2:	4313      	orrs	r3, r2
 81053b4:	658b      	str	r3, [r1, #88]	; 0x58
 81053b6:	e003      	b.n	81053c0 <HAL_RCCEx_PeriphCLKConfig+0x550>
 81053b8:	58024400 	.word	0x58024400
    }
    else
    {
      /* set overall return value */
      status = ret;
 81053bc:	7dfb      	ldrb	r3, [r7, #23]
 81053be:	75bb      	strb	r3, [r7, #22]
  }
#endif /*DSI*/

#if defined(FDCAN1) || defined(FDCAN2)
  /*---------------------------- FDCAN configuration -------------------------------*/
  if(((PeriphClkInit->PeriphClockSelection) & RCC_PERIPHCLK_FDCAN) == RCC_PERIPHCLK_FDCAN)
 81053c0:	687b      	ldr	r3, [r7, #4]
 81053c2:	681b      	ldr	r3, [r3, #0]
 81053c4:	f403 4300 	and.w	r3, r3, #32768	; 0x8000
 81053c8:	2b00      	cmp	r3, #0
 81053ca:	d02f      	beq.n	810542c <HAL_RCCEx_PeriphCLKConfig+0x5bc>
  {
    switch(PeriphClkInit->FdcanClockSelection)
 81053cc:	687b      	ldr	r3, [r7, #4]
 81053ce:	6edb      	ldr	r3, [r3, #108]	; 0x6c
 81053d0:	f1b3 5f00 	cmp.w	r3, #536870912	; 0x20000000
 81053d4:	d00e      	beq.n	81053f4 <HAL_RCCEx_PeriphCLKConfig+0x584>
 81053d6:	f1b3 5f00 	cmp.w	r3, #536870912	; 0x20000000
 81053da:	d814      	bhi.n	8105406 <HAL_RCCEx_PeriphCLKConfig+0x596>
 81053dc:	2b00      	cmp	r3, #0
 81053de:	d015      	beq.n	810540c <HAL_RCCEx_PeriphCLKConfig+0x59c>
 81053e0:	f1b3 5f80 	cmp.w	r3, #268435456	; 0x10000000
 81053e4:	d10f      	bne.n	8105406 <HAL_RCCEx_PeriphCLKConfig+0x596>
    {
    case RCC_FDCANCLKSOURCE_PLL:      /* PLL is used as clock source for FDCAN*/
      /* Enable FDCAN Clock output generated form System PLL . */
      __HAL_RCC_PLLCLKOUT_ENABLE(RCC_PLL1_DIVQ);
 81053e6:	4bb0      	ldr	r3, [pc, #704]	; (81056a8 <HAL_RCCEx_PeriphCLKConfig+0x838>)
 81053e8:	6adb      	ldr	r3, [r3, #44]	; 0x2c
 81053ea:	4aaf      	ldr	r2, [pc, #700]	; (81056a8 <HAL_RCCEx_PeriphCLKConfig+0x838>)
 81053ec:	f443 3300 	orr.w	r3, r3, #131072	; 0x20000
 81053f0:	62d3      	str	r3, [r2, #44]	; 0x2c

      /* FDCAN clock source configuration done later after clock selection check */
      break;
 81053f2:	e00c      	b.n	810540e <HAL_RCCEx_PeriphCLKConfig+0x59e>

    case RCC_FDCANCLKSOURCE_PLL2: /* PLL2 is used as clock source for FDCAN*/

      ret = RCCEx_PLL2_Config(&(PeriphClkInit->PLL2),DIVIDER_Q_UPDATE);
 81053f4:	687b      	ldr	r3, [r7, #4]
 81053f6:	3304      	adds	r3, #4
 81053f8:	2101      	movs	r1, #1
 81053fa:	4618      	mov	r0, r3
 81053fc:	f001 fd60 	bl	8106ec0 <RCCEx_PLL2_Config>
 8105400:	4603      	mov	r3, r0
 8105402:	75fb      	strb	r3, [r7, #23]

      /* FDCAN clock source configuration done later after clock selection check */
      break;
 8105404:	e003      	b.n	810540e <HAL_RCCEx_PeriphCLKConfig+0x59e>
      /* HSE is used as clock source for FDCAN*/
      /* FDCAN clock source configuration done later after clock selection check */
      break;

    default:
      ret = HAL_ERROR;
 8105406:	2301      	movs	r3, #1
 8105408:	75fb      	strb	r3, [r7, #23]
      break;
 810540a:	e000      	b.n	810540e <HAL_RCCEx_PeriphCLKConfig+0x59e>
      break;
 810540c:	bf00      	nop
    }

    if(ret == HAL_OK)
 810540e:	7dfb      	ldrb	r3, [r7, #23]
 8105410:	2b00      	cmp	r3, #0
 8105412:	d109      	bne.n	8105428 <HAL_RCCEx_PeriphCLKConfig+0x5b8>
    {
      /* Set the source of FDCAN clock*/
      __HAL_RCC_FDCAN_CONFIG(PeriphClkInit->FdcanClockSelection);
 8105414:	4ba4      	ldr	r3, [pc, #656]	; (81056a8 <HAL_RCCEx_PeriphCLKConfig+0x838>)
 8105416:	6d1b      	ldr	r3, [r3, #80]	; 0x50
 8105418:	f023 5240 	bic.w	r2, r3, #805306368	; 0x30000000
 810541c:	687b      	ldr	r3, [r7, #4]
 810541e:	6edb      	ldr	r3, [r3, #108]	; 0x6c
 8105420:	49a1      	ldr	r1, [pc, #644]	; (81056a8 <HAL_RCCEx_PeriphCLKConfig+0x838>)
 8105422:	4313      	orrs	r3, r2
 8105424:	650b      	str	r3, [r1, #80]	; 0x50
 8105426:	e001      	b.n	810542c <HAL_RCCEx_PeriphCLKConfig+0x5bc>
    }
    else
    {
      /* set overall return value */
      status = ret;
 8105428:	7dfb      	ldrb	r3, [r7, #23]
 810542a:	75bb      	strb	r3, [r7, #22]
    }
  }
#endif /*FDCAN1 || FDCAN2*/

  /*---------------------------- FMC configuration -------------------------------*/
  if(((PeriphClkInit->PeriphClockSelection) & RCC_PERIPHCLK_FMC) == RCC_PERIPHCLK_FMC)
 810542c:	687b      	ldr	r3, [r7, #4]
 810542e:	681b      	ldr	r3, [r3, #0]
 8105430:	f003 7380 	and.w	r3, r3, #16777216	; 0x1000000
 8105434:	2b00      	cmp	r3, #0
 8105436:	d032      	beq.n	810549e <HAL_RCCEx_PeriphCLKConfig+0x62e>
  {
    switch(PeriphClkInit->FmcClockSelection)
 8105438:	687b      	ldr	r3, [r7, #4]
 810543a:	6c5b      	ldr	r3, [r3, #68]	; 0x44
 810543c:	2b03      	cmp	r3, #3
 810543e:	d81b      	bhi.n	8105478 <HAL_RCCEx_PeriphCLKConfig+0x608>
 8105440:	a201      	add	r2, pc, #4	; (adr r2, 8105448 <HAL_RCCEx_PeriphCLKConfig+0x5d8>)
 8105442:	f852 f023 	ldr.w	pc, [r2, r3, lsl #2]
 8105446:	bf00      	nop
 8105448:	0810547f 	.word	0x0810547f
 810544c:	08105459 	.word	0x08105459
 8105450:	08105467 	.word	0x08105467
 8105454:	0810547f 	.word	0x0810547f
    {
    case RCC_FMCCLKSOURCE_PLL:      /* PLL is used as clock source for FMC*/
      /* Enable FMC Clock output generated form System PLL . */
      __HAL_RCC_PLLCLKOUT_ENABLE(RCC_PLL1_DIVQ);
 8105458:	4b93      	ldr	r3, [pc, #588]	; (81056a8 <HAL_RCCEx_PeriphCLKConfig+0x838>)
 810545a:	6adb      	ldr	r3, [r3, #44]	; 0x2c
 810545c:	4a92      	ldr	r2, [pc, #584]	; (81056a8 <HAL_RCCEx_PeriphCLKConfig+0x838>)
 810545e:	f443 3300 	orr.w	r3, r3, #131072	; 0x20000
 8105462:	62d3      	str	r3, [r2, #44]	; 0x2c

      /* FMC clock source configuration done later after clock selection check */
      break;
 8105464:	e00c      	b.n	8105480 <HAL_RCCEx_PeriphCLKConfig+0x610>

    case RCC_FMCCLKSOURCE_PLL2: /* PLL2 is used as clock source for FMC*/

      ret = RCCEx_PLL2_Config(&(PeriphClkInit->PLL2),DIVIDER_R_UPDATE);
 8105466:	687b      	ldr	r3, [r7, #4]
 8105468:	3304      	adds	r3, #4
 810546a:	2102      	movs	r1, #2
 810546c:	4618      	mov	r0, r3
 810546e:	f001 fd27 	bl	8106ec0 <RCCEx_PLL2_Config>
 8105472:	4603      	mov	r3, r0
 8105474:	75fb      	strb	r3, [r7, #23]

      /* FMC clock source configuration done later after clock selection check */
      break;
 8105476:	e003      	b.n	8105480 <HAL_RCCEx_PeriphCLKConfig+0x610>
    case RCC_FMCCLKSOURCE_HCLK:
      /* D1/CD HCLK  clock selected as FMC kernel peripheral clock */
      break;

    default:
      ret = HAL_ERROR;
 8105478:	2301      	movs	r3, #1
 810547a:	75fb      	strb	r3, [r7, #23]
      break;
 810547c:	e000      	b.n	8105480 <HAL_RCCEx_PeriphCLKConfig+0x610>
      break;
 810547e:	bf00      	nop
    }

    if(ret == HAL_OK)
 8105480:	7dfb      	ldrb	r3, [r7, #23]
 8105482:	2b00      	cmp	r3, #0
 8105484:	d109      	bne.n	810549a <HAL_RCCEx_PeriphCLKConfig+0x62a>
    {
      /* Set the source of FMC clock*/
      __HAL_RCC_FMC_CONFIG(PeriphClkInit->FmcClockSelection);
 8105486:	4b88      	ldr	r3, [pc, #544]	; (81056a8 <HAL_RCCEx_PeriphCLKConfig+0x838>)
 8105488:	6cdb      	ldr	r3, [r3, #76]	; 0x4c
 810548a:	f023 0203 	bic.w	r2, r3, #3
 810548e:	687b      	ldr	r3, [r7, #4]
 8105490:	6c5b      	ldr	r3, [r3, #68]	; 0x44
 8105492:	4985      	ldr	r1, [pc, #532]	; (81056a8 <HAL_RCCEx_PeriphCLKConfig+0x838>)
 8105494:	4313      	orrs	r3, r2
 8105496:	64cb      	str	r3, [r1, #76]	; 0x4c
 8105498:	e001      	b.n	810549e <HAL_RCCEx_PeriphCLKConfig+0x62e>
    }
    else
    {
      /* set overall return value */
      status = ret;
 810549a:	7dfb      	ldrb	r3, [r7, #23]
 810549c:	75bb      	strb	r3, [r7, #22]
    }
  }

  /*---------------------------- RTC configuration -------------------------------*/
  if(((PeriphClkInit->PeriphClockSelection) & RCC_PERIPHCLK_RTC) == RCC_PERIPHCLK_RTC)
 810549e:	687b      	ldr	r3, [r7, #4]
 81054a0:	681b      	ldr	r3, [r3, #0]
 81054a2:	f403 0380 	and.w	r3, r3, #4194304	; 0x400000
 81054a6:	2b00      	cmp	r3, #0
 81054a8:	f000 8088 	beq.w	81055bc <HAL_RCCEx_PeriphCLKConfig+0x74c>
  {
    /* check for RTC Parameters used to output RTCCLK */
    assert_param(IS_RCC_RTCCLKSOURCE(PeriphClkInit->RTCClockSelection));

    /* Enable write access to Backup domain */
    SET_BIT(PWR->CR1, PWR_CR1_DBP);
 81054ac:	4b7f      	ldr	r3, [pc, #508]	; (81056ac <HAL_RCCEx_PeriphCLKConfig+0x83c>)
 81054ae:	681b      	ldr	r3, [r3, #0]
 81054b0:	4a7e      	ldr	r2, [pc, #504]	; (81056ac <HAL_RCCEx_PeriphCLKConfig+0x83c>)
 81054b2:	f443 7380 	orr.w	r3, r3, #256	; 0x100
 81054b6:	6013      	str	r3, [r2, #0]

    /* Wait for Backup domain Write protection disable */
    tickstart = HAL_GetTick();
 81054b8:	f7fd fa28 	bl	810290c <HAL_GetTick>
 81054bc:	6138      	str	r0, [r7, #16]

    while((PWR->CR1 & PWR_CR1_DBP) == 0U)
 81054be:	e009      	b.n	81054d4 <HAL_RCCEx_PeriphCLKConfig+0x664>
    {
      if((HAL_GetTick() - tickstart) > RCC_DBP_TIMEOUT_VALUE)
 81054c0:	f7fd fa24 	bl	810290c <HAL_GetTick>
 81054c4:	4602      	mov	r2, r0
 81054c6:	693b      	ldr	r3, [r7, #16]
 81054c8:	1ad3      	subs	r3, r2, r3
 81054ca:	2b64      	cmp	r3, #100	; 0x64
 81054cc:	d902      	bls.n	81054d4 <HAL_RCCEx_PeriphCLKConfig+0x664>
      {
        ret = HAL_TIMEOUT;
 81054ce:	2303      	movs	r3, #3
 81054d0:	75fb      	strb	r3, [r7, #23]
        break;
 81054d2:	e005      	b.n	81054e0 <HAL_RCCEx_PeriphCLKConfig+0x670>
    while((PWR->CR1 & PWR_CR1_DBP) == 0U)
 81054d4:	4b75      	ldr	r3, [pc, #468]	; (81056ac <HAL_RCCEx_PeriphCLKConfig+0x83c>)
 81054d6:	681b      	ldr	r3, [r3, #0]
 81054d8:	f403 7380 	and.w	r3, r3, #256	; 0x100
 81054dc:	2b00      	cmp	r3, #0
 81054de:	d0ef      	beq.n	81054c0 <HAL_RCCEx_PeriphCLKConfig+0x650>
      }
    }

    if(ret == HAL_OK)
 81054e0:	7dfb      	ldrb	r3, [r7, #23]
 81054e2:	2b00      	cmp	r3, #0
 81054e4:	d168      	bne.n	81055b8 <HAL_RCCEx_PeriphCLKConfig+0x748>
    {
      /* Reset the Backup domain only if the RTC Clock source selection is modified */
      if((RCC->BDCR & RCC_BDCR_RTCSEL) != (PeriphClkInit->RTCClockSelection & RCC_BDCR_RTCSEL))
 81054e6:	4b70      	ldr	r3, [pc, #448]	; (81056a8 <HAL_RCCEx_PeriphCLKConfig+0x838>)
 81054e8:	6f1a      	ldr	r2, [r3, #112]	; 0x70
 81054ea:	687b      	ldr	r3, [r7, #4]
 81054ec:	f8d3 30b0 	ldr.w	r3, [r3, #176]	; 0xb0
 81054f0:	4053      	eors	r3, r2
 81054f2:	f403 7340 	and.w	r3, r3, #768	; 0x300
 81054f6:	2b00      	cmp	r3, #0
 81054f8:	d013      	beq.n	8105522 <HAL_RCCEx_PeriphCLKConfig+0x6b2>
      {
        /* Store the content of BDCR register before the reset of Backup Domain */
        tmpreg = (RCC->BDCR & ~(RCC_BDCR_RTCSEL));
 81054fa:	4b6b      	ldr	r3, [pc, #428]	; (81056a8 <HAL_RCCEx_PeriphCLKConfig+0x838>)
 81054fc:	6f1b      	ldr	r3, [r3, #112]	; 0x70
 81054fe:	f423 7340 	bic.w	r3, r3, #768	; 0x300
 8105502:	60fb      	str	r3, [r7, #12]
        /* RTC Clock selection can be changed only if the Backup Domain is reset */
        __HAL_RCC_BACKUPRESET_FORCE();
 8105504:	4b68      	ldr	r3, [pc, #416]	; (81056a8 <HAL_RCCEx_PeriphCLKConfig+0x838>)
 8105506:	6f1b      	ldr	r3, [r3, #112]	; 0x70
 8105508:	4a67      	ldr	r2, [pc, #412]	; (81056a8 <HAL_RCCEx_PeriphCLKConfig+0x838>)
 810550a:	f443 3380 	orr.w	r3, r3, #65536	; 0x10000
 810550e:	6713      	str	r3, [r2, #112]	; 0x70
        __HAL_RCC_BACKUPRESET_RELEASE();
 8105510:	4b65      	ldr	r3, [pc, #404]	; (81056a8 <HAL_RCCEx_PeriphCLKConfig+0x838>)
 8105512:	6f1b      	ldr	r3, [r3, #112]	; 0x70
 8105514:	4a64      	ldr	r2, [pc, #400]	; (81056a8 <HAL_RCCEx_PeriphCLKConfig+0x838>)
 8105516:	f423 3380 	bic.w	r3, r3, #65536	; 0x10000
 810551a:	6713      	str	r3, [r2, #112]	; 0x70
        /* Restore the Content of BDCR register */
        RCC->BDCR = tmpreg;
 810551c:	4a62      	ldr	r2, [pc, #392]	; (81056a8 <HAL_RCCEx_PeriphCLKConfig+0x838>)
 810551e:	68fb      	ldr	r3, [r7, #12]
 8105520:	6713      	str	r3, [r2, #112]	; 0x70
      }

      /* If LSE is selected as RTC clock source (and enabled prior to Backup Domain reset), wait for LSE reactivation */
      if(PeriphClkInit->RTCClockSelection == RCC_RTCCLKSOURCE_LSE)
 8105522:	687b      	ldr	r3, [r7, #4]
 8105524:	f8d3 30b0 	ldr.w	r3, [r3, #176]	; 0xb0
 8105528:	f5b3 7f80 	cmp.w	r3, #256	; 0x100
 810552c:	d115      	bne.n	810555a <HAL_RCCEx_PeriphCLKConfig+0x6ea>
      {
        /* Get Start Tick*/
        tickstart = HAL_GetTick();
 810552e:	f7fd f9ed 	bl	810290c <HAL_GetTick>
 8105532:	6138      	str	r0, [r7, #16]

        /* Wait till LSE is ready */
        while(__HAL_RCC_GET_FLAG(RCC_FLAG_LSERDY) == 0U)
 8105534:	e00b      	b.n	810554e <HAL_RCCEx_PeriphCLKConfig+0x6de>
        {
          if((HAL_GetTick() - tickstart) > RCC_LSE_TIMEOUT_VALUE)
 8105536:	f7fd f9e9 	bl	810290c <HAL_GetTick>
 810553a:	4602      	mov	r2, r0
 810553c:	693b      	ldr	r3, [r7, #16]
 810553e:	1ad3      	subs	r3, r2, r3
 8105540:	f241 3288 	movw	r2, #5000	; 0x1388
 8105544:	4293      	cmp	r3, r2
 8105546:	d902      	bls.n	810554e <HAL_RCCEx_PeriphCLKConfig+0x6de>
          {
            ret = HAL_TIMEOUT;
 8105548:	2303      	movs	r3, #3
 810554a:	75fb      	strb	r3, [r7, #23]
            break;
 810554c:	e005      	b.n	810555a <HAL_RCCEx_PeriphCLKConfig+0x6ea>
        while(__HAL_RCC_GET_FLAG(RCC_FLAG_LSERDY) == 0U)
 810554e:	4b56      	ldr	r3, [pc, #344]	; (81056a8 <HAL_RCCEx_PeriphCLKConfig+0x838>)
 8105550:	6f1b      	ldr	r3, [r3, #112]	; 0x70
 8105552:	f003 0302 	and.w	r3, r3, #2
 8105556:	2b00      	cmp	r3, #0
 8105558:	d0ed      	beq.n	8105536 <HAL_RCCEx_PeriphCLKConfig+0x6c6>
          }
        }
      }

      if(ret == HAL_OK)
 810555a:	7dfb      	ldrb	r3, [r7, #23]
 810555c:	2b00      	cmp	r3, #0
 810555e:	d128      	bne.n	81055b2 <HAL_RCCEx_PeriphCLKConfig+0x742>
      {
        __HAL_RCC_RTC_CONFIG(PeriphClkInit->RTCClockSelection);
 8105560:	687b      	ldr	r3, [r7, #4]
 8105562:	f8d3 30b0 	ldr.w	r3, [r3, #176]	; 0xb0
 8105566:	f403 7340 	and.w	r3, r3, #768	; 0x300
 810556a:	f5b3 7f40 	cmp.w	r3, #768	; 0x300
 810556e:	d10f      	bne.n	8105590 <HAL_RCCEx_PeriphCLKConfig+0x720>
 8105570:	4b4d      	ldr	r3, [pc, #308]	; (81056a8 <HAL_RCCEx_PeriphCLKConfig+0x838>)
 8105572:	691b      	ldr	r3, [r3, #16]
 8105574:	f423 527c 	bic.w	r2, r3, #16128	; 0x3f00
 8105578:	687b      	ldr	r3, [r7, #4]
 810557a:	f8d3 30b0 	ldr.w	r3, [r3, #176]	; 0xb0
 810557e:	091b      	lsrs	r3, r3, #4
 8105580:	f023 437f 	bic.w	r3, r3, #4278190080	; 0xff000000
 8105584:	f023 0330 	bic.w	r3, r3, #48	; 0x30
 8105588:	4947      	ldr	r1, [pc, #284]	; (81056a8 <HAL_RCCEx_PeriphCLKConfig+0x838>)
 810558a:	4313      	orrs	r3, r2
 810558c:	610b      	str	r3, [r1, #16]
 810558e:	e005      	b.n	810559c <HAL_RCCEx_PeriphCLKConfig+0x72c>
 8105590:	4b45      	ldr	r3, [pc, #276]	; (81056a8 <HAL_RCCEx_PeriphCLKConfig+0x838>)
 8105592:	691b      	ldr	r3, [r3, #16]
 8105594:	4a44      	ldr	r2, [pc, #272]	; (81056a8 <HAL_RCCEx_PeriphCLKConfig+0x838>)
 8105596:	f423 537c 	bic.w	r3, r3, #16128	; 0x3f00
 810559a:	6113      	str	r3, [r2, #16]
 810559c:	4b42      	ldr	r3, [pc, #264]	; (81056a8 <HAL_RCCEx_PeriphCLKConfig+0x838>)
 810559e:	6f1a      	ldr	r2, [r3, #112]	; 0x70
 81055a0:	687b      	ldr	r3, [r7, #4]
 81055a2:	f8d3 30b0 	ldr.w	r3, [r3, #176]	; 0xb0
 81055a6:	f3c3 030b 	ubfx	r3, r3, #0, #12
 81055aa:	493f      	ldr	r1, [pc, #252]	; (81056a8 <HAL_RCCEx_PeriphCLKConfig+0x838>)
 81055ac:	4313      	orrs	r3, r2
 81055ae:	670b      	str	r3, [r1, #112]	; 0x70
 81055b0:	e004      	b.n	81055bc <HAL_RCCEx_PeriphCLKConfig+0x74c>
      }
      else
      {
        /* set overall return value */
        status = ret;
 81055b2:	7dfb      	ldrb	r3, [r7, #23]
 81055b4:	75bb      	strb	r3, [r7, #22]
 81055b6:	e001      	b.n	81055bc <HAL_RCCEx_PeriphCLKConfig+0x74c>
      }
    }
    else
    {
      /* set overall return value */
      status = ret;
 81055b8:	7dfb      	ldrb	r3, [r7, #23]
 81055ba:	75bb      	strb	r3, [r7, #22]
    }
  }


  /*-------------------------- USART1/6 configuration --------------------------*/
  if(((PeriphClkInit->PeriphClockSelection) & RCC_PERIPHCLK_USART16) == RCC_PERIPHCLK_USART16)
 81055bc:	687b      	ldr	r3, [r7, #4]
 81055be:	681b      	ldr	r3, [r3, #0]
 81055c0:	f003 0301 	and.w	r3, r3, #1
 81055c4:	2b00      	cmp	r3, #0
 81055c6:	f000 8083 	beq.w	81056d0 <HAL_RCCEx_PeriphCLKConfig+0x860>
  {
    switch(PeriphClkInit->Usart16ClockSelection)
 81055ca:	687b      	ldr	r3, [r7, #4]
 81055cc:	6f9b      	ldr	r3, [r3, #120]	; 0x78
 81055ce:	2b28      	cmp	r3, #40	; 0x28
 81055d0:	d866      	bhi.n	81056a0 <HAL_RCCEx_PeriphCLKConfig+0x830>
 81055d2:	a201      	add	r2, pc, #4	; (adr r2, 81055d8 <HAL_RCCEx_PeriphCLKConfig+0x768>)
 81055d4:	f852 f023 	ldr.w	pc, [r2, r3, lsl #2]
 81055d8:	081056b1 	.word	0x081056b1
 81055dc:	081056a1 	.word	0x081056a1
 81055e0:	081056a1 	.word	0x081056a1
 81055e4:	081056a1 	.word	0x081056a1
 81055e8:	081056a1 	.word	0x081056a1
 81055ec:	081056a1 	.word	0x081056a1
 81055f0:	081056a1 	.word	0x081056a1
 81055f4:	081056a1 	.word	0x081056a1
 81055f8:	0810567d 	.word	0x0810567d
 81055fc:	081056a1 	.word	0x081056a1
 8105600:	081056a1 	.word	0x081056a1
 8105604:	081056a1 	.word	0x081056a1
 8105608:	081056a1 	.word	0x081056a1
 810560c:	081056a1 	.word	0x081056a1
 8105610:	081056a1 	.word	0x081056a1
 8105614:	081056a1 	.word	0x081056a1
 8105618:	0810568f 	.word	0x0810568f
 810561c:	081056a1 	.word	0x081056a1
 8105620:	081056a1 	.word	0x081056a1
 8105624:	081056a1 	.word	0x081056a1
 8105628:	081056a1 	.word	0x081056a1
 810562c:	081056a1 	.word	0x081056a1
 8105630:	081056a1 	.word	0x081056a1
 8105634:	081056a1 	.word	0x081056a1
 8105638:	081056b1 	.word	0x081056b1
 810563c:	081056a1 	.word	0x081056a1
 8105640:	081056a1 	.word	0x081056a1
 8105644:	081056a1 	.word	0x081056a1
 8105648:	081056a1 	.word	0x081056a1
 810564c:	081056a1 	.word	0x081056a1
 8105650:	081056a1 	.word	0x081056a1
 8105654:	081056a1 	.word	0x081056a1
 8105658:	081056b1 	.word	0x081056b1
 810565c:	081056a1 	.word	0x081056a1
 8105660:	081056a1 	.word	0x081056a1
 8105664:	081056a1 	.word	0x081056a1
 8105668:	081056a1 	.word	0x081056a1
 810566c:	081056a1 	.word	0x081056a1
 8105670:	081056a1 	.word	0x081056a1
 8105674:	081056a1 	.word	0x081056a1
 8105678:	081056b1 	.word	0x081056b1
    case RCC_USART16CLKSOURCE_PCLK2: /* CD/D2 PCLK2 as clock source for USART1/6 */
      /* USART1/6 clock source configuration done later after clock selection check */
      break;

    case RCC_USART16CLKSOURCE_PLL2: /* PLL2 is used as clock source for USART1/6 */
      ret = RCCEx_PLL2_Config(&(PeriphClkInit->PLL2),DIVIDER_Q_UPDATE);
 810567c:	687b      	ldr	r3, [r7, #4]
 810567e:	3304      	adds	r3, #4
 8105680:	2101      	movs	r1, #1
 8105682:	4618      	mov	r0, r3
 8105684:	f001 fc1c 	bl	8106ec0 <RCCEx_PLL2_Config>
 8105688:	4603      	mov	r3, r0
 810568a:	75fb      	strb	r3, [r7, #23]
      /* USART1/6 clock source configuration done later after clock selection check */
      break;
 810568c:	e011      	b.n	81056b2 <HAL_RCCEx_PeriphCLKConfig+0x842>

    case RCC_USART16CLKSOURCE_PLL3: /* PLL3 is used as clock source for USART1/6 */
      ret = RCCEx_PLL3_Config(&(PeriphClkInit->PLL3),DIVIDER_Q_UPDATE);
 810568e:	687b      	ldr	r3, [r7, #4]
 8105690:	3324      	adds	r3, #36	; 0x24
 8105692:	2101      	movs	r1, #1
 8105694:	4618      	mov	r0, r3
 8105696:	f001 fcc5 	bl	8107024 <RCCEx_PLL3_Config>
 810569a:	4603      	mov	r3, r0
 810569c:	75fb      	strb	r3, [r7, #23]
      /* USART1/6 clock source configuration done later after clock selection check */
      break;
 810569e:	e008      	b.n	81056b2 <HAL_RCCEx_PeriphCLKConfig+0x842>
      /* LSE,  oscillator is used as source of USART1/6 clock */
      /* USART1/6 clock source configuration done later after clock selection check */
      break;

    default:
      ret = HAL_ERROR;
 81056a0:	2301      	movs	r3, #1
 81056a2:	75fb      	strb	r3, [r7, #23]
      break;
 81056a4:	e005      	b.n	81056b2 <HAL_RCCEx_PeriphCLKConfig+0x842>
 81056a6:	bf00      	nop
 81056a8:	58024400 	.word	0x58024400
 81056ac:	58024800 	.word	0x58024800
      break;
 81056b0:	bf00      	nop
    }

    if(ret == HAL_OK)
 81056b2:	7dfb      	ldrb	r3, [r7, #23]
 81056b4:	2b00      	cmp	r3, #0
 81056b6:	d109      	bne.n	81056cc <HAL_RCCEx_PeriphCLKConfig+0x85c>
    {
      /* Set the source of USART1/6 clock */
      __HAL_RCC_USART16_CONFIG(PeriphClkInit->Usart16ClockSelection);
 81056b8:	4b96      	ldr	r3, [pc, #600]	; (8105914 <HAL_RCCEx_PeriphCLKConfig+0xaa4>)
 81056ba:	6d5b      	ldr	r3, [r3, #84]	; 0x54
 81056bc:	f023 0238 	bic.w	r2, r3, #56	; 0x38
 81056c0:	687b      	ldr	r3, [r7, #4]
 81056c2:	6f9b      	ldr	r3, [r3, #120]	; 0x78
 81056c4:	4993      	ldr	r1, [pc, #588]	; (8105914 <HAL_RCCEx_PeriphCLKConfig+0xaa4>)
 81056c6:	4313      	orrs	r3, r2
 81056c8:	654b      	str	r3, [r1, #84]	; 0x54
 81056ca:	e001      	b.n	81056d0 <HAL_RCCEx_PeriphCLKConfig+0x860>
    }
    else
    {
      /* set overall return value */
      status = ret;
 81056cc:	7dfb      	ldrb	r3, [r7, #23]
 81056ce:	75bb      	strb	r3, [r7, #22]
    }
  }

  /*-------------------------- USART2/3/4/5/7/8 Configuration --------------------------*/
  if(((PeriphClkInit->PeriphClockSelection) & RCC_PERIPHCLK_USART234578) == RCC_PERIPHCLK_USART234578)
 81056d0:	687b      	ldr	r3, [r7, #4]
 81056d2:	681b      	ldr	r3, [r3, #0]
 81056d4:	f003 0302 	and.w	r3, r3, #2
 81056d8:	2b00      	cmp	r3, #0
 81056da:	d038      	beq.n	810574e <HAL_RCCEx_PeriphCLKConfig+0x8de>
  {
    switch(PeriphClkInit->Usart234578ClockSelection)
 81056dc:	687b      	ldr	r3, [r7, #4]
 81056de:	6f5b      	ldr	r3, [r3, #116]	; 0x74
 81056e0:	2b05      	cmp	r3, #5
 81056e2:	d821      	bhi.n	8105728 <HAL_RCCEx_PeriphCLKConfig+0x8b8>
 81056e4:	a201      	add	r2, pc, #4	; (adr r2, 81056ec <HAL_RCCEx_PeriphCLKConfig+0x87c>)
 81056e6:	f852 f023 	ldr.w	pc, [r2, r3, lsl #2]
 81056ea:	bf00      	nop
 81056ec:	0810572f 	.word	0x0810572f
 81056f0:	08105705 	.word	0x08105705
 81056f4:	08105717 	.word	0x08105717
 81056f8:	0810572f 	.word	0x0810572f
 81056fc:	0810572f 	.word	0x0810572f
 8105700:	0810572f 	.word	0x0810572f
    case RCC_USART234578CLKSOURCE_PCLK1: /* CD/D2 PCLK1 as clock source for USART2/3/4/5/7/8 */
      /* USART2/3/4/5/7/8 clock source configuration done later after clock selection check */
      break;

    case RCC_USART234578CLKSOURCE_PLL2: /* PLL2 is used as clock source for USART2/3/4/5/7/8 */
      ret = RCCEx_PLL2_Config(&(PeriphClkInit->PLL2),DIVIDER_Q_UPDATE);
 8105704:	687b      	ldr	r3, [r7, #4]
 8105706:	3304      	adds	r3, #4
 8105708:	2101      	movs	r1, #1
 810570a:	4618      	mov	r0, r3
 810570c:	f001 fbd8 	bl	8106ec0 <RCCEx_PLL2_Config>
 8105710:	4603      	mov	r3, r0
 8105712:	75fb      	strb	r3, [r7, #23]
      /* USART2/3/4/5/7/8 clock source configuration done later after clock selection check */
      break;
 8105714:	e00c      	b.n	8105730 <HAL_RCCEx_PeriphCLKConfig+0x8c0>

    case RCC_USART234578CLKSOURCE_PLL3: /* PLL3 is used as clock source for USART2/3/4/5/7/8 */
      ret = RCCEx_PLL3_Config(&(PeriphClkInit->PLL3),DIVIDER_Q_UPDATE);
 8105716:	687b      	ldr	r3, [r7, #4]
 8105718:	3324      	adds	r3, #36	; 0x24
 810571a:	2101      	movs	r1, #1
 810571c:	4618      	mov	r0, r3
 810571e:	f001 fc81 	bl	8107024 <RCCEx_PLL3_Config>
 8105722:	4603      	mov	r3, r0
 8105724:	75fb      	strb	r3, [r7, #23]
      /* USART2/3/4/5/7/8 clock source configuration done later after clock selection check */
      break;
 8105726:	e003      	b.n	8105730 <HAL_RCCEx_PeriphCLKConfig+0x8c0>
      /* LSE,  oscillator is used as source of USART2/3/4/5/7/8 clock */
      /* USART2/3/4/5/7/8 clock source configuration done later after clock selection check */
      break;

    default:
      ret = HAL_ERROR;
 8105728:	2301      	movs	r3, #1
 810572a:	75fb      	strb	r3, [r7, #23]
      break;
 810572c:	e000      	b.n	8105730 <HAL_RCCEx_PeriphCLKConfig+0x8c0>
      break;
 810572e:	bf00      	nop
    }

    if(ret == HAL_OK)
 8105730:	7dfb      	ldrb	r3, [r7, #23]
 8105732:	2b00      	cmp	r3, #0
 8105734:	d109      	bne.n	810574a <HAL_RCCEx_PeriphCLKConfig+0x8da>
    {
      /* Set the source of USART2/3/4/5/7/8 clock */
      __HAL_RCC_USART234578_CONFIG(PeriphClkInit->Usart234578ClockSelection);
 8105736:	4b77      	ldr	r3, [pc, #476]	; (8105914 <HAL_RCCEx_PeriphCLKConfig+0xaa4>)
 8105738:	6d5b      	ldr	r3, [r3, #84]	; 0x54
 810573a:	f023 0207 	bic.w	r2, r3, #7
 810573e:	687b      	ldr	r3, [r7, #4]
 8105740:	6f5b      	ldr	r3, [r3, #116]	; 0x74
 8105742:	4974      	ldr	r1, [pc, #464]	; (8105914 <HAL_RCCEx_PeriphCLKConfig+0xaa4>)
 8105744:	4313      	orrs	r3, r2
 8105746:	654b      	str	r3, [r1, #84]	; 0x54
 8105748:	e001      	b.n	810574e <HAL_RCCEx_PeriphCLKConfig+0x8de>
    }
    else
    {
      /* set overall return value */
      status = ret;
 810574a:	7dfb      	ldrb	r3, [r7, #23]
 810574c:	75bb      	strb	r3, [r7, #22]
    }
  }

  /*-------------------------- LPUART1 Configuration -------------------------*/
  if(((PeriphClkInit->PeriphClockSelection) & RCC_PERIPHCLK_LPUART1) == RCC_PERIPHCLK_LPUART1)
 810574e:	687b      	ldr	r3, [r7, #4]
 8105750:	681b      	ldr	r3, [r3, #0]
 8105752:	f003 0304 	and.w	r3, r3, #4
 8105756:	2b00      	cmp	r3, #0
 8105758:	d03a      	beq.n	81057d0 <HAL_RCCEx_PeriphCLKConfig+0x960>
  {
    switch(PeriphClkInit->Lpuart1ClockSelection)
 810575a:	687b      	ldr	r3, [r7, #4]
 810575c:	f8d3 3090 	ldr.w	r3, [r3, #144]	; 0x90
 8105760:	2b05      	cmp	r3, #5
 8105762:	d821      	bhi.n	81057a8 <HAL_RCCEx_PeriphCLKConfig+0x938>
 8105764:	a201      	add	r2, pc, #4	; (adr r2, 810576c <HAL_RCCEx_PeriphCLKConfig+0x8fc>)
 8105766:	f852 f023 	ldr.w	pc, [r2, r3, lsl #2]
 810576a:	bf00      	nop
 810576c:	081057af 	.word	0x081057af
 8105770:	08105785 	.word	0x08105785
 8105774:	08105797 	.word	0x08105797
 8105778:	081057af 	.word	0x081057af
 810577c:	081057af 	.word	0x081057af
 8105780:	081057af 	.word	0x081057af
    case RCC_LPUART1CLKSOURCE_PCLK4: /* SRD/D3 PCLK1 (PCLK4) as clock source for LPUART1 */
      /* LPUART1 clock source configuration done later after clock selection check */
      break;

    case RCC_LPUART1CLKSOURCE_PLL2: /* PLL2 is used as clock source for LPUART1 */
      ret = RCCEx_PLL2_Config(&(PeriphClkInit->PLL2),DIVIDER_Q_UPDATE);
 8105784:	687b      	ldr	r3, [r7, #4]
 8105786:	3304      	adds	r3, #4
 8105788:	2101      	movs	r1, #1
 810578a:	4618      	mov	r0, r3
 810578c:	f001 fb98 	bl	8106ec0 <RCCEx_PLL2_Config>
 8105790:	4603      	mov	r3, r0
 8105792:	75fb      	strb	r3, [r7, #23]
      /* LPUART1 clock source configuration done later after clock selection check */
      break;
 8105794:	e00c      	b.n	81057b0 <HAL_RCCEx_PeriphCLKConfig+0x940>

    case RCC_LPUART1CLKSOURCE_PLL3: /* PLL3 is used as clock source for LPUART1 */
      ret = RCCEx_PLL3_Config(&(PeriphClkInit->PLL3),DIVIDER_Q_UPDATE);
 8105796:	687b      	ldr	r3, [r7, #4]
 8105798:	3324      	adds	r3, #36	; 0x24
 810579a:	2101      	movs	r1, #1
 810579c:	4618      	mov	r0, r3
 810579e:	f001 fc41 	bl	8107024 <RCCEx_PLL3_Config>
 81057a2:	4603      	mov	r3, r0
 81057a4:	75fb      	strb	r3, [r7, #23]
      /* LPUART1 clock source configuration done later after clock selection check */
      break;
 81057a6:	e003      	b.n	81057b0 <HAL_RCCEx_PeriphCLKConfig+0x940>
      /* LSE,  oscillator is used as source of LPUART1 clock */
      /* LPUART1 clock source configuration done later after clock selection check */
      break;

    default:
      ret = HAL_ERROR;
 81057a8:	2301      	movs	r3, #1
 81057aa:	75fb      	strb	r3, [r7, #23]
      break;
 81057ac:	e000      	b.n	81057b0 <HAL_RCCEx_PeriphCLKConfig+0x940>
      break;
 81057ae:	bf00      	nop
    }

    if(ret == HAL_OK)
 81057b0:	7dfb      	ldrb	r3, [r7, #23]
 81057b2:	2b00      	cmp	r3, #0
 81057b4:	d10a      	bne.n	81057cc <HAL_RCCEx_PeriphCLKConfig+0x95c>
    {
      /* Set the source of LPUART1 clock */
      __HAL_RCC_LPUART1_CONFIG(PeriphClkInit->Lpuart1ClockSelection);
 81057b6:	4b57      	ldr	r3, [pc, #348]	; (8105914 <HAL_RCCEx_PeriphCLKConfig+0xaa4>)
 81057b8:	6d9b      	ldr	r3, [r3, #88]	; 0x58
 81057ba:	f023 0207 	bic.w	r2, r3, #7
 81057be:	687b      	ldr	r3, [r7, #4]
 81057c0:	f8d3 3090 	ldr.w	r3, [r3, #144]	; 0x90
 81057c4:	4953      	ldr	r1, [pc, #332]	; (8105914 <HAL_RCCEx_PeriphCLKConfig+0xaa4>)
 81057c6:	4313      	orrs	r3, r2
 81057c8:	658b      	str	r3, [r1, #88]	; 0x58
 81057ca:	e001      	b.n	81057d0 <HAL_RCCEx_PeriphCLKConfig+0x960>
    }
    else
    {
      /* set overall return value */
      status = ret;
 81057cc:	7dfb      	ldrb	r3, [r7, #23]
 81057ce:	75bb      	strb	r3, [r7, #22]
    }
  }

  /*---------------------------- LPTIM1 configuration -------------------------------*/
  if(((PeriphClkInit->PeriphClockSelection) & RCC_PERIPHCLK_LPTIM1) == RCC_PERIPHCLK_LPTIM1)
 81057d0:	687b      	ldr	r3, [r7, #4]
 81057d2:	681b      	ldr	r3, [r3, #0]
 81057d4:	f003 0320 	and.w	r3, r3, #32
 81057d8:	2b00      	cmp	r3, #0
 81057da:	d04b      	beq.n	8105874 <HAL_RCCEx_PeriphCLKConfig+0xa04>
  {
    switch(PeriphClkInit->Lptim1ClockSelection)
 81057dc:	687b      	ldr	r3, [r7, #4]
 81057de:	f8d3 308c 	ldr.w	r3, [r3, #140]	; 0x8c
 81057e2:	f1b3 4fa0 	cmp.w	r3, #1342177280	; 0x50000000
 81057e6:	d02e      	beq.n	8105846 <HAL_RCCEx_PeriphCLKConfig+0x9d6>
 81057e8:	f1b3 4fa0 	cmp.w	r3, #1342177280	; 0x50000000
 81057ec:	d828      	bhi.n	8105840 <HAL_RCCEx_PeriphCLKConfig+0x9d0>
 81057ee:	f1b3 4f80 	cmp.w	r3, #1073741824	; 0x40000000
 81057f2:	d02a      	beq.n	810584a <HAL_RCCEx_PeriphCLKConfig+0x9da>
 81057f4:	f1b3 4f80 	cmp.w	r3, #1073741824	; 0x40000000
 81057f8:	d822      	bhi.n	8105840 <HAL_RCCEx_PeriphCLKConfig+0x9d0>
 81057fa:	f1b3 5f40 	cmp.w	r3, #805306368	; 0x30000000
 81057fe:	d026      	beq.n	810584e <HAL_RCCEx_PeriphCLKConfig+0x9de>
 8105800:	f1b3 5f40 	cmp.w	r3, #805306368	; 0x30000000
 8105804:	d81c      	bhi.n	8105840 <HAL_RCCEx_PeriphCLKConfig+0x9d0>
 8105806:	f1b3 5f00 	cmp.w	r3, #536870912	; 0x20000000
 810580a:	d010      	beq.n	810582e <HAL_RCCEx_PeriphCLKConfig+0x9be>
 810580c:	f1b3 5f00 	cmp.w	r3, #536870912	; 0x20000000
 8105810:	d816      	bhi.n	8105840 <HAL_RCCEx_PeriphCLKConfig+0x9d0>
 8105812:	2b00      	cmp	r3, #0
 8105814:	d01d      	beq.n	8105852 <HAL_RCCEx_PeriphCLKConfig+0x9e2>
 8105816:	f1b3 5f80 	cmp.w	r3, #268435456	; 0x10000000
 810581a:	d111      	bne.n	8105840 <HAL_RCCEx_PeriphCLKConfig+0x9d0>
      /* LPTIM1 clock source configuration done later after clock selection check */
      break;

    case RCC_LPTIM1CLKSOURCE_PLL2: /* PLL2 is used as clock source for LPTIM1*/

      ret = RCCEx_PLL2_Config(&(PeriphClkInit->PLL2),DIVIDER_P_UPDATE);
 810581c:	687b      	ldr	r3, [r7, #4]
 810581e:	3304      	adds	r3, #4
 8105820:	2100      	movs	r1, #0
 8105822:	4618      	mov	r0, r3
 8105824:	f001 fb4c 	bl	8106ec0 <RCCEx_PLL2_Config>
 8105828:	4603      	mov	r3, r0
 810582a:	75fb      	strb	r3, [r7, #23]

      /* LPTIM1 clock source configuration done later after clock selection check */
      break;
 810582c:	e012      	b.n	8105854 <HAL_RCCEx_PeriphCLKConfig+0x9e4>

    case RCC_LPTIM1CLKSOURCE_PLL3:  /* PLL3 is used as clock source for LPTIM1*/
      ret = RCCEx_PLL3_Config(&(PeriphClkInit->PLL3),DIVIDER_R_UPDATE);
 810582e:	687b      	ldr	r3, [r7, #4]
 8105830:	3324      	adds	r3, #36	; 0x24
 8105832:	2102      	movs	r1, #2
 8105834:	4618      	mov	r0, r3
 8105836:	f001 fbf5 	bl	8107024 <RCCEx_PLL3_Config>
 810583a:	4603      	mov	r3, r0
 810583c:	75fb      	strb	r3, [r7, #23]

      /* LPTIM1 clock source configuration done later after clock selection check */
      break;
 810583e:	e009      	b.n	8105854 <HAL_RCCEx_PeriphCLKConfig+0x9e4>
      /* HSI, HSE, or CSI oscillator is used as source of LPTIM1 clock */
      /* LPTIM1 clock source configuration done later after clock selection check */
      break;

    default:
      ret = HAL_ERROR;
 8105840:	2301      	movs	r3, #1
 8105842:	75fb      	strb	r3, [r7, #23]
      break;
 8105844:	e006      	b.n	8105854 <HAL_RCCEx_PeriphCLKConfig+0x9e4>
      break;
 8105846:	bf00      	nop
 8105848:	e004      	b.n	8105854 <HAL_RCCEx_PeriphCLKConfig+0x9e4>
      break;
 810584a:	bf00      	nop
 810584c:	e002      	b.n	8105854 <HAL_RCCEx_PeriphCLKConfig+0x9e4>
      break;
 810584e:	bf00      	nop
 8105850:	e000      	b.n	8105854 <HAL_RCCEx_PeriphCLKConfig+0x9e4>
      break;
 8105852:	bf00      	nop
    }

    if(ret == HAL_OK)
 8105854:	7dfb      	ldrb	r3, [r7, #23]
 8105856:	2b00      	cmp	r3, #0
 8105858:	d10a      	bne.n	8105870 <HAL_RCCEx_PeriphCLKConfig+0xa00>
    {
      /* Set the source of LPTIM1 clock*/
      __HAL_RCC_LPTIM1_CONFIG(PeriphClkInit->Lptim1ClockSelection);
 810585a:	4b2e      	ldr	r3, [pc, #184]	; (8105914 <HAL_RCCEx_PeriphCLKConfig+0xaa4>)
 810585c:	6d5b      	ldr	r3, [r3, #84]	; 0x54
 810585e:	f023 42e0 	bic.w	r2, r3, #1879048192	; 0x70000000
 8105862:	687b      	ldr	r3, [r7, #4]
 8105864:	f8d3 308c 	ldr.w	r3, [r3, #140]	; 0x8c
 8105868:	492a      	ldr	r1, [pc, #168]	; (8105914 <HAL_RCCEx_PeriphCLKConfig+0xaa4>)
 810586a:	4313      	orrs	r3, r2
 810586c:	654b      	str	r3, [r1, #84]	; 0x54
 810586e:	e001      	b.n	8105874 <HAL_RCCEx_PeriphCLKConfig+0xa04>
    }
    else
    {
      /* set overall return value */
      status = ret;
 8105870:	7dfb      	ldrb	r3, [r7, #23]
 8105872:	75bb      	strb	r3, [r7, #22]
    }
  }

  /*---------------------------- LPTIM2 configuration -------------------------------*/
  if(((PeriphClkInit->PeriphClockSelection) & RCC_PERIPHCLK_LPTIM2) == RCC_PERIPHCLK_LPTIM2)
 8105874:	687b      	ldr	r3, [r7, #4]
 8105876:	681b      	ldr	r3, [r3, #0]
 8105878:	f003 0340 	and.w	r3, r3, #64	; 0x40
 810587c:	2b00      	cmp	r3, #0
 810587e:	d04d      	beq.n	810591c <HAL_RCCEx_PeriphCLKConfig+0xaac>
  {
    switch(PeriphClkInit->Lptim2ClockSelection)
 8105880:	687b      	ldr	r3, [r7, #4]
 8105882:	f8d3 3098 	ldr.w	r3, [r3, #152]	; 0x98
 8105886:	f5b3 5fa0 	cmp.w	r3, #5120	; 0x1400
 810588a:	d02e      	beq.n	81058ea <HAL_RCCEx_PeriphCLKConfig+0xa7a>
 810588c:	f5b3 5fa0 	cmp.w	r3, #5120	; 0x1400
 8105890:	d828      	bhi.n	81058e4 <HAL_RCCEx_PeriphCLKConfig+0xa74>
 8105892:	f5b3 5f80 	cmp.w	r3, #4096	; 0x1000
 8105896:	d02a      	beq.n	81058ee <HAL_RCCEx_PeriphCLKConfig+0xa7e>
 8105898:	f5b3 5f80 	cmp.w	r3, #4096	; 0x1000
 810589c:	d822      	bhi.n	81058e4 <HAL_RCCEx_PeriphCLKConfig+0xa74>
 810589e:	f5b3 6f40 	cmp.w	r3, #3072	; 0xc00
 81058a2:	d026      	beq.n	81058f2 <HAL_RCCEx_PeriphCLKConfig+0xa82>
 81058a4:	f5b3 6f40 	cmp.w	r3, #3072	; 0xc00
 81058a8:	d81c      	bhi.n	81058e4 <HAL_RCCEx_PeriphCLKConfig+0xa74>
 81058aa:	f5b3 6f00 	cmp.w	r3, #2048	; 0x800
 81058ae:	d010      	beq.n	81058d2 <HAL_RCCEx_PeriphCLKConfig+0xa62>
 81058b0:	f5b3 6f00 	cmp.w	r3, #2048	; 0x800
 81058b4:	d816      	bhi.n	81058e4 <HAL_RCCEx_PeriphCLKConfig+0xa74>
 81058b6:	2b00      	cmp	r3, #0
 81058b8:	d01d      	beq.n	81058f6 <HAL_RCCEx_PeriphCLKConfig+0xa86>
 81058ba:	f5b3 6f80 	cmp.w	r3, #1024	; 0x400
 81058be:	d111      	bne.n	81058e4 <HAL_RCCEx_PeriphCLKConfig+0xa74>
      /* LPTIM2 clock source configuration done later after clock selection check */
      break;

    case RCC_LPTIM2CLKSOURCE_PLL2: /* PLL2 is used as clock source for LPTIM2*/

      ret = RCCEx_PLL2_Config(&(PeriphClkInit->PLL2),DIVIDER_P_UPDATE);
 81058c0:	687b      	ldr	r3, [r7, #4]
 81058c2:	3304      	adds	r3, #4
 81058c4:	2100      	movs	r1, #0
 81058c6:	4618      	mov	r0, r3
 81058c8:	f001 fafa 	bl	8106ec0 <RCCEx_PLL2_Config>
 81058cc:	4603      	mov	r3, r0
 81058ce:	75fb      	strb	r3, [r7, #23]

      /* LPTIM2 clock source configuration done later after clock selection check */
      break;
 81058d0:	e012      	b.n	81058f8 <HAL_RCCEx_PeriphCLKConfig+0xa88>

    case RCC_LPTIM2CLKSOURCE_PLL3:  /* PLL3 is used as clock source for LPTIM2*/
      ret = RCCEx_PLL3_Config(&(PeriphClkInit->PLL3),DIVIDER_R_UPDATE);
 81058d2:	687b      	ldr	r3, [r7, #4]
 81058d4:	3324      	adds	r3, #36	; 0x24
 81058d6:	2102      	movs	r1, #2
 81058d8:	4618      	mov	r0, r3
 81058da:	f001 fba3 	bl	8107024 <RCCEx_PLL3_Config>
 81058de:	4603      	mov	r3, r0
 81058e0:	75fb      	strb	r3, [r7, #23]

      /* LPTIM2 clock source configuration done later after clock selection check */
      break;
 81058e2:	e009      	b.n	81058f8 <HAL_RCCEx_PeriphCLKConfig+0xa88>
      /* HSI, HSE, or CSI oscillator is used as source of LPTIM2 clock */
      /* LPTIM2 clock source configuration done later after clock selection check */
      break;

    default:
      ret = HAL_ERROR;
 81058e4:	2301      	movs	r3, #1
 81058e6:	75fb      	strb	r3, [r7, #23]
      break;
 81058e8:	e006      	b.n	81058f8 <HAL_RCCEx_PeriphCLKConfig+0xa88>
      break;
 81058ea:	bf00      	nop
 81058ec:	e004      	b.n	81058f8 <HAL_RCCEx_PeriphCLKConfig+0xa88>
      break;
 81058ee:	bf00      	nop
 81058f0:	e002      	b.n	81058f8 <HAL_RCCEx_PeriphCLKConfig+0xa88>
      break;
 81058f2:	bf00      	nop
 81058f4:	e000      	b.n	81058f8 <HAL_RCCEx_PeriphCLKConfig+0xa88>
      break;
 81058f6:	bf00      	nop
    }

    if(ret == HAL_OK)
 81058f8:	7dfb      	ldrb	r3, [r7, #23]
 81058fa:	2b00      	cmp	r3, #0
 81058fc:	d10c      	bne.n	8105918 <HAL_RCCEx_PeriphCLKConfig+0xaa8>
    {
      /* Set the source of LPTIM2 clock*/
      __HAL_RCC_LPTIM2_CONFIG(PeriphClkInit->Lptim2ClockSelection);
 81058fe:	4b05      	ldr	r3, [pc, #20]	; (8105914 <HAL_RCCEx_PeriphCLKConfig+0xaa4>)
 8105900:	6d9b      	ldr	r3, [r3, #88]	; 0x58
 8105902:	f423 52e0 	bic.w	r2, r3, #7168	; 0x1c00
 8105906:	687b      	ldr	r3, [r7, #4]
 8105908:	f8d3 3098 	ldr.w	r3, [r3, #152]	; 0x98
 810590c:	4901      	ldr	r1, [pc, #4]	; (8105914 <HAL_RCCEx_PeriphCLKConfig+0xaa4>)
 810590e:	4313      	orrs	r3, r2
 8105910:	658b      	str	r3, [r1, #88]	; 0x58
 8105912:	e003      	b.n	810591c <HAL_RCCEx_PeriphCLKConfig+0xaac>
 8105914:	58024400 	.word	0x58024400
    }
    else
    {
      /* set overall return value */
      status = ret;
 8105918:	7dfb      	ldrb	r3, [r7, #23]
 810591a:	75bb      	strb	r3, [r7, #22]
    }
  }

  /*---------------------------- LPTIM345 configuration -------------------------------*/
  if(((PeriphClkInit->PeriphClockSelection) & RCC_PERIPHCLK_LPTIM345) == RCC_PERIPHCLK_LPTIM345)
 810591c:	687b      	ldr	r3, [r7, #4]
 810591e:	681b      	ldr	r3, [r3, #0]
 8105920:	f003 0380 	and.w	r3, r3, #128	; 0x80
 8105924:	2b00      	cmp	r3, #0
 8105926:	d04b      	beq.n	81059c0 <HAL_RCCEx_PeriphCLKConfig+0xb50>
  {
    switch(PeriphClkInit->Lptim345ClockSelection)
 8105928:	687b      	ldr	r3, [r7, #4]
 810592a:	f8d3 309c 	ldr.w	r3, [r3, #156]	; 0x9c
 810592e:	f5b3 4f20 	cmp.w	r3, #40960	; 0xa000
 8105932:	d02e      	beq.n	8105992 <HAL_RCCEx_PeriphCLKConfig+0xb22>
 8105934:	f5b3 4f20 	cmp.w	r3, #40960	; 0xa000
 8105938:	d828      	bhi.n	810598c <HAL_RCCEx_PeriphCLKConfig+0xb1c>
 810593a:	f5b3 4f00 	cmp.w	r3, #32768	; 0x8000
 810593e:	d02a      	beq.n	8105996 <HAL_RCCEx_PeriphCLKConfig+0xb26>
 8105940:	f5b3 4f00 	cmp.w	r3, #32768	; 0x8000
 8105944:	d822      	bhi.n	810598c <HAL_RCCEx_PeriphCLKConfig+0xb1c>
 8105946:	f5b3 4fc0 	cmp.w	r3, #24576	; 0x6000
 810594a:	d026      	beq.n	810599a <HAL_RCCEx_PeriphCLKConfig+0xb2a>
 810594c:	f5b3 4fc0 	cmp.w	r3, #24576	; 0x6000
 8105950:	d81c      	bhi.n	810598c <HAL_RCCEx_PeriphCLKConfig+0xb1c>
 8105952:	f5b3 4f80 	cmp.w	r3, #16384	; 0x4000
 8105956:	d010      	beq.n	810597a <HAL_RCCEx_PeriphCLKConfig+0xb0a>
 8105958:	f5b3 4f80 	cmp.w	r3, #16384	; 0x4000
 810595c:	d816      	bhi.n	810598c <HAL_RCCEx_PeriphCLKConfig+0xb1c>
 810595e:	2b00      	cmp	r3, #0
 8105960:	d01d      	beq.n	810599e <HAL_RCCEx_PeriphCLKConfig+0xb2e>
 8105962:	f5b3 5f00 	cmp.w	r3, #8192	; 0x2000
 8105966:	d111      	bne.n	810598c <HAL_RCCEx_PeriphCLKConfig+0xb1c>
    case RCC_LPTIM345CLKSOURCE_PCLK4:      /* SRD/D3 PCLK1 (PCLK4) as clock source for LPTIM3/4/5 */
      /* LPTIM3/4/5 clock source configuration done later after clock selection check */
      break;

    case RCC_LPTIM345CLKSOURCE_PLL2: /* PLL2 is used as clock source for LPTIM3/4/5 */
      ret = RCCEx_PLL2_Config(&(PeriphClkInit->PLL2),DIVIDER_P_UPDATE);
 8105968:	687b      	ldr	r3, [r7, #4]
 810596a:	3304      	adds	r3, #4
 810596c:	2100      	movs	r1, #0
 810596e:	4618      	mov	r0, r3
 8105970:	f001 faa6 	bl	8106ec0 <RCCEx_PLL2_Config>
 8105974:	4603      	mov	r3, r0
 8105976:	75fb      	strb	r3, [r7, #23]

      /* LPTIM3/4/5 clock source configuration done later after clock selection check */
      break;
 8105978:	e012      	b.n	81059a0 <HAL_RCCEx_PeriphCLKConfig+0xb30>

    case RCC_LPTIM345CLKSOURCE_PLL3:  /* PLL3 is used as clock source for LPTIM3/4/5 */
      ret = RCCEx_PLL3_Config(&(PeriphClkInit->PLL3),DIVIDER_R_UPDATE);
 810597a:	687b      	ldr	r3, [r7, #4]
 810597c:	3324      	adds	r3, #36	; 0x24
 810597e:	2102      	movs	r1, #2
 8105980:	4618      	mov	r0, r3
 8105982:	f001 fb4f 	bl	8107024 <RCCEx_PLL3_Config>
 8105986:	4603      	mov	r3, r0
 8105988:	75fb      	strb	r3, [r7, #23]

      /* LPTIM3/4/5 clock source configuration done later after clock selection check */
      break;
 810598a:	e009      	b.n	81059a0 <HAL_RCCEx_PeriphCLKConfig+0xb30>
      /* HSI, HSE, or CSI oscillator is used as source of LPTIM3/4/5 clock */
      /* LPTIM3/4/5 clock source configuration done later after clock selection check */
      break;

    default:
      ret = HAL_ERROR;
 810598c:	2301      	movs	r3, #1
 810598e:	75fb      	strb	r3, [r7, #23]
      break;
 8105990:	e006      	b.n	81059a0 <HAL_RCCEx_PeriphCLKConfig+0xb30>
      break;
 8105992:	bf00      	nop
 8105994:	e004      	b.n	81059a0 <HAL_RCCEx_PeriphCLKConfig+0xb30>
      break;
 8105996:	bf00      	nop
 8105998:	e002      	b.n	81059a0 <HAL_RCCEx_PeriphCLKConfig+0xb30>
      break;
 810599a:	bf00      	nop
 810599c:	e000      	b.n	81059a0 <HAL_RCCEx_PeriphCLKConfig+0xb30>
      break;
 810599e:	bf00      	nop
    }

    if(ret == HAL_OK)
 81059a0:	7dfb      	ldrb	r3, [r7, #23]
 81059a2:	2b00      	cmp	r3, #0
 81059a4:	d10a      	bne.n	81059bc <HAL_RCCEx_PeriphCLKConfig+0xb4c>
    {
      /* Set the source of LPTIM3/4/5 clock */
      __HAL_RCC_LPTIM345_CONFIG(PeriphClkInit->Lptim345ClockSelection);
 81059a6:	4b9d      	ldr	r3, [pc, #628]	; (8105c1c <HAL_RCCEx_PeriphCLKConfig+0xdac>)
 81059a8:	6d9b      	ldr	r3, [r3, #88]	; 0x58
 81059aa:	f423 4260 	bic.w	r2, r3, #57344	; 0xe000
 81059ae:	687b      	ldr	r3, [r7, #4]
 81059b0:	f8d3 309c 	ldr.w	r3, [r3, #156]	; 0x9c
 81059b4:	4999      	ldr	r1, [pc, #612]	; (8105c1c <HAL_RCCEx_PeriphCLKConfig+0xdac>)
 81059b6:	4313      	orrs	r3, r2
 81059b8:	658b      	str	r3, [r1, #88]	; 0x58
 81059ba:	e001      	b.n	81059c0 <HAL_RCCEx_PeriphCLKConfig+0xb50>
    }
    else
    {
      /* set overall return value */
      status = ret;
 81059bc:	7dfb      	ldrb	r3, [r7, #23]
 81059be:	75bb      	strb	r3, [r7, #22]

      __HAL_RCC_I2C1235_CONFIG(PeriphClkInit->I2c1235ClockSelection);

  }
#else
  if(((PeriphClkInit->PeriphClockSelection) & RCC_PERIPHCLK_I2C123) == RCC_PERIPHCLK_I2C123)
 81059c0:	687b      	ldr	r3, [r7, #4]
 81059c2:	681b      	ldr	r3, [r3, #0]
 81059c4:	f003 0308 	and.w	r3, r3, #8
 81059c8:	2b00      	cmp	r3, #0
 81059ca:	d01a      	beq.n	8105a02 <HAL_RCCEx_PeriphCLKConfig+0xb92>
  {
    /* Check the parameters */
    assert_param(IS_RCC_I2C123CLKSOURCE(PeriphClkInit->I2c123ClockSelection));

    if ((PeriphClkInit->I2c123ClockSelection )== RCC_I2C123CLKSOURCE_PLL3 )
 81059cc:	687b      	ldr	r3, [r7, #4]
 81059ce:	f8d3 3080 	ldr.w	r3, [r3, #128]	; 0x80
 81059d2:	f5b3 5f80 	cmp.w	r3, #4096	; 0x1000
 81059d6:	d10a      	bne.n	81059ee <HAL_RCCEx_PeriphCLKConfig+0xb7e>
    {
        if(RCCEx_PLL3_Config(&(PeriphClkInit->PLL3),DIVIDER_R_UPDATE)!= HAL_OK)
 81059d8:	687b      	ldr	r3, [r7, #4]
 81059da:	3324      	adds	r3, #36	; 0x24
 81059dc:	2102      	movs	r1, #2
 81059de:	4618      	mov	r0, r3
 81059e0:	f001 fb20 	bl	8107024 <RCCEx_PLL3_Config>
 81059e4:	4603      	mov	r3, r0
 81059e6:	2b00      	cmp	r3, #0
 81059e8:	d001      	beq.n	81059ee <HAL_RCCEx_PeriphCLKConfig+0xb7e>
        {
          status = HAL_ERROR;
 81059ea:	2301      	movs	r3, #1
 81059ec:	75bb      	strb	r3, [r7, #22]
        }
    }

      __HAL_RCC_I2C123_CONFIG(PeriphClkInit->I2c123ClockSelection);
 81059ee:	4b8b      	ldr	r3, [pc, #556]	; (8105c1c <HAL_RCCEx_PeriphCLKConfig+0xdac>)
 81059f0:	6d5b      	ldr	r3, [r3, #84]	; 0x54
 81059f2:	f423 5240 	bic.w	r2, r3, #12288	; 0x3000
 81059f6:	687b      	ldr	r3, [r7, #4]
 81059f8:	f8d3 3080 	ldr.w	r3, [r3, #128]	; 0x80
 81059fc:	4987      	ldr	r1, [pc, #540]	; (8105c1c <HAL_RCCEx_PeriphCLKConfig+0xdac>)
 81059fe:	4313      	orrs	r3, r2
 8105a00:	654b      	str	r3, [r1, #84]	; 0x54

  }
#endif /* I2C5 */

  /*------------------------------ I2C4 Configuration ------------------------*/
  if(((PeriphClkInit->PeriphClockSelection) & RCC_PERIPHCLK_I2C4) == RCC_PERIPHCLK_I2C4)
 8105a02:	687b      	ldr	r3, [r7, #4]
 8105a04:	681b      	ldr	r3, [r3, #0]
 8105a06:	f003 0310 	and.w	r3, r3, #16
 8105a0a:	2b00      	cmp	r3, #0
 8105a0c:	d01a      	beq.n	8105a44 <HAL_RCCEx_PeriphCLKConfig+0xbd4>
  {
    /* Check the parameters */
    assert_param(IS_RCC_I2C4CLKSOURCE(PeriphClkInit->I2c4ClockSelection));

    if ((PeriphClkInit->I2c4ClockSelection) == RCC_I2C4CLKSOURCE_PLL3 )
 8105a0e:	687b      	ldr	r3, [r7, #4]
 8105a10:	f8d3 3094 	ldr.w	r3, [r3, #148]	; 0x94
 8105a14:	f5b3 7f80 	cmp.w	r3, #256	; 0x100
 8105a18:	d10a      	bne.n	8105a30 <HAL_RCCEx_PeriphCLKConfig+0xbc0>
    {
      if(RCCEx_PLL3_Config(&(PeriphClkInit->PLL3),DIVIDER_R_UPDATE)!= HAL_OK)
 8105a1a:	687b      	ldr	r3, [r7, #4]
 8105a1c:	3324      	adds	r3, #36	; 0x24
 8105a1e:	2102      	movs	r1, #2
 8105a20:	4618      	mov	r0, r3
 8105a22:	f001 faff 	bl	8107024 <RCCEx_PLL3_Config>
 8105a26:	4603      	mov	r3, r0
 8105a28:	2b00      	cmp	r3, #0
 8105a2a:	d001      	beq.n	8105a30 <HAL_RCCEx_PeriphCLKConfig+0xbc0>
      {
        status = HAL_ERROR;
 8105a2c:	2301      	movs	r3, #1
 8105a2e:	75bb      	strb	r3, [r7, #22]
      }
    }

      __HAL_RCC_I2C4_CONFIG(PeriphClkInit->I2c4ClockSelection);
 8105a30:	4b7a      	ldr	r3, [pc, #488]	; (8105c1c <HAL_RCCEx_PeriphCLKConfig+0xdac>)
 8105a32:	6d9b      	ldr	r3, [r3, #88]	; 0x58
 8105a34:	f423 7240 	bic.w	r2, r3, #768	; 0x300
 8105a38:	687b      	ldr	r3, [r7, #4]
 8105a3a:	f8d3 3094 	ldr.w	r3, [r3, #148]	; 0x94
 8105a3e:	4977      	ldr	r1, [pc, #476]	; (8105c1c <HAL_RCCEx_PeriphCLKConfig+0xdac>)
 8105a40:	4313      	orrs	r3, r2
 8105a42:	658b      	str	r3, [r1, #88]	; 0x58

  }

  /*---------------------------- ADC configuration -------------------------------*/
  if(((PeriphClkInit->PeriphClockSelection) & RCC_PERIPHCLK_ADC) == RCC_PERIPHCLK_ADC)
 8105a44:	687b      	ldr	r3, [r7, #4]
 8105a46:	681b      	ldr	r3, [r3, #0]
 8105a48:	f403 2300 	and.w	r3, r3, #524288	; 0x80000
 8105a4c:	2b00      	cmp	r3, #0
 8105a4e:	d034      	beq.n	8105aba <HAL_RCCEx_PeriphCLKConfig+0xc4a>
  {
    switch(PeriphClkInit->AdcClockSelection)
 8105a50:	687b      	ldr	r3, [r7, #4]
 8105a52:	f8d3 30a0 	ldr.w	r3, [r3, #160]	; 0xa0
 8105a56:	f5b3 3f00 	cmp.w	r3, #131072	; 0x20000
 8105a5a:	d01d      	beq.n	8105a98 <HAL_RCCEx_PeriphCLKConfig+0xc28>
 8105a5c:	f5b3 3f00 	cmp.w	r3, #131072	; 0x20000
 8105a60:	d817      	bhi.n	8105a92 <HAL_RCCEx_PeriphCLKConfig+0xc22>
 8105a62:	2b00      	cmp	r3, #0
 8105a64:	d003      	beq.n	8105a6e <HAL_RCCEx_PeriphCLKConfig+0xbfe>
 8105a66:	f5b3 3f80 	cmp.w	r3, #65536	; 0x10000
 8105a6a:	d009      	beq.n	8105a80 <HAL_RCCEx_PeriphCLKConfig+0xc10>
 8105a6c:	e011      	b.n	8105a92 <HAL_RCCEx_PeriphCLKConfig+0xc22>
    {

    case RCC_ADCCLKSOURCE_PLL2: /* PLL2 is used as clock source for ADC*/

      ret = RCCEx_PLL2_Config(&(PeriphClkInit->PLL2),DIVIDER_P_UPDATE);
 8105a6e:	687b      	ldr	r3, [r7, #4]
 8105a70:	3304      	adds	r3, #4
 8105a72:	2100      	movs	r1, #0
 8105a74:	4618      	mov	r0, r3
 8105a76:	f001 fa23 	bl	8106ec0 <RCCEx_PLL2_Config>
 8105a7a:	4603      	mov	r3, r0
 8105a7c:	75fb      	strb	r3, [r7, #23]

      /* ADC clock source configuration done later after clock selection check */
      break;
 8105a7e:	e00c      	b.n	8105a9a <HAL_RCCEx_PeriphCLKConfig+0xc2a>

    case RCC_ADCCLKSOURCE_PLL3:  /* PLL3 is used as clock source for ADC*/
      ret = RCCEx_PLL3_Config(&(PeriphClkInit->PLL3),DIVIDER_R_UPDATE);
 8105a80:	687b      	ldr	r3, [r7, #4]
 8105a82:	3324      	adds	r3, #36	; 0x24
 8105a84:	2102      	movs	r1, #2
 8105a86:	4618      	mov	r0, r3
 8105a88:	f001 facc 	bl	8107024 <RCCEx_PLL3_Config>
 8105a8c:	4603      	mov	r3, r0
 8105a8e:	75fb      	strb	r3, [r7, #23]

      /* ADC clock source configuration done later after clock selection check */
      break;
 8105a90:	e003      	b.n	8105a9a <HAL_RCCEx_PeriphCLKConfig+0xc2a>
      /* HSI, HSE, or CSI oscillator is used as source of ADC clock */
      /* ADC clock source configuration done later after clock selection check */
      break;

    default:
      ret = HAL_ERROR;
 8105a92:	2301      	movs	r3, #1
 8105a94:	75fb      	strb	r3, [r7, #23]
      break;
 8105a96:	e000      	b.n	8105a9a <HAL_RCCEx_PeriphCLKConfig+0xc2a>
      break;
 8105a98:	bf00      	nop
    }

    if(ret == HAL_OK)
 8105a9a:	7dfb      	ldrb	r3, [r7, #23]
 8105a9c:	2b00      	cmp	r3, #0
 8105a9e:	d10a      	bne.n	8105ab6 <HAL_RCCEx_PeriphCLKConfig+0xc46>
    {
      /* Set the source of ADC clock*/
      __HAL_RCC_ADC_CONFIG(PeriphClkInit->AdcClockSelection);
 8105aa0:	4b5e      	ldr	r3, [pc, #376]	; (8105c1c <HAL_RCCEx_PeriphCLKConfig+0xdac>)
 8105aa2:	6d9b      	ldr	r3, [r3, #88]	; 0x58
 8105aa4:	f423 3240 	bic.w	r2, r3, #196608	; 0x30000
 8105aa8:	687b      	ldr	r3, [r7, #4]
 8105aaa:	f8d3 30a0 	ldr.w	r3, [r3, #160]	; 0xa0
 8105aae:	495b      	ldr	r1, [pc, #364]	; (8105c1c <HAL_RCCEx_PeriphCLKConfig+0xdac>)
 8105ab0:	4313      	orrs	r3, r2
 8105ab2:	658b      	str	r3, [r1, #88]	; 0x58
 8105ab4:	e001      	b.n	8105aba <HAL_RCCEx_PeriphCLKConfig+0xc4a>
    }
    else
    {
      /* set overall return value */
      status = ret;
 8105ab6:	7dfb      	ldrb	r3, [r7, #23]
 8105ab8:	75bb      	strb	r3, [r7, #22]
    }
  }

  /*------------------------------ USB Configuration -------------------------*/
  if(((PeriphClkInit->PeriphClockSelection) & RCC_PERIPHCLK_USB) == RCC_PERIPHCLK_USB)
 8105aba:	687b      	ldr	r3, [r7, #4]
 8105abc:	681b      	ldr	r3, [r3, #0]
 8105abe:	f403 2380 	and.w	r3, r3, #262144	; 0x40000
 8105ac2:	2b00      	cmp	r3, #0
 8105ac4:	d033      	beq.n	8105b2e <HAL_RCCEx_PeriphCLKConfig+0xcbe>
  {

    switch(PeriphClkInit->UsbClockSelection)
 8105ac6:	687b      	ldr	r3, [r7, #4]
 8105ac8:	f8d3 3084 	ldr.w	r3, [r3, #132]	; 0x84
 8105acc:	f5b3 1f40 	cmp.w	r3, #3145728	; 0x300000
 8105ad0:	d01c      	beq.n	8105b0c <HAL_RCCEx_PeriphCLKConfig+0xc9c>
 8105ad2:	f5b3 1f40 	cmp.w	r3, #3145728	; 0x300000
 8105ad6:	d816      	bhi.n	8105b06 <HAL_RCCEx_PeriphCLKConfig+0xc96>
 8105ad8:	f5b3 1f80 	cmp.w	r3, #1048576	; 0x100000
 8105adc:	d003      	beq.n	8105ae6 <HAL_RCCEx_PeriphCLKConfig+0xc76>
 8105ade:	f5b3 1f00 	cmp.w	r3, #2097152	; 0x200000
 8105ae2:	d007      	beq.n	8105af4 <HAL_RCCEx_PeriphCLKConfig+0xc84>
 8105ae4:	e00f      	b.n	8105b06 <HAL_RCCEx_PeriphCLKConfig+0xc96>
    {
    case RCC_USBCLKSOURCE_PLL:      /* PLL is used as clock source for USB*/
      /* Enable USB Clock output generated form System USB . */
      __HAL_RCC_PLLCLKOUT_ENABLE(RCC_PLL1_DIVQ);
 8105ae6:	4b4d      	ldr	r3, [pc, #308]	; (8105c1c <HAL_RCCEx_PeriphCLKConfig+0xdac>)
 8105ae8:	6adb      	ldr	r3, [r3, #44]	; 0x2c
 8105aea:	4a4c      	ldr	r2, [pc, #304]	; (8105c1c <HAL_RCCEx_PeriphCLKConfig+0xdac>)
 8105aec:	f443 3300 	orr.w	r3, r3, #131072	; 0x20000
 8105af0:	62d3      	str	r3, [r2, #44]	; 0x2c

      /* USB clock source configuration done later after clock selection check */
      break;
 8105af2:	e00c      	b.n	8105b0e <HAL_RCCEx_PeriphCLKConfig+0xc9e>

    case RCC_USBCLKSOURCE_PLL3: /* PLL3 is used as clock source for USB*/

      ret = RCCEx_PLL3_Config(&(PeriphClkInit->PLL3),DIVIDER_Q_UPDATE);
 8105af4:	687b      	ldr	r3, [r7, #4]
 8105af6:	3324      	adds	r3, #36	; 0x24
 8105af8:	2101      	movs	r1, #1
 8105afa:	4618      	mov	r0, r3
 8105afc:	f001 fa92 	bl	8107024 <RCCEx_PLL3_Config>
 8105b00:	4603      	mov	r3, r0
 8105b02:	75fb      	strb	r3, [r7, #23]

      /* USB clock source configuration done later after clock selection check */
      break;
 8105b04:	e003      	b.n	8105b0e <HAL_RCCEx_PeriphCLKConfig+0xc9e>
      /* HSI48 oscillator is used as source of USB clock */
      /* USB clock source configuration done later after clock selection check */
      break;

    default:
      ret = HAL_ERROR;
 8105b06:	2301      	movs	r3, #1
 8105b08:	75fb      	strb	r3, [r7, #23]
      break;
 8105b0a:	e000      	b.n	8105b0e <HAL_RCCEx_PeriphCLKConfig+0xc9e>
      break;
 8105b0c:	bf00      	nop
    }

    if(ret == HAL_OK)
 8105b0e:	7dfb      	ldrb	r3, [r7, #23]
 8105b10:	2b00      	cmp	r3, #0
 8105b12:	d10a      	bne.n	8105b2a <HAL_RCCEx_PeriphCLKConfig+0xcba>
    {
      /* Set the source of USB clock*/
      __HAL_RCC_USB_CONFIG(PeriphClkInit->UsbClockSelection);
 8105b14:	4b41      	ldr	r3, [pc, #260]	; (8105c1c <HAL_RCCEx_PeriphCLKConfig+0xdac>)
 8105b16:	6d5b      	ldr	r3, [r3, #84]	; 0x54
 8105b18:	f423 1240 	bic.w	r2, r3, #3145728	; 0x300000
 8105b1c:	687b      	ldr	r3, [r7, #4]
 8105b1e:	f8d3 3084 	ldr.w	r3, [r3, #132]	; 0x84
 8105b22:	493e      	ldr	r1, [pc, #248]	; (8105c1c <HAL_RCCEx_PeriphCLKConfig+0xdac>)
 8105b24:	4313      	orrs	r3, r2
 8105b26:	654b      	str	r3, [r1, #84]	; 0x54
 8105b28:	e001      	b.n	8105b2e <HAL_RCCEx_PeriphCLKConfig+0xcbe>
    }
    else
    {
      /* set overall return value */
      status = ret;
 8105b2a:	7dfb      	ldrb	r3, [r7, #23]
 8105b2c:	75bb      	strb	r3, [r7, #22]
    }

  }

  /*------------------------------------- SDMMC Configuration ------------------------------------*/
  if(((PeriphClkInit->PeriphClockSelection) & RCC_PERIPHCLK_SDMMC) == RCC_PERIPHCLK_SDMMC)
 8105b2e:	687b      	ldr	r3, [r7, #4]
 8105b30:	681b      	ldr	r3, [r3, #0]
 8105b32:	f403 3380 	and.w	r3, r3, #65536	; 0x10000
 8105b36:	2b00      	cmp	r3, #0
 8105b38:	d029      	beq.n	8105b8e <HAL_RCCEx_PeriphCLKConfig+0xd1e>
  {
    /* Check the parameters */
    assert_param(IS_RCC_SDMMC(PeriphClkInit->SdmmcClockSelection));

    switch(PeriphClkInit->SdmmcClockSelection)
 8105b3a:	687b      	ldr	r3, [r7, #4]
 8105b3c:	6cdb      	ldr	r3, [r3, #76]	; 0x4c
 8105b3e:	2b00      	cmp	r3, #0
 8105b40:	d003      	beq.n	8105b4a <HAL_RCCEx_PeriphCLKConfig+0xcda>
 8105b42:	f5b3 3f80 	cmp.w	r3, #65536	; 0x10000
 8105b46:	d007      	beq.n	8105b58 <HAL_RCCEx_PeriphCLKConfig+0xce8>
 8105b48:	e00f      	b.n	8105b6a <HAL_RCCEx_PeriphCLKConfig+0xcfa>
    {
    case RCC_SDMMCCLKSOURCE_PLL:      /* PLL is used as clock source for SDMMC*/
      /* Enable SDMMC Clock output generated form System PLL . */
      __HAL_RCC_PLLCLKOUT_ENABLE(RCC_PLL1_DIVQ);
 8105b4a:	4b34      	ldr	r3, [pc, #208]	; (8105c1c <HAL_RCCEx_PeriphCLKConfig+0xdac>)
 8105b4c:	6adb      	ldr	r3, [r3, #44]	; 0x2c
 8105b4e:	4a33      	ldr	r2, [pc, #204]	; (8105c1c <HAL_RCCEx_PeriphCLKConfig+0xdac>)
 8105b50:	f443 3300 	orr.w	r3, r3, #131072	; 0x20000
 8105b54:	62d3      	str	r3, [r2, #44]	; 0x2c

      /* SDMMC clock source configuration done later after clock selection check */
      break;
 8105b56:	e00b      	b.n	8105b70 <HAL_RCCEx_PeriphCLKConfig+0xd00>

    case RCC_SDMMCCLKSOURCE_PLL2: /* PLL2 is used as clock source for SDMMC*/

      ret = RCCEx_PLL2_Config(&(PeriphClkInit->PLL2),DIVIDER_R_UPDATE);
 8105b58:	687b      	ldr	r3, [r7, #4]
 8105b5a:	3304      	adds	r3, #4
 8105b5c:	2102      	movs	r1, #2
 8105b5e:	4618      	mov	r0, r3
 8105b60:	f001 f9ae 	bl	8106ec0 <RCCEx_PLL2_Config>
 8105b64:	4603      	mov	r3, r0
 8105b66:	75fb      	strb	r3, [r7, #23]

      /* SDMMC clock source configuration done later after clock selection check */
      break;
 8105b68:	e002      	b.n	8105b70 <HAL_RCCEx_PeriphCLKConfig+0xd00>

    default:
      ret = HAL_ERROR;
 8105b6a:	2301      	movs	r3, #1
 8105b6c:	75fb      	strb	r3, [r7, #23]
      break;
 8105b6e:	bf00      	nop
    }

    if(ret == HAL_OK)
 8105b70:	7dfb      	ldrb	r3, [r7, #23]
 8105b72:	2b00      	cmp	r3, #0
 8105b74:	d109      	bne.n	8105b8a <HAL_RCCEx_PeriphCLKConfig+0xd1a>
    {
      /* Set the source of SDMMC clock*/
      __HAL_RCC_SDMMC_CONFIG(PeriphClkInit->SdmmcClockSelection);
 8105b76:	4b29      	ldr	r3, [pc, #164]	; (8105c1c <HAL_RCCEx_PeriphCLKConfig+0xdac>)
 8105b78:	6cdb      	ldr	r3, [r3, #76]	; 0x4c
 8105b7a:	f423 3280 	bic.w	r2, r3, #65536	; 0x10000
 8105b7e:	687b      	ldr	r3, [r7, #4]
 8105b80:	6cdb      	ldr	r3, [r3, #76]	; 0x4c
 8105b82:	4926      	ldr	r1, [pc, #152]	; (8105c1c <HAL_RCCEx_PeriphCLKConfig+0xdac>)
 8105b84:	4313      	orrs	r3, r2
 8105b86:	64cb      	str	r3, [r1, #76]	; 0x4c
 8105b88:	e001      	b.n	8105b8e <HAL_RCCEx_PeriphCLKConfig+0xd1e>
    }
    else
    {
      /* set overall return value */
      status = ret;
 8105b8a:	7dfb      	ldrb	r3, [r7, #23]
 8105b8c:	75bb      	strb	r3, [r7, #22]
    }
  }

#if defined(LTDC)
  /*-------------------------------------- LTDC Configuration -----------------------------------*/
  if(((PeriphClkInit->PeriphClockSelection) & RCC_PERIPHCLK_LTDC) == RCC_PERIPHCLK_LTDC)
 8105b8e:	687b      	ldr	r3, [r7, #4]
 8105b90:	681b      	ldr	r3, [r3, #0]
 8105b92:	f003 5300 	and.w	r3, r3, #536870912	; 0x20000000
 8105b96:	2b00      	cmp	r3, #0
 8105b98:	d00a      	beq.n	8105bb0 <HAL_RCCEx_PeriphCLKConfig+0xd40>
  {
    if(RCCEx_PLL3_Config(&(PeriphClkInit->PLL3),DIVIDER_R_UPDATE)!=HAL_OK)
 8105b9a:	687b      	ldr	r3, [r7, #4]
 8105b9c:	3324      	adds	r3, #36	; 0x24
 8105b9e:	2102      	movs	r1, #2
 8105ba0:	4618      	mov	r0, r3
 8105ba2:	f001 fa3f 	bl	8107024 <RCCEx_PLL3_Config>
 8105ba6:	4603      	mov	r3, r0
 8105ba8:	2b00      	cmp	r3, #0
 8105baa:	d001      	beq.n	8105bb0 <HAL_RCCEx_PeriphCLKConfig+0xd40>
    {
      status=HAL_ERROR;
 8105bac:	2301      	movs	r3, #1
 8105bae:	75bb      	strb	r3, [r7, #22]
    }
  }
#endif /* LTDC */

  /*------------------------------ RNG Configuration -------------------------*/
  if(((PeriphClkInit->PeriphClockSelection) & RCC_PERIPHCLK_RNG) == RCC_PERIPHCLK_RNG)
 8105bb0:	687b      	ldr	r3, [r7, #4]
 8105bb2:	681b      	ldr	r3, [r3, #0]
 8105bb4:	f403 3300 	and.w	r3, r3, #131072	; 0x20000
 8105bb8:	2b00      	cmp	r3, #0
 8105bba:	d033      	beq.n	8105c24 <HAL_RCCEx_PeriphCLKConfig+0xdb4>
  {

    switch(PeriphClkInit->RngClockSelection)
 8105bbc:	687b      	ldr	r3, [r7, #4]
 8105bbe:	6fdb      	ldr	r3, [r3, #124]	; 0x7c
 8105bc0:	f5b3 7f40 	cmp.w	r3, #768	; 0x300
 8105bc4:	d017      	beq.n	8105bf6 <HAL_RCCEx_PeriphCLKConfig+0xd86>
 8105bc6:	f5b3 7f40 	cmp.w	r3, #768	; 0x300
 8105bca:	d811      	bhi.n	8105bf0 <HAL_RCCEx_PeriphCLKConfig+0xd80>
 8105bcc:	f5b3 7f00 	cmp.w	r3, #512	; 0x200
 8105bd0:	d013      	beq.n	8105bfa <HAL_RCCEx_PeriphCLKConfig+0xd8a>
 8105bd2:	f5b3 7f00 	cmp.w	r3, #512	; 0x200
 8105bd6:	d80b      	bhi.n	8105bf0 <HAL_RCCEx_PeriphCLKConfig+0xd80>
 8105bd8:	2b00      	cmp	r3, #0
 8105bda:	d010      	beq.n	8105bfe <HAL_RCCEx_PeriphCLKConfig+0xd8e>
 8105bdc:	f5b3 7f80 	cmp.w	r3, #256	; 0x100
 8105be0:	d106      	bne.n	8105bf0 <HAL_RCCEx_PeriphCLKConfig+0xd80>
    {
    case RCC_RNGCLKSOURCE_PLL:     /* PLL is used as clock source for RNG*/
      /* Enable RNG Clock output generated form System RNG . */
      __HAL_RCC_PLLCLKOUT_ENABLE(RCC_PLL1_DIVQ);
 8105be2:	4b0e      	ldr	r3, [pc, #56]	; (8105c1c <HAL_RCCEx_PeriphCLKConfig+0xdac>)
 8105be4:	6adb      	ldr	r3, [r3, #44]	; 0x2c
 8105be6:	4a0d      	ldr	r2, [pc, #52]	; (8105c1c <HAL_RCCEx_PeriphCLKConfig+0xdac>)
 8105be8:	f443 3300 	orr.w	r3, r3, #131072	; 0x20000
 8105bec:	62d3      	str	r3, [r2, #44]	; 0x2c

      /* RNG clock source configuration done later after clock selection check */
      break;
 8105bee:	e007      	b.n	8105c00 <HAL_RCCEx_PeriphCLKConfig+0xd90>
      /* HSI48 oscillator is used as source of RNG clock */
      /* RNG clock source configuration done later after clock selection check */
      break;

    default:
      ret = HAL_ERROR;
 8105bf0:	2301      	movs	r3, #1
 8105bf2:	75fb      	strb	r3, [r7, #23]
      break;
 8105bf4:	e004      	b.n	8105c00 <HAL_RCCEx_PeriphCLKConfig+0xd90>
      break;
 8105bf6:	bf00      	nop
 8105bf8:	e002      	b.n	8105c00 <HAL_RCCEx_PeriphCLKConfig+0xd90>
      break;
 8105bfa:	bf00      	nop
 8105bfc:	e000      	b.n	8105c00 <HAL_RCCEx_PeriphCLKConfig+0xd90>
      break;
 8105bfe:	bf00      	nop
    }

    if(ret == HAL_OK)
 8105c00:	7dfb      	ldrb	r3, [r7, #23]
 8105c02:	2b00      	cmp	r3, #0
 8105c04:	d10c      	bne.n	8105c20 <HAL_RCCEx_PeriphCLKConfig+0xdb0>
    {
      /* Set the source of RNG clock*/
      __HAL_RCC_RNG_CONFIG(PeriphClkInit->RngClockSelection);
 8105c06:	4b05      	ldr	r3, [pc, #20]	; (8105c1c <HAL_RCCEx_PeriphCLKConfig+0xdac>)
 8105c08:	6d5b      	ldr	r3, [r3, #84]	; 0x54
 8105c0a:	f423 7240 	bic.w	r2, r3, #768	; 0x300
 8105c0e:	687b      	ldr	r3, [r7, #4]
 8105c10:	6fdb      	ldr	r3, [r3, #124]	; 0x7c
 8105c12:	4902      	ldr	r1, [pc, #8]	; (8105c1c <HAL_RCCEx_PeriphCLKConfig+0xdac>)
 8105c14:	4313      	orrs	r3, r2
 8105c16:	654b      	str	r3, [r1, #84]	; 0x54
 8105c18:	e004      	b.n	8105c24 <HAL_RCCEx_PeriphCLKConfig+0xdb4>
 8105c1a:	bf00      	nop
 8105c1c:	58024400 	.word	0x58024400
    }
    else
    {
      /* set overall return value */
      status = ret;
 8105c20:	7dfb      	ldrb	r3, [r7, #23]
 8105c22:	75bb      	strb	r3, [r7, #22]
    }

  }

  /*------------------------------ SWPMI1 Configuration ------------------------*/
  if(((PeriphClkInit->PeriphClockSelection) & RCC_PERIPHCLK_SWPMI1) == RCC_PERIPHCLK_SWPMI1)
 8105c24:	687b      	ldr	r3, [r7, #4]
 8105c26:	681b      	ldr	r3, [r3, #0]
 8105c28:	f403 1380 	and.w	r3, r3, #1048576	; 0x100000
 8105c2c:	2b00      	cmp	r3, #0
 8105c2e:	d008      	beq.n	8105c42 <HAL_RCCEx_PeriphCLKConfig+0xdd2>
  {
    /* Check the parameters */
    assert_param(IS_RCC_SWPMI1CLKSOURCE(PeriphClkInit->Swpmi1ClockSelection));

    /* Configure the SWPMI1 interface clock source */
    __HAL_RCC_SWPMI1_CONFIG(PeriphClkInit->Swpmi1ClockSelection);
 8105c30:	4b31      	ldr	r3, [pc, #196]	; (8105cf8 <HAL_RCCEx_PeriphCLKConfig+0xe88>)
 8105c32:	6d1b      	ldr	r3, [r3, #80]	; 0x50
 8105c34:	f023 4200 	bic.w	r2, r3, #2147483648	; 0x80000000
 8105c38:	687b      	ldr	r3, [r7, #4]
 8105c3a:	6f1b      	ldr	r3, [r3, #112]	; 0x70
 8105c3c:	492e      	ldr	r1, [pc, #184]	; (8105cf8 <HAL_RCCEx_PeriphCLKConfig+0xe88>)
 8105c3e:	4313      	orrs	r3, r2
 8105c40:	650b      	str	r3, [r1, #80]	; 0x50
  }
#if defined(HRTIM1)
  /*------------------------------ HRTIM1 clock Configuration ----------------*/
  if(((PeriphClkInit->PeriphClockSelection) & RCC_PERIPHCLK_HRTIM1) == RCC_PERIPHCLK_HRTIM1)
 8105c42:	687b      	ldr	r3, [r7, #4]
 8105c44:	681b      	ldr	r3, [r3, #0]
 8105c46:	f003 5380 	and.w	r3, r3, #268435456	; 0x10000000
 8105c4a:	2b00      	cmp	r3, #0
 8105c4c:	d009      	beq.n	8105c62 <HAL_RCCEx_PeriphCLKConfig+0xdf2>
  {
    /* Check the parameters */
    assert_param(IS_RCC_HRTIM1CLKSOURCE(PeriphClkInit->Hrtim1ClockSelection));

    /* Configure the HRTIM1 clock source */
    __HAL_RCC_HRTIM1_CONFIG(PeriphClkInit->Hrtim1ClockSelection);
 8105c4e:	4b2a      	ldr	r3, [pc, #168]	; (8105cf8 <HAL_RCCEx_PeriphCLKConfig+0xe88>)
 8105c50:	691b      	ldr	r3, [r3, #16]
 8105c52:	f423 4280 	bic.w	r2, r3, #16384	; 0x4000
 8105c56:	687b      	ldr	r3, [r7, #4]
 8105c58:	f8d3 30b4 	ldr.w	r3, [r3, #180]	; 0xb4
 8105c5c:	4926      	ldr	r1, [pc, #152]	; (8105cf8 <HAL_RCCEx_PeriphCLKConfig+0xe88>)
 8105c5e:	4313      	orrs	r3, r2
 8105c60:	610b      	str	r3, [r1, #16]
  }
#endif  /*HRTIM1*/
  /*------------------------------ DFSDM1 Configuration ------------------------*/
  if(((PeriphClkInit->PeriphClockSelection) & RCC_PERIPHCLK_DFSDM1) == RCC_PERIPHCLK_DFSDM1)
 8105c62:	687b      	ldr	r3, [r7, #4]
 8105c64:	681b      	ldr	r3, [r3, #0]
 8105c66:	f403 1300 	and.w	r3, r3, #2097152	; 0x200000
 8105c6a:	2b00      	cmp	r3, #0
 8105c6c:	d008      	beq.n	8105c80 <HAL_RCCEx_PeriphCLKConfig+0xe10>
  {
    /* Check the parameters */
    assert_param(IS_RCC_DFSDM1CLKSOURCE(PeriphClkInit->Dfsdm1ClockSelection));

    /* Configure the DFSDM1 interface clock source */
    __HAL_RCC_DFSDM1_CONFIG(PeriphClkInit->Dfsdm1ClockSelection);
 8105c6e:	4b22      	ldr	r3, [pc, #136]	; (8105cf8 <HAL_RCCEx_PeriphCLKConfig+0xe88>)
 8105c70:	6d1b      	ldr	r3, [r3, #80]	; 0x50
 8105c72:	f023 7280 	bic.w	r2, r3, #16777216	; 0x1000000
 8105c76:	687b      	ldr	r3, [r7, #4]
 8105c78:	6e9b      	ldr	r3, [r3, #104]	; 0x68
 8105c7a:	491f      	ldr	r1, [pc, #124]	; (8105cf8 <HAL_RCCEx_PeriphCLKConfig+0xe88>)
 8105c7c:	4313      	orrs	r3, r2
 8105c7e:	650b      	str	r3, [r1, #80]	; 0x50
    __HAL_RCC_DFSDM2_CONFIG(PeriphClkInit->Dfsdm2ClockSelection);
  }
#endif  /* DFSDM2 */

  /*------------------------------------ TIM configuration --------------------------------------*/
  if(((PeriphClkInit->PeriphClockSelection) & RCC_PERIPHCLK_TIM) == RCC_PERIPHCLK_TIM)
 8105c80:	687b      	ldr	r3, [r7, #4]
 8105c82:	681b      	ldr	r3, [r3, #0]
 8105c84:	f003 4380 	and.w	r3, r3, #1073741824	; 0x40000000
 8105c88:	2b00      	cmp	r3, #0
 8105c8a:	d00d      	beq.n	8105ca8 <HAL_RCCEx_PeriphCLKConfig+0xe38>
  {
    /* Check the parameters */
    assert_param(IS_RCC_TIMPRES(PeriphClkInit->TIMPresSelection));

    /* Configure Timer Prescaler */
    __HAL_RCC_TIMCLKPRESCALER(PeriphClkInit->TIMPresSelection);
 8105c8c:	4b1a      	ldr	r3, [pc, #104]	; (8105cf8 <HAL_RCCEx_PeriphCLKConfig+0xe88>)
 8105c8e:	691b      	ldr	r3, [r3, #16]
 8105c90:	4a19      	ldr	r2, [pc, #100]	; (8105cf8 <HAL_RCCEx_PeriphCLKConfig+0xe88>)
 8105c92:	f423 4300 	bic.w	r3, r3, #32768	; 0x8000
 8105c96:	6113      	str	r3, [r2, #16]
 8105c98:	4b17      	ldr	r3, [pc, #92]	; (8105cf8 <HAL_RCCEx_PeriphCLKConfig+0xe88>)
 8105c9a:	691a      	ldr	r2, [r3, #16]
 8105c9c:	687b      	ldr	r3, [r7, #4]
 8105c9e:	f8d3 30b8 	ldr.w	r3, [r3, #184]	; 0xb8
 8105ca2:	4915      	ldr	r1, [pc, #84]	; (8105cf8 <HAL_RCCEx_PeriphCLKConfig+0xe88>)
 8105ca4:	4313      	orrs	r3, r2
 8105ca6:	610b      	str	r3, [r1, #16]
  }

  /*------------------------------------ CKPER configuration --------------------------------------*/
  if(((PeriphClkInit->PeriphClockSelection) & RCC_PERIPHCLK_CKPER) == RCC_PERIPHCLK_CKPER)
 8105ca8:	687b      	ldr	r3, [r7, #4]
 8105caa:	681b      	ldr	r3, [r3, #0]
 8105cac:	2b00      	cmp	r3, #0
 8105cae:	da08      	bge.n	8105cc2 <HAL_RCCEx_PeriphCLKConfig+0xe52>
  {
    /* Check the parameters */
    assert_param(IS_RCC_CLKPSOURCE(PeriphClkInit->CkperClockSelection));

    /* Configure the CKPER clock source */
    __HAL_RCC_CLKP_CONFIG(PeriphClkInit->CkperClockSelection);
 8105cb0:	4b11      	ldr	r3, [pc, #68]	; (8105cf8 <HAL_RCCEx_PeriphCLKConfig+0xe88>)
 8105cb2:	6cdb      	ldr	r3, [r3, #76]	; 0x4c
 8105cb4:	f023 5240 	bic.w	r2, r3, #805306368	; 0x30000000
 8105cb8:	687b      	ldr	r3, [r7, #4]
 8105cba:	6d1b      	ldr	r3, [r3, #80]	; 0x50
 8105cbc:	490e      	ldr	r1, [pc, #56]	; (8105cf8 <HAL_RCCEx_PeriphCLKConfig+0xe88>)
 8105cbe:	4313      	orrs	r3, r2
 8105cc0:	64cb      	str	r3, [r1, #76]	; 0x4c
  }

  /*------------------------------ CEC Configuration ------------------------*/
  if(((PeriphClkInit->PeriphClockSelection) & RCC_PERIPHCLK_CEC) == RCC_PERIPHCLK_CEC)
 8105cc2:	687b      	ldr	r3, [r7, #4]
 8105cc4:	681b      	ldr	r3, [r3, #0]
 8105cc6:	f403 0300 	and.w	r3, r3, #8388608	; 0x800000
 8105cca:	2b00      	cmp	r3, #0
 8105ccc:	d009      	beq.n	8105ce2 <HAL_RCCEx_PeriphCLKConfig+0xe72>
  {
    /* Check the parameters */
    assert_param(IS_RCC_CECCLKSOURCE(PeriphClkInit->CecClockSelection));

    /* Configure the CEC interface clock source */
    __HAL_RCC_CEC_CONFIG(PeriphClkInit->CecClockSelection);
 8105cce:	4b0a      	ldr	r3, [pc, #40]	; (8105cf8 <HAL_RCCEx_PeriphCLKConfig+0xe88>)
 8105cd0:	6d5b      	ldr	r3, [r3, #84]	; 0x54
 8105cd2:	f423 0240 	bic.w	r2, r3, #12582912	; 0xc00000
 8105cd6:	687b      	ldr	r3, [r7, #4]
 8105cd8:	f8d3 3088 	ldr.w	r3, [r3, #136]	; 0x88
 8105cdc:	4906      	ldr	r1, [pc, #24]	; (8105cf8 <HAL_RCCEx_PeriphCLKConfig+0xe88>)
 8105cde:	4313      	orrs	r3, r2
 8105ce0:	654b      	str	r3, [r1, #84]	; 0x54
  }

  if (status == HAL_OK)
 8105ce2:	7dbb      	ldrb	r3, [r7, #22]
 8105ce4:	2b00      	cmp	r3, #0
 8105ce6:	d101      	bne.n	8105cec <HAL_RCCEx_PeriphCLKConfig+0xe7c>
  {
    return HAL_OK;
 8105ce8:	2300      	movs	r3, #0
 8105cea:	e000      	b.n	8105cee <HAL_RCCEx_PeriphCLKConfig+0xe7e>
  }
  return HAL_ERROR;
 8105cec:	2301      	movs	r3, #1
}
 8105cee:	4618      	mov	r0, r3
 8105cf0:	3718      	adds	r7, #24
 8105cf2:	46bd      	mov	sp, r7
 8105cf4:	bd80      	pop	{r7, pc}
 8105cf6:	bf00      	nop
 8105cf8:	58024400 	.word	0x58024400

08105cfc <HAL_RCCEx_GetPeriphCLKFreq>:
  * @retval Frequency in KHz
  *
  *  (*) : Available on some STM32H7 lines only.
  */
uint32_t HAL_RCCEx_GetPeriphCLKFreq(uint32_t PeriphClk)
{
 8105cfc:	b580      	push	{r7, lr}
 8105cfe:	b090      	sub	sp, #64	; 0x40
 8105d00:	af00      	add	r7, sp, #0
 8105d02:	6078      	str	r0, [r7, #4]
  /* This variable is used to store the SAI and CKP clock source */
  uint32_t saiclocksource;
  uint32_t ckpclocksource;
  uint32_t srcclk;

  if (PeriphClk == RCC_PERIPHCLK_SAI1)
 8105d04:	687b      	ldr	r3, [r7, #4]
 8105d06:	f5b3 7f80 	cmp.w	r3, #256	; 0x100
 8105d0a:	f040 8095 	bne.w	8105e38 <HAL_RCCEx_GetPeriphCLKFreq+0x13c>
    {

      saiclocksource= __HAL_RCC_GET_SAI1_SOURCE();
 8105d0e:	4b97      	ldr	r3, [pc, #604]	; (8105f6c <HAL_RCCEx_GetPeriphCLKFreq+0x270>)
 8105d10:	6d1b      	ldr	r3, [r3, #80]	; 0x50
 8105d12:	f003 0307 	and.w	r3, r3, #7
 8105d16:	633b      	str	r3, [r7, #48]	; 0x30

      switch (saiclocksource)
 8105d18:	6b3b      	ldr	r3, [r7, #48]	; 0x30
 8105d1a:	2b04      	cmp	r3, #4
 8105d1c:	f200 8088 	bhi.w	8105e30 <HAL_RCCEx_GetPeriphCLKFreq+0x134>
 8105d20:	a201      	add	r2, pc, #4	; (adr r2, 8105d28 <HAL_RCCEx_GetPeriphCLKFreq+0x2c>)
 8105d22:	f852 f023 	ldr.w	pc, [r2, r3, lsl #2]
 8105d26:	bf00      	nop
 8105d28:	08105d3d 	.word	0x08105d3d
 8105d2c:	08105d65 	.word	0x08105d65
 8105d30:	08105d8d 	.word	0x08105d8d
 8105d34:	08105e29 	.word	0x08105e29
 8105d38:	08105db5 	.word	0x08105db5
      {
      case RCC_SAI1CLKSOURCE_PLL: /* PLL1 is the clock source for SAI1 */
        {
         if (HAL_IS_BIT_SET(RCC->CR, RCC_CR_PLL1RDY))
 8105d3c:	4b8b      	ldr	r3, [pc, #556]	; (8105f6c <HAL_RCCEx_GetPeriphCLKFreq+0x270>)
 8105d3e:	681b      	ldr	r3, [r3, #0]
 8105d40:	f003 7300 	and.w	r3, r3, #33554432	; 0x2000000
 8105d44:	f1b3 7f00 	cmp.w	r3, #33554432	; 0x2000000
 8105d48:	d108      	bne.n	8105d5c <HAL_RCCEx_GetPeriphCLKFreq+0x60>
         {
           HAL_RCCEx_GetPLL1ClockFreq(&pll1_clocks);
 8105d4a:	f107 0324 	add.w	r3, r7, #36	; 0x24
 8105d4e:	4618      	mov	r0, r3
 8105d50:	f000 ff64 	bl	8106c1c <HAL_RCCEx_GetPLL1ClockFreq>
           frequency = pll1_clocks.PLL1_Q_Frequency;
 8105d54:	6abb      	ldr	r3, [r7, #40]	; 0x28
 8105d56:	63fb      	str	r3, [r7, #60]	; 0x3c
         }
         else
         {
           frequency = 0;
         }
          break;
 8105d58:	f000 bc94 	b.w	8106684 <HAL_RCCEx_GetPeriphCLKFreq+0x988>
           frequency = 0;
 8105d5c:	2300      	movs	r3, #0
 8105d5e:	63fb      	str	r3, [r7, #60]	; 0x3c
          break;
 8105d60:	f000 bc90 	b.w	8106684 <HAL_RCCEx_GetPeriphCLKFreq+0x988>
        }
      case RCC_SAI1CLKSOURCE_PLL2: /* PLL2 is the clock source for SAI1 */
        {
         if (HAL_IS_BIT_SET(RCC->CR, RCC_CR_PLL2RDY))
 8105d64:	4b81      	ldr	r3, [pc, #516]	; (8105f6c <HAL_RCCEx_GetPeriphCLKFreq+0x270>)
 8105d66:	681b      	ldr	r3, [r3, #0]
 8105d68:	f003 6300 	and.w	r3, r3, #134217728	; 0x8000000
 8105d6c:	f1b3 6f00 	cmp.w	r3, #134217728	; 0x8000000
 8105d70:	d108      	bne.n	8105d84 <HAL_RCCEx_GetPeriphCLKFreq+0x88>
         {
          HAL_RCCEx_GetPLL2ClockFreq(&pll2_clocks);
 8105d72:	f107 0318 	add.w	r3, r7, #24
 8105d76:	4618      	mov	r0, r3
 8105d78:	f000 fca8 	bl	81066cc <HAL_RCCEx_GetPLL2ClockFreq>
          frequency = pll2_clocks.PLL2_P_Frequency;
 8105d7c:	69bb      	ldr	r3, [r7, #24]
 8105d7e:	63fb      	str	r3, [r7, #60]	; 0x3c
         }
         else
         {
           frequency = 0;
         }
          break;
 8105d80:	f000 bc80 	b.w	8106684 <HAL_RCCEx_GetPeriphCLKFreq+0x988>
           frequency = 0;
 8105d84:	2300      	movs	r3, #0
 8105d86:	63fb      	str	r3, [r7, #60]	; 0x3c
          break;
 8105d88:	f000 bc7c 	b.w	8106684 <HAL_RCCEx_GetPeriphCLKFreq+0x988>
        }

      case RCC_SAI1CLKSOURCE_PLL3: /* PLL3 is the clock source for SAI1 */
        {
         if (HAL_IS_BIT_SET(RCC->CR, RCC_CR_PLL3RDY))
 8105d8c:	4b77      	ldr	r3, [pc, #476]	; (8105f6c <HAL_RCCEx_GetPeriphCLKFreq+0x270>)
 8105d8e:	681b      	ldr	r3, [r3, #0]
 8105d90:	f003 5300 	and.w	r3, r3, #536870912	; 0x20000000
 8105d94:	f1b3 5f00 	cmp.w	r3, #536870912	; 0x20000000
 8105d98:	d108      	bne.n	8105dac <HAL_RCCEx_GetPeriphCLKFreq+0xb0>
         {
          HAL_RCCEx_GetPLL3ClockFreq(&pll3_clocks);
 8105d9a:	f107 030c 	add.w	r3, r7, #12
 8105d9e:	4618      	mov	r0, r3
 8105da0:	f000 fde8 	bl	8106974 <HAL_RCCEx_GetPLL3ClockFreq>
          frequency = pll3_clocks.PLL3_P_Frequency;
 8105da4:	68fb      	ldr	r3, [r7, #12]
 8105da6:	63fb      	str	r3, [r7, #60]	; 0x3c
         }
         else
         {
           frequency = 0;
         }
          break;
 8105da8:	f000 bc6c 	b.w	8106684 <HAL_RCCEx_GetPeriphCLKFreq+0x988>
           frequency = 0;
 8105dac:	2300      	movs	r3, #0
 8105dae:	63fb      	str	r3, [r7, #60]	; 0x3c
          break;
 8105db0:	f000 bc68 	b.w	8106684 <HAL_RCCEx_GetPeriphCLKFreq+0x988>
        }

      case RCC_SAI1CLKSOURCE_CLKP: /* CKPER is the clock source for SAI1*/
        {

          ckpclocksource= __HAL_RCC_GET_CLKP_SOURCE();
 8105db4:	4b6d      	ldr	r3, [pc, #436]	; (8105f6c <HAL_RCCEx_GetPeriphCLKFreq+0x270>)
 8105db6:	6cdb      	ldr	r3, [r3, #76]	; 0x4c
 8105db8:	f003 5340 	and.w	r3, r3, #805306368	; 0x30000000
 8105dbc:	637b      	str	r3, [r7, #52]	; 0x34

          if ((HAL_IS_BIT_SET(RCC->CR, RCC_CR_HSIRDY)) && (ckpclocksource == RCC_CLKPSOURCE_HSI))
 8105dbe:	4b6b      	ldr	r3, [pc, #428]	; (8105f6c <HAL_RCCEx_GetPeriphCLKFreq+0x270>)
 8105dc0:	681b      	ldr	r3, [r3, #0]
 8105dc2:	f003 0304 	and.w	r3, r3, #4
 8105dc6:	2b04      	cmp	r3, #4
 8105dc8:	d10c      	bne.n	8105de4 <HAL_RCCEx_GetPeriphCLKFreq+0xe8>
 8105dca:	6b7b      	ldr	r3, [r7, #52]	; 0x34
 8105dcc:	2b00      	cmp	r3, #0
 8105dce:	d109      	bne.n	8105de4 <HAL_RCCEx_GetPeriphCLKFreq+0xe8>
          {
            /* In Case the CKPER Source is HSI */
            frequency = (HSI_VALUE >> (__HAL_RCC_GET_HSI_DIVIDER()>> 3));
 8105dd0:	4b66      	ldr	r3, [pc, #408]	; (8105f6c <HAL_RCCEx_GetPeriphCLKFreq+0x270>)
 8105dd2:	681b      	ldr	r3, [r3, #0]
 8105dd4:	08db      	lsrs	r3, r3, #3
 8105dd6:	f003 0303 	and.w	r3, r3, #3
 8105dda:	4a65      	ldr	r2, [pc, #404]	; (8105f70 <HAL_RCCEx_GetPeriphCLKFreq+0x274>)
 8105ddc:	fa22 f303 	lsr.w	r3, r2, r3
 8105de0:	63fb      	str	r3, [r7, #60]	; 0x3c
 8105de2:	e01f      	b.n	8105e24 <HAL_RCCEx_GetPeriphCLKFreq+0x128>
          }

          else if ((HAL_IS_BIT_SET(RCC->CR, RCC_CR_CSIRDY)) && (ckpclocksource == RCC_CLKPSOURCE_CSI))
 8105de4:	4b61      	ldr	r3, [pc, #388]	; (8105f6c <HAL_RCCEx_GetPeriphCLKFreq+0x270>)
 8105de6:	681b      	ldr	r3, [r3, #0]
 8105de8:	f403 7380 	and.w	r3, r3, #256	; 0x100
 8105dec:	f5b3 7f80 	cmp.w	r3, #256	; 0x100
 8105df0:	d106      	bne.n	8105e00 <HAL_RCCEx_GetPeriphCLKFreq+0x104>
 8105df2:	6b7b      	ldr	r3, [r7, #52]	; 0x34
 8105df4:	f1b3 5f80 	cmp.w	r3, #268435456	; 0x10000000
 8105df8:	d102      	bne.n	8105e00 <HAL_RCCEx_GetPeriphCLKFreq+0x104>
          {
            /* In Case the CKPER Source is CSI */
            frequency = CSI_VALUE;
 8105dfa:	4b5e      	ldr	r3, [pc, #376]	; (8105f74 <HAL_RCCEx_GetPeriphCLKFreq+0x278>)
 8105dfc:	63fb      	str	r3, [r7, #60]	; 0x3c
 8105dfe:	e011      	b.n	8105e24 <HAL_RCCEx_GetPeriphCLKFreq+0x128>
          }

          else if ((HAL_IS_BIT_SET(RCC->CR, RCC_CR_HSERDY)) && (ckpclocksource == RCC_CLKPSOURCE_HSE))
 8105e00:	4b5a      	ldr	r3, [pc, #360]	; (8105f6c <HAL_RCCEx_GetPeriphCLKFreq+0x270>)
 8105e02:	681b      	ldr	r3, [r3, #0]
 8105e04:	f403 3300 	and.w	r3, r3, #131072	; 0x20000
 8105e08:	f5b3 3f00 	cmp.w	r3, #131072	; 0x20000
 8105e0c:	d106      	bne.n	8105e1c <HAL_RCCEx_GetPeriphCLKFreq+0x120>
 8105e0e:	6b7b      	ldr	r3, [r7, #52]	; 0x34
 8105e10:	f1b3 5f00 	cmp.w	r3, #536870912	; 0x20000000
 8105e14:	d102      	bne.n	8105e1c <HAL_RCCEx_GetPeriphCLKFreq+0x120>
          {
            /* In Case the CKPER Source is HSE */
            frequency = HSE_VALUE;
 8105e16:	4b58      	ldr	r3, [pc, #352]	; (8105f78 <HAL_RCCEx_GetPeriphCLKFreq+0x27c>)
 8105e18:	63fb      	str	r3, [r7, #60]	; 0x3c
 8105e1a:	e003      	b.n	8105e24 <HAL_RCCEx_GetPeriphCLKFreq+0x128>
          }

          else
          {
            /* In Case the CKPER is disabled*/
            frequency = 0;
 8105e1c:	2300      	movs	r3, #0
 8105e1e:	63fb      	str	r3, [r7, #60]	; 0x3c
          }

          break;
 8105e20:	f000 bc30 	b.w	8106684 <HAL_RCCEx_GetPeriphCLKFreq+0x988>
 8105e24:	f000 bc2e 	b.w	8106684 <HAL_RCCEx_GetPeriphCLKFreq+0x988>
        }

      case (RCC_SAI1CLKSOURCE_PIN): /* External clock is the clock source for SAI1 */
        {
          frequency = EXTERNAL_CLOCK_VALUE;
 8105e28:	4b54      	ldr	r3, [pc, #336]	; (8105f7c <HAL_RCCEx_GetPeriphCLKFreq+0x280>)
 8105e2a:	63fb      	str	r3, [r7, #60]	; 0x3c
          break;
 8105e2c:	f000 bc2a 	b.w	8106684 <HAL_RCCEx_GetPeriphCLKFreq+0x988>
        }
      default :
        {
          frequency = 0;
 8105e30:	2300      	movs	r3, #0
 8105e32:	63fb      	str	r3, [r7, #60]	; 0x3c
          break;
 8105e34:	f000 bc26 	b.w	8106684 <HAL_RCCEx_GetPeriphCLKFreq+0x988>
        }
      }
    }

#if defined(SAI3)
  else if (PeriphClk == RCC_PERIPHCLK_SAI23)
 8105e38:	687b      	ldr	r3, [r7, #4]
 8105e3a:	f5b3 7f00 	cmp.w	r3, #512	; 0x200
 8105e3e:	f040 809f 	bne.w	8105f80 <HAL_RCCEx_GetPeriphCLKFreq+0x284>
    {

      saiclocksource= __HAL_RCC_GET_SAI23_SOURCE();
 8105e42:	4b4a      	ldr	r3, [pc, #296]	; (8105f6c <HAL_RCCEx_GetPeriphCLKFreq+0x270>)
 8105e44:	6d1b      	ldr	r3, [r3, #80]	; 0x50
 8105e46:	f403 73e0 	and.w	r3, r3, #448	; 0x1c0
 8105e4a:	633b      	str	r3, [r7, #48]	; 0x30

      switch (saiclocksource)
 8105e4c:	6b3b      	ldr	r3, [r7, #48]	; 0x30
 8105e4e:	f5b3 7f80 	cmp.w	r3, #256	; 0x100
 8105e52:	d04d      	beq.n	8105ef0 <HAL_RCCEx_GetPeriphCLKFreq+0x1f4>
 8105e54:	6b3b      	ldr	r3, [r7, #48]	; 0x30
 8105e56:	f5b3 7f80 	cmp.w	r3, #256	; 0x100
 8105e5a:	f200 8084 	bhi.w	8105f66 <HAL_RCCEx_GetPeriphCLKFreq+0x26a>
 8105e5e:	6b3b      	ldr	r3, [r7, #48]	; 0x30
 8105e60:	2bc0      	cmp	r3, #192	; 0xc0
 8105e62:	d07d      	beq.n	8105f60 <HAL_RCCEx_GetPeriphCLKFreq+0x264>
 8105e64:	6b3b      	ldr	r3, [r7, #48]	; 0x30
 8105e66:	2bc0      	cmp	r3, #192	; 0xc0
 8105e68:	d87d      	bhi.n	8105f66 <HAL_RCCEx_GetPeriphCLKFreq+0x26a>
 8105e6a:	6b3b      	ldr	r3, [r7, #48]	; 0x30
 8105e6c:	2b80      	cmp	r3, #128	; 0x80
 8105e6e:	d02d      	beq.n	8105ecc <HAL_RCCEx_GetPeriphCLKFreq+0x1d0>
 8105e70:	6b3b      	ldr	r3, [r7, #48]	; 0x30
 8105e72:	2b80      	cmp	r3, #128	; 0x80
 8105e74:	d877      	bhi.n	8105f66 <HAL_RCCEx_GetPeriphCLKFreq+0x26a>
 8105e76:	6b3b      	ldr	r3, [r7, #48]	; 0x30
 8105e78:	2b00      	cmp	r3, #0
 8105e7a:	d003      	beq.n	8105e84 <HAL_RCCEx_GetPeriphCLKFreq+0x188>
 8105e7c:	6b3b      	ldr	r3, [r7, #48]	; 0x30
 8105e7e:	2b40      	cmp	r3, #64	; 0x40
 8105e80:	d012      	beq.n	8105ea8 <HAL_RCCEx_GetPeriphCLKFreq+0x1ac>
 8105e82:	e070      	b.n	8105f66 <HAL_RCCEx_GetPeriphCLKFreq+0x26a>
      {
      case RCC_SAI23CLKSOURCE_PLL: /* PLL1 is the clock source for SAI2/3 */
        {
         if (HAL_IS_BIT_SET(RCC->CR, RCC_CR_PLL1RDY))
 8105e84:	4b39      	ldr	r3, [pc, #228]	; (8105f6c <HAL_RCCEx_GetPeriphCLKFreq+0x270>)
 8105e86:	681b      	ldr	r3, [r3, #0]
 8105e88:	f003 7300 	and.w	r3, r3, #33554432	; 0x2000000
 8105e8c:	f1b3 7f00 	cmp.w	r3, #33554432	; 0x2000000
 8105e90:	d107      	bne.n	8105ea2 <HAL_RCCEx_GetPeriphCLKFreq+0x1a6>
         {
          HAL_RCCEx_GetPLL1ClockFreq(&pll1_clocks);
 8105e92:	f107 0324 	add.w	r3, r7, #36	; 0x24
 8105e96:	4618      	mov	r0, r3
 8105e98:	f000 fec0 	bl	8106c1c <HAL_RCCEx_GetPLL1ClockFreq>
          frequency = pll1_clocks.PLL1_Q_Frequency;
 8105e9c:	6abb      	ldr	r3, [r7, #40]	; 0x28
 8105e9e:	63fb      	str	r3, [r7, #60]	; 0x3c
         }
         else
         {
           frequency = 0;
         }
          break;
 8105ea0:	e3f0      	b.n	8106684 <HAL_RCCEx_GetPeriphCLKFreq+0x988>
           frequency = 0;
 8105ea2:	2300      	movs	r3, #0
 8105ea4:	63fb      	str	r3, [r7, #60]	; 0x3c
          break;
 8105ea6:	e3ed      	b.n	8106684 <HAL_RCCEx_GetPeriphCLKFreq+0x988>
        }
      case RCC_SAI23CLKSOURCE_PLL2: /* PLL2 is the clock source for SAI2/3 */
        {
         if (HAL_IS_BIT_SET(RCC->CR, RCC_CR_PLL2RDY))
 8105ea8:	4b30      	ldr	r3, [pc, #192]	; (8105f6c <HAL_RCCEx_GetPeriphCLKFreq+0x270>)
 8105eaa:	681b      	ldr	r3, [r3, #0]
 8105eac:	f003 6300 	and.w	r3, r3, #134217728	; 0x8000000
 8105eb0:	f1b3 6f00 	cmp.w	r3, #134217728	; 0x8000000
 8105eb4:	d107      	bne.n	8105ec6 <HAL_RCCEx_GetPeriphCLKFreq+0x1ca>
         {
          HAL_RCCEx_GetPLL2ClockFreq(&pll2_clocks);
 8105eb6:	f107 0318 	add.w	r3, r7, #24
 8105eba:	4618      	mov	r0, r3
 8105ebc:	f000 fc06 	bl	81066cc <HAL_RCCEx_GetPLL2ClockFreq>
          frequency = pll2_clocks.PLL2_P_Frequency;
 8105ec0:	69bb      	ldr	r3, [r7, #24]
 8105ec2:	63fb      	str	r3, [r7, #60]	; 0x3c
         }
         else
         {
           frequency = 0;
         }
          break;
 8105ec4:	e3de      	b.n	8106684 <HAL_RCCEx_GetPeriphCLKFreq+0x988>
           frequency = 0;
 8105ec6:	2300      	movs	r3, #0
 8105ec8:	63fb      	str	r3, [r7, #60]	; 0x3c
          break;
 8105eca:	e3db      	b.n	8106684 <HAL_RCCEx_GetPeriphCLKFreq+0x988>
        }

      case RCC_SAI23CLKSOURCE_PLL3: /* PLL3 is the clock source for SAI2/3 */
        {
         if (HAL_IS_BIT_SET(RCC->CR, RCC_CR_PLL3RDY))
 8105ecc:	4b27      	ldr	r3, [pc, #156]	; (8105f6c <HAL_RCCEx_GetPeriphCLKFreq+0x270>)
 8105ece:	681b      	ldr	r3, [r3, #0]
 8105ed0:	f003 5300 	and.w	r3, r3, #536870912	; 0x20000000
 8105ed4:	f1b3 5f00 	cmp.w	r3, #536870912	; 0x20000000
 8105ed8:	d107      	bne.n	8105eea <HAL_RCCEx_GetPeriphCLKFreq+0x1ee>
         {
          HAL_RCCEx_GetPLL3ClockFreq(&pll3_clocks);
 8105eda:	f107 030c 	add.w	r3, r7, #12
 8105ede:	4618      	mov	r0, r3
 8105ee0:	f000 fd48 	bl	8106974 <HAL_RCCEx_GetPLL3ClockFreq>
          frequency = pll3_clocks.PLL3_P_Frequency;
 8105ee4:	68fb      	ldr	r3, [r7, #12]
 8105ee6:	63fb      	str	r3, [r7, #60]	; 0x3c
         }
         else
         {
           frequency = 0;
         }
          break;
 8105ee8:	e3cc      	b.n	8106684 <HAL_RCCEx_GetPeriphCLKFreq+0x988>
           frequency = 0;
 8105eea:	2300      	movs	r3, #0
 8105eec:	63fb      	str	r3, [r7, #60]	; 0x3c
          break;
 8105eee:	e3c9      	b.n	8106684 <HAL_RCCEx_GetPeriphCLKFreq+0x988>
        }

      case RCC_SAI23CLKSOURCE_CLKP: /* CKPER is the clock source for SAI2/3 */
        {

          ckpclocksource= __HAL_RCC_GET_CLKP_SOURCE();
 8105ef0:	4b1e      	ldr	r3, [pc, #120]	; (8105f6c <HAL_RCCEx_GetPeriphCLKFreq+0x270>)
 8105ef2:	6cdb      	ldr	r3, [r3, #76]	; 0x4c
 8105ef4:	f003 5340 	and.w	r3, r3, #805306368	; 0x30000000
 8105ef8:	637b      	str	r3, [r7, #52]	; 0x34

          if ((HAL_IS_BIT_SET(RCC->CR, RCC_CR_HSIRDY)) && (ckpclocksource == RCC_CLKPSOURCE_HSI))
 8105efa:	4b1c      	ldr	r3, [pc, #112]	; (8105f6c <HAL_RCCEx_GetPeriphCLKFreq+0x270>)
 8105efc:	681b      	ldr	r3, [r3, #0]
 8105efe:	f003 0304 	and.w	r3, r3, #4
 8105f02:	2b04      	cmp	r3, #4
 8105f04:	d10c      	bne.n	8105f20 <HAL_RCCEx_GetPeriphCLKFreq+0x224>
 8105f06:	6b7b      	ldr	r3, [r7, #52]	; 0x34
 8105f08:	2b00      	cmp	r3, #0
 8105f0a:	d109      	bne.n	8105f20 <HAL_RCCEx_GetPeriphCLKFreq+0x224>
          {
            /* In Case the CKPER Source is HSI */
            frequency = (HSI_VALUE >> (__HAL_RCC_GET_HSI_DIVIDER()>> 3));
 8105f0c:	4b17      	ldr	r3, [pc, #92]	; (8105f6c <HAL_RCCEx_GetPeriphCLKFreq+0x270>)
 8105f0e:	681b      	ldr	r3, [r3, #0]
 8105f10:	08db      	lsrs	r3, r3, #3
 8105f12:	f003 0303 	and.w	r3, r3, #3
 8105f16:	4a16      	ldr	r2, [pc, #88]	; (8105f70 <HAL_RCCEx_GetPeriphCLKFreq+0x274>)
 8105f18:	fa22 f303 	lsr.w	r3, r2, r3
 8105f1c:	63fb      	str	r3, [r7, #60]	; 0x3c
 8105f1e:	e01e      	b.n	8105f5e <HAL_RCCEx_GetPeriphCLKFreq+0x262>
          }

          else if ((HAL_IS_BIT_SET(RCC->CR, RCC_CR_CSIRDY)) && (ckpclocksource == RCC_CLKPSOURCE_CSI))
 8105f20:	4b12      	ldr	r3, [pc, #72]	; (8105f6c <HAL_RCCEx_GetPeriphCLKFreq+0x270>)
 8105f22:	681b      	ldr	r3, [r3, #0]
 8105f24:	f403 7380 	and.w	r3, r3, #256	; 0x100
 8105f28:	f5b3 7f80 	cmp.w	r3, #256	; 0x100
 8105f2c:	d106      	bne.n	8105f3c <HAL_RCCEx_GetPeriphCLKFreq+0x240>
 8105f2e:	6b7b      	ldr	r3, [r7, #52]	; 0x34
 8105f30:	f1b3 5f80 	cmp.w	r3, #268435456	; 0x10000000
 8105f34:	d102      	bne.n	8105f3c <HAL_RCCEx_GetPeriphCLKFreq+0x240>
          {
            /* In Case the CKPER Source is CSI */
            frequency = CSI_VALUE;
 8105f36:	4b0f      	ldr	r3, [pc, #60]	; (8105f74 <HAL_RCCEx_GetPeriphCLKFreq+0x278>)
 8105f38:	63fb      	str	r3, [r7, #60]	; 0x3c
 8105f3a:	e010      	b.n	8105f5e <HAL_RCCEx_GetPeriphCLKFreq+0x262>
          }

          else if ((HAL_IS_BIT_SET(RCC->CR, RCC_CR_HSERDY)) && (ckpclocksource == RCC_CLKPSOURCE_HSE))
 8105f3c:	4b0b      	ldr	r3, [pc, #44]	; (8105f6c <HAL_RCCEx_GetPeriphCLKFreq+0x270>)
 8105f3e:	681b      	ldr	r3, [r3, #0]
 8105f40:	f403 3300 	and.w	r3, r3, #131072	; 0x20000
 8105f44:	f5b3 3f00 	cmp.w	r3, #131072	; 0x20000
 8105f48:	d106      	bne.n	8105f58 <HAL_RCCEx_GetPeriphCLKFreq+0x25c>
 8105f4a:	6b7b      	ldr	r3, [r7, #52]	; 0x34
 8105f4c:	f1b3 5f00 	cmp.w	r3, #536870912	; 0x20000000
 8105f50:	d102      	bne.n	8105f58 <HAL_RCCEx_GetPeriphCLKFreq+0x25c>
          {
            /* In Case the CKPER Source is HSE */
            frequency = HSE_VALUE;
 8105f52:	4b09      	ldr	r3, [pc, #36]	; (8105f78 <HAL_RCCEx_GetPeriphCLKFreq+0x27c>)
 8105f54:	63fb      	str	r3, [r7, #60]	; 0x3c
 8105f56:	e002      	b.n	8105f5e <HAL_RCCEx_GetPeriphCLKFreq+0x262>
          }

          else
          {
            /* In Case the CKPER is disabled*/
            frequency = 0;
 8105f58:	2300      	movs	r3, #0
 8105f5a:	63fb      	str	r3, [r7, #60]	; 0x3c
          }

          break;
 8105f5c:	e392      	b.n	8106684 <HAL_RCCEx_GetPeriphCLKFreq+0x988>
 8105f5e:	e391      	b.n	8106684 <HAL_RCCEx_GetPeriphCLKFreq+0x988>
        }

      case (RCC_SAI23CLKSOURCE_PIN): /* External clock is the clock source for SAI2/3 */
        {
          frequency = EXTERNAL_CLOCK_VALUE;
 8105f60:	4b06      	ldr	r3, [pc, #24]	; (8105f7c <HAL_RCCEx_GetPeriphCLKFreq+0x280>)
 8105f62:	63fb      	str	r3, [r7, #60]	; 0x3c
          break;
 8105f64:	e38e      	b.n	8106684 <HAL_RCCEx_GetPeriphCLKFreq+0x988>
        }
      default :
        {
          frequency = 0;
 8105f66:	2300      	movs	r3, #0
 8105f68:	63fb      	str	r3, [r7, #60]	; 0x3c
          break;
 8105f6a:	e38b      	b.n	8106684 <HAL_RCCEx_GetPeriphCLKFreq+0x988>
 8105f6c:	58024400 	.word	0x58024400
 8105f70:	03d09000 	.word	0x03d09000
 8105f74:	003d0900 	.word	0x003d0900
 8105f78:	007a1200 	.word	0x007a1200
 8105f7c:	00bb8000 	.word	0x00bb8000
      }
    }
#endif

#if defined(SAI4)
  else if (PeriphClk == RCC_PERIPHCLK_SAI4A)
 8105f80:	687b      	ldr	r3, [r7, #4]
 8105f82:	f5b3 6f80 	cmp.w	r3, #1024	; 0x400
 8105f86:	f040 809c 	bne.w	81060c2 <HAL_RCCEx_GetPeriphCLKFreq+0x3c6>
    {

      saiclocksource= __HAL_RCC_GET_SAI4A_SOURCE();
 8105f8a:	4b9d      	ldr	r3, [pc, #628]	; (8106200 <HAL_RCCEx_GetPeriphCLKFreq+0x504>)
 8105f8c:	6d9b      	ldr	r3, [r3, #88]	; 0x58
 8105f8e:	f403 0360 	and.w	r3, r3, #14680064	; 0xe00000
 8105f92:	633b      	str	r3, [r7, #48]	; 0x30

      switch (saiclocksource)
 8105f94:	6b3b      	ldr	r3, [r7, #48]	; 0x30
 8105f96:	f5b3 0f00 	cmp.w	r3, #8388608	; 0x800000
 8105f9a:	d054      	beq.n	8106046 <HAL_RCCEx_GetPeriphCLKFreq+0x34a>
 8105f9c:	6b3b      	ldr	r3, [r7, #48]	; 0x30
 8105f9e:	f5b3 0f00 	cmp.w	r3, #8388608	; 0x800000
 8105fa2:	f200 808b 	bhi.w	81060bc <HAL_RCCEx_GetPeriphCLKFreq+0x3c0>
 8105fa6:	6b3b      	ldr	r3, [r7, #48]	; 0x30
 8105fa8:	f5b3 0fc0 	cmp.w	r3, #6291456	; 0x600000
 8105fac:	f000 8083 	beq.w	81060b6 <HAL_RCCEx_GetPeriphCLKFreq+0x3ba>
 8105fb0:	6b3b      	ldr	r3, [r7, #48]	; 0x30
 8105fb2:	f5b3 0fc0 	cmp.w	r3, #6291456	; 0x600000
 8105fb6:	f200 8081 	bhi.w	81060bc <HAL_RCCEx_GetPeriphCLKFreq+0x3c0>
 8105fba:	6b3b      	ldr	r3, [r7, #48]	; 0x30
 8105fbc:	f5b3 0f80 	cmp.w	r3, #4194304	; 0x400000
 8105fc0:	d02f      	beq.n	8106022 <HAL_RCCEx_GetPeriphCLKFreq+0x326>
 8105fc2:	6b3b      	ldr	r3, [r7, #48]	; 0x30
 8105fc4:	f5b3 0f80 	cmp.w	r3, #4194304	; 0x400000
 8105fc8:	d878      	bhi.n	81060bc <HAL_RCCEx_GetPeriphCLKFreq+0x3c0>
 8105fca:	6b3b      	ldr	r3, [r7, #48]	; 0x30
 8105fcc:	2b00      	cmp	r3, #0
 8105fce:	d004      	beq.n	8105fda <HAL_RCCEx_GetPeriphCLKFreq+0x2de>
 8105fd0:	6b3b      	ldr	r3, [r7, #48]	; 0x30
 8105fd2:	f5b3 1f00 	cmp.w	r3, #2097152	; 0x200000
 8105fd6:	d012      	beq.n	8105ffe <HAL_RCCEx_GetPeriphCLKFreq+0x302>
 8105fd8:	e070      	b.n	81060bc <HAL_RCCEx_GetPeriphCLKFreq+0x3c0>
      {
      case RCC_SAI4ACLKSOURCE_PLL: /* PLL1 is the clock source for SAI4A */
        {
         if (HAL_IS_BIT_SET(RCC->CR, RCC_CR_PLL1RDY))
 8105fda:	4b89      	ldr	r3, [pc, #548]	; (8106200 <HAL_RCCEx_GetPeriphCLKFreq+0x504>)
 8105fdc:	681b      	ldr	r3, [r3, #0]
 8105fde:	f003 7300 	and.w	r3, r3, #33554432	; 0x2000000
 8105fe2:	f1b3 7f00 	cmp.w	r3, #33554432	; 0x2000000
 8105fe6:	d107      	bne.n	8105ff8 <HAL_RCCEx_GetPeriphCLKFreq+0x2fc>
         {
          HAL_RCCEx_GetPLL1ClockFreq(&pll1_clocks);
 8105fe8:	f107 0324 	add.w	r3, r7, #36	; 0x24
 8105fec:	4618      	mov	r0, r3
 8105fee:	f000 fe15 	bl	8106c1c <HAL_RCCEx_GetPLL1ClockFreq>
          frequency = pll1_clocks.PLL1_Q_Frequency;
 8105ff2:	6abb      	ldr	r3, [r7, #40]	; 0x28
 8105ff4:	63fb      	str	r3, [r7, #60]	; 0x3c
         }
         else
         {
           frequency = 0;
         }
          break;
 8105ff6:	e345      	b.n	8106684 <HAL_RCCEx_GetPeriphCLKFreq+0x988>
           frequency = 0;
 8105ff8:	2300      	movs	r3, #0
 8105ffa:	63fb      	str	r3, [r7, #60]	; 0x3c
          break;
 8105ffc:	e342      	b.n	8106684 <HAL_RCCEx_GetPeriphCLKFreq+0x988>
        }
      case RCC_SAI4ACLKSOURCE_PLL2: /* PLLI2 is the clock source for SAI4A */
        {
         if (HAL_IS_BIT_SET(RCC->CR, RCC_CR_PLL2RDY))
 8105ffe:	4b80      	ldr	r3, [pc, #512]	; (8106200 <HAL_RCCEx_GetPeriphCLKFreq+0x504>)
 8106000:	681b      	ldr	r3, [r3, #0]
 8106002:	f003 6300 	and.w	r3, r3, #134217728	; 0x8000000
 8106006:	f1b3 6f00 	cmp.w	r3, #134217728	; 0x8000000
 810600a:	d107      	bne.n	810601c <HAL_RCCEx_GetPeriphCLKFreq+0x320>
         {
          HAL_RCCEx_GetPLL2ClockFreq(&pll2_clocks);
 810600c:	f107 0318 	add.w	r3, r7, #24
 8106010:	4618      	mov	r0, r3
 8106012:	f000 fb5b 	bl	81066cc <HAL_RCCEx_GetPLL2ClockFreq>
          frequency = pll2_clocks.PLL2_P_Frequency;
 8106016:	69bb      	ldr	r3, [r7, #24]
 8106018:	63fb      	str	r3, [r7, #60]	; 0x3c
         }
         else
         {
           frequency = 0;
         }
          break;
 810601a:	e333      	b.n	8106684 <HAL_RCCEx_GetPeriphCLKFreq+0x988>
           frequency = 0;
 810601c:	2300      	movs	r3, #0
 810601e:	63fb      	str	r3, [r7, #60]	; 0x3c
          break;
 8106020:	e330      	b.n	8106684 <HAL_RCCEx_GetPeriphCLKFreq+0x988>
        }

      case RCC_SAI4ACLKSOURCE_PLL3: /* PLLI3 is the clock source for SAI4A */
        {
          if (HAL_IS_BIT_SET(RCC->CR, RCC_CR_PLL3RDY))
 8106022:	4b77      	ldr	r3, [pc, #476]	; (8106200 <HAL_RCCEx_GetPeriphCLKFreq+0x504>)
 8106024:	681b      	ldr	r3, [r3, #0]
 8106026:	f003 5300 	and.w	r3, r3, #536870912	; 0x20000000
 810602a:	f1b3 5f00 	cmp.w	r3, #536870912	; 0x20000000
 810602e:	d107      	bne.n	8106040 <HAL_RCCEx_GetPeriphCLKFreq+0x344>
         {
          HAL_RCCEx_GetPLL3ClockFreq(&pll3_clocks);
 8106030:	f107 030c 	add.w	r3, r7, #12
 8106034:	4618      	mov	r0, r3
 8106036:	f000 fc9d 	bl	8106974 <HAL_RCCEx_GetPLL3ClockFreq>
          frequency = pll3_clocks.PLL3_P_Frequency;
 810603a:	68fb      	ldr	r3, [r7, #12]
 810603c:	63fb      	str	r3, [r7, #60]	; 0x3c
         }
         else
         {
           frequency = 0;
         }
          break;
 810603e:	e321      	b.n	8106684 <HAL_RCCEx_GetPeriphCLKFreq+0x988>
           frequency = 0;
 8106040:	2300      	movs	r3, #0
 8106042:	63fb      	str	r3, [r7, #60]	; 0x3c
          break;
 8106044:	e31e      	b.n	8106684 <HAL_RCCEx_GetPeriphCLKFreq+0x988>
        }

      case RCC_SAI4ACLKSOURCE_CLKP: /* CKPER is the clock source for SAI4A*/
        {

          ckpclocksource= __HAL_RCC_GET_CLKP_SOURCE();
 8106046:	4b6e      	ldr	r3, [pc, #440]	; (8106200 <HAL_RCCEx_GetPeriphCLKFreq+0x504>)
 8106048:	6cdb      	ldr	r3, [r3, #76]	; 0x4c
 810604a:	f003 5340 	and.w	r3, r3, #805306368	; 0x30000000
 810604e:	637b      	str	r3, [r7, #52]	; 0x34

          if ((HAL_IS_BIT_SET(RCC->CR, RCC_CR_HSIRDY)) && (ckpclocksource == RCC_CLKPSOURCE_HSI))
 8106050:	4b6b      	ldr	r3, [pc, #428]	; (8106200 <HAL_RCCEx_GetPeriphCLKFreq+0x504>)
 8106052:	681b      	ldr	r3, [r3, #0]
 8106054:	f003 0304 	and.w	r3, r3, #4
 8106058:	2b04      	cmp	r3, #4
 810605a:	d10c      	bne.n	8106076 <HAL_RCCEx_GetPeriphCLKFreq+0x37a>
 810605c:	6b7b      	ldr	r3, [r7, #52]	; 0x34
 810605e:	2b00      	cmp	r3, #0
 8106060:	d109      	bne.n	8106076 <HAL_RCCEx_GetPeriphCLKFreq+0x37a>
          {
            /* In Case the CKPER Source is HSI */
            frequency = (HSI_VALUE >> (__HAL_RCC_GET_HSI_DIVIDER()>> 3));
 8106062:	4b67      	ldr	r3, [pc, #412]	; (8106200 <HAL_RCCEx_GetPeriphCLKFreq+0x504>)
 8106064:	681b      	ldr	r3, [r3, #0]
 8106066:	08db      	lsrs	r3, r3, #3
 8106068:	f003 0303 	and.w	r3, r3, #3
 810606c:	4a65      	ldr	r2, [pc, #404]	; (8106204 <HAL_RCCEx_GetPeriphCLKFreq+0x508>)
 810606e:	fa22 f303 	lsr.w	r3, r2, r3
 8106072:	63fb      	str	r3, [r7, #60]	; 0x3c
 8106074:	e01e      	b.n	81060b4 <HAL_RCCEx_GetPeriphCLKFreq+0x3b8>
          }

          else if ((HAL_IS_BIT_SET(RCC->CR, RCC_CR_CSIRDY)) && (ckpclocksource == RCC_CLKPSOURCE_CSI))
 8106076:	4b62      	ldr	r3, [pc, #392]	; (8106200 <HAL_RCCEx_GetPeriphCLKFreq+0x504>)
 8106078:	681b      	ldr	r3, [r3, #0]
 810607a:	f403 7380 	and.w	r3, r3, #256	; 0x100
 810607e:	f5b3 7f80 	cmp.w	r3, #256	; 0x100
 8106082:	d106      	bne.n	8106092 <HAL_RCCEx_GetPeriphCLKFreq+0x396>
 8106084:	6b7b      	ldr	r3, [r7, #52]	; 0x34
 8106086:	f1b3 5f80 	cmp.w	r3, #268435456	; 0x10000000
 810608a:	d102      	bne.n	8106092 <HAL_RCCEx_GetPeriphCLKFreq+0x396>
          {
            /* In Case the CKPER Source is CSI */
            frequency = CSI_VALUE;
 810608c:	4b5e      	ldr	r3, [pc, #376]	; (8106208 <HAL_RCCEx_GetPeriphCLKFreq+0x50c>)
 810608e:	63fb      	str	r3, [r7, #60]	; 0x3c
 8106090:	e010      	b.n	81060b4 <HAL_RCCEx_GetPeriphCLKFreq+0x3b8>
          }

          else if ((HAL_IS_BIT_SET(RCC->CR, RCC_CR_HSERDY)) && (ckpclocksource == RCC_CLKPSOURCE_HSE))
 8106092:	4b5b      	ldr	r3, [pc, #364]	; (8106200 <HAL_RCCEx_GetPeriphCLKFreq+0x504>)
 8106094:	681b      	ldr	r3, [r3, #0]
 8106096:	f403 3300 	and.w	r3, r3, #131072	; 0x20000
 810609a:	f5b3 3f00 	cmp.w	r3, #131072	; 0x20000
 810609e:	d106      	bne.n	81060ae <HAL_RCCEx_GetPeriphCLKFreq+0x3b2>
 81060a0:	6b7b      	ldr	r3, [r7, #52]	; 0x34
 81060a2:	f1b3 5f00 	cmp.w	r3, #536870912	; 0x20000000
 81060a6:	d102      	bne.n	81060ae <HAL_RCCEx_GetPeriphCLKFreq+0x3b2>
          {
            /* In Case the CKPER Source is HSE */
            frequency = HSE_VALUE;
 81060a8:	4b58      	ldr	r3, [pc, #352]	; (810620c <HAL_RCCEx_GetPeriphCLKFreq+0x510>)
 81060aa:	63fb      	str	r3, [r7, #60]	; 0x3c
 81060ac:	e002      	b.n	81060b4 <HAL_RCCEx_GetPeriphCLKFreq+0x3b8>
          }

          else
          {
            /* In Case the CKPER is disabled*/
            frequency = 0;
 81060ae:	2300      	movs	r3, #0
 81060b0:	63fb      	str	r3, [r7, #60]	; 0x3c
          }

          break;
 81060b2:	e2e7      	b.n	8106684 <HAL_RCCEx_GetPeriphCLKFreq+0x988>
 81060b4:	e2e6      	b.n	8106684 <HAL_RCCEx_GetPeriphCLKFreq+0x988>
        }

      case RCC_SAI4ACLKSOURCE_PIN: /* External clock is the clock source for SAI4A */
        {
          frequency = EXTERNAL_CLOCK_VALUE;
 81060b6:	4b56      	ldr	r3, [pc, #344]	; (8106210 <HAL_RCCEx_GetPeriphCLKFreq+0x514>)
 81060b8:	63fb      	str	r3, [r7, #60]	; 0x3c
          break;
 81060ba:	e2e3      	b.n	8106684 <HAL_RCCEx_GetPeriphCLKFreq+0x988>
        }

      default :
        {
          frequency = 0;
 81060bc:	2300      	movs	r3, #0
 81060be:	63fb      	str	r3, [r7, #60]	; 0x3c
          break;
 81060c0:	e2e0      	b.n	8106684 <HAL_RCCEx_GetPeriphCLKFreq+0x988>
        }
      }
    }

  else if (PeriphClk == RCC_PERIPHCLK_SAI4B)
 81060c2:	687b      	ldr	r3, [r7, #4]
 81060c4:	f5b3 6f00 	cmp.w	r3, #2048	; 0x800
 81060c8:	f040 80a7 	bne.w	810621a <HAL_RCCEx_GetPeriphCLKFreq+0x51e>
    {

      saiclocksource= __HAL_RCC_GET_SAI4B_SOURCE();
 81060cc:	4b4c      	ldr	r3, [pc, #304]	; (8106200 <HAL_RCCEx_GetPeriphCLKFreq+0x504>)
 81060ce:	6d9b      	ldr	r3, [r3, #88]	; 0x58
 81060d0:	f003 63e0 	and.w	r3, r3, #117440512	; 0x7000000
 81060d4:	633b      	str	r3, [r7, #48]	; 0x30

      switch (saiclocksource)
 81060d6:	6b3b      	ldr	r3, [r7, #48]	; 0x30
 81060d8:	f1b3 6f80 	cmp.w	r3, #67108864	; 0x4000000
 81060dc:	d055      	beq.n	810618a <HAL_RCCEx_GetPeriphCLKFreq+0x48e>
 81060de:	6b3b      	ldr	r3, [r7, #48]	; 0x30
 81060e0:	f1b3 6f80 	cmp.w	r3, #67108864	; 0x4000000
 81060e4:	f200 8096 	bhi.w	8106214 <HAL_RCCEx_GetPeriphCLKFreq+0x518>
 81060e8:	6b3b      	ldr	r3, [r7, #48]	; 0x30
 81060ea:	f1b3 7f40 	cmp.w	r3, #50331648	; 0x3000000
 81060ee:	f000 8084 	beq.w	81061fa <HAL_RCCEx_GetPeriphCLKFreq+0x4fe>
 81060f2:	6b3b      	ldr	r3, [r7, #48]	; 0x30
 81060f4:	f1b3 7f40 	cmp.w	r3, #50331648	; 0x3000000
 81060f8:	f200 808c 	bhi.w	8106214 <HAL_RCCEx_GetPeriphCLKFreq+0x518>
 81060fc:	6b3b      	ldr	r3, [r7, #48]	; 0x30
 81060fe:	f1b3 7f00 	cmp.w	r3, #33554432	; 0x2000000
 8106102:	d030      	beq.n	8106166 <HAL_RCCEx_GetPeriphCLKFreq+0x46a>
 8106104:	6b3b      	ldr	r3, [r7, #48]	; 0x30
 8106106:	f1b3 7f00 	cmp.w	r3, #33554432	; 0x2000000
 810610a:	f200 8083 	bhi.w	8106214 <HAL_RCCEx_GetPeriphCLKFreq+0x518>
 810610e:	6b3b      	ldr	r3, [r7, #48]	; 0x30
 8106110:	2b00      	cmp	r3, #0
 8106112:	d004      	beq.n	810611e <HAL_RCCEx_GetPeriphCLKFreq+0x422>
 8106114:	6b3b      	ldr	r3, [r7, #48]	; 0x30
 8106116:	f1b3 7f80 	cmp.w	r3, #16777216	; 0x1000000
 810611a:	d012      	beq.n	8106142 <HAL_RCCEx_GetPeriphCLKFreq+0x446>
 810611c:	e07a      	b.n	8106214 <HAL_RCCEx_GetPeriphCLKFreq+0x518>
      {
      case RCC_SAI4BCLKSOURCE_PLL: /* PLL1 is the clock source for SAI4B */
        {
         if (HAL_IS_BIT_SET(RCC->CR, RCC_CR_PLL1RDY))
 810611e:	4b38      	ldr	r3, [pc, #224]	; (8106200 <HAL_RCCEx_GetPeriphCLKFreq+0x504>)
 8106120:	681b      	ldr	r3, [r3, #0]
 8106122:	f003 7300 	and.w	r3, r3, #33554432	; 0x2000000
 8106126:	f1b3 7f00 	cmp.w	r3, #33554432	; 0x2000000
 810612a:	d107      	bne.n	810613c <HAL_RCCEx_GetPeriphCLKFreq+0x440>
         {
          HAL_RCCEx_GetPLL1ClockFreq(&pll1_clocks);
 810612c:	f107 0324 	add.w	r3, r7, #36	; 0x24
 8106130:	4618      	mov	r0, r3
 8106132:	f000 fd73 	bl	8106c1c <HAL_RCCEx_GetPLL1ClockFreq>
          frequency = pll1_clocks.PLL1_Q_Frequency;
 8106136:	6abb      	ldr	r3, [r7, #40]	; 0x28
 8106138:	63fb      	str	r3, [r7, #60]	; 0x3c
         }
         else
         {
           frequency = 0;
         }
          break;
 810613a:	e2a3      	b.n	8106684 <HAL_RCCEx_GetPeriphCLKFreq+0x988>
           frequency = 0;
 810613c:	2300      	movs	r3, #0
 810613e:	63fb      	str	r3, [r7, #60]	; 0x3c
          break;
 8106140:	e2a0      	b.n	8106684 <HAL_RCCEx_GetPeriphCLKFreq+0x988>
        }
      case RCC_SAI4BCLKSOURCE_PLL2: /* PLLI2 is the clock source for SAI4B */
        {
         if (HAL_IS_BIT_SET(RCC->CR, RCC_CR_PLL2RDY))
 8106142:	4b2f      	ldr	r3, [pc, #188]	; (8106200 <HAL_RCCEx_GetPeriphCLKFreq+0x504>)
 8106144:	681b      	ldr	r3, [r3, #0]
 8106146:	f003 6300 	and.w	r3, r3, #134217728	; 0x8000000
 810614a:	f1b3 6f00 	cmp.w	r3, #134217728	; 0x8000000
 810614e:	d107      	bne.n	8106160 <HAL_RCCEx_GetPeriphCLKFreq+0x464>
         {
          HAL_RCCEx_GetPLL2ClockFreq(&pll2_clocks);
 8106150:	f107 0318 	add.w	r3, r7, #24
 8106154:	4618      	mov	r0, r3
 8106156:	f000 fab9 	bl	81066cc <HAL_RCCEx_GetPLL2ClockFreq>
          frequency = pll2_clocks.PLL2_P_Frequency;
 810615a:	69bb      	ldr	r3, [r7, #24]
 810615c:	63fb      	str	r3, [r7, #60]	; 0x3c
          }
         else
         {
           frequency = 0;
         }
          break;
 810615e:	e291      	b.n	8106684 <HAL_RCCEx_GetPeriphCLKFreq+0x988>
           frequency = 0;
 8106160:	2300      	movs	r3, #0
 8106162:	63fb      	str	r3, [r7, #60]	; 0x3c
          break;
 8106164:	e28e      	b.n	8106684 <HAL_RCCEx_GetPeriphCLKFreq+0x988>
        }

      case RCC_SAI4BCLKSOURCE_PLL3: /* PLLI3 is the clock source for SAI4B */
        {
         if (HAL_IS_BIT_SET(RCC->CR, RCC_CR_PLL3RDY))
 8106166:	4b26      	ldr	r3, [pc, #152]	; (8106200 <HAL_RCCEx_GetPeriphCLKFreq+0x504>)
 8106168:	681b      	ldr	r3, [r3, #0]
 810616a:	f003 5300 	and.w	r3, r3, #536870912	; 0x20000000
 810616e:	f1b3 5f00 	cmp.w	r3, #536870912	; 0x20000000
 8106172:	d107      	bne.n	8106184 <HAL_RCCEx_GetPeriphCLKFreq+0x488>
         {
          HAL_RCCEx_GetPLL3ClockFreq(&pll3_clocks);
 8106174:	f107 030c 	add.w	r3, r7, #12
 8106178:	4618      	mov	r0, r3
 810617a:	f000 fbfb 	bl	8106974 <HAL_RCCEx_GetPLL3ClockFreq>
          frequency = pll3_clocks.PLL3_P_Frequency;
 810617e:	68fb      	ldr	r3, [r7, #12]
 8106180:	63fb      	str	r3, [r7, #60]	; 0x3c
         }
         else
         {
           frequency = 0;
         }
          break;
 8106182:	e27f      	b.n	8106684 <HAL_RCCEx_GetPeriphCLKFreq+0x988>
           frequency = 0;
 8106184:	2300      	movs	r3, #0
 8106186:	63fb      	str	r3, [r7, #60]	; 0x3c
          break;
 8106188:	e27c      	b.n	8106684 <HAL_RCCEx_GetPeriphCLKFreq+0x988>
        }

      case RCC_SAI4BCLKSOURCE_CLKP: /* CKPER is the clock source for SAI4B*/
        {

          ckpclocksource= __HAL_RCC_GET_CLKP_SOURCE();
 810618a:	4b1d      	ldr	r3, [pc, #116]	; (8106200 <HAL_RCCEx_GetPeriphCLKFreq+0x504>)
 810618c:	6cdb      	ldr	r3, [r3, #76]	; 0x4c
 810618e:	f003 5340 	and.w	r3, r3, #805306368	; 0x30000000
 8106192:	637b      	str	r3, [r7, #52]	; 0x34

         if ((HAL_IS_BIT_SET(RCC->CR, RCC_CR_HSIRDY)) && (ckpclocksource == RCC_CLKPSOURCE_HSI))
 8106194:	4b1a      	ldr	r3, [pc, #104]	; (8106200 <HAL_RCCEx_GetPeriphCLKFreq+0x504>)
 8106196:	681b      	ldr	r3, [r3, #0]
 8106198:	f003 0304 	and.w	r3, r3, #4
 810619c:	2b04      	cmp	r3, #4
 810619e:	d10c      	bne.n	81061ba <HAL_RCCEx_GetPeriphCLKFreq+0x4be>
 81061a0:	6b7b      	ldr	r3, [r7, #52]	; 0x34
 81061a2:	2b00      	cmp	r3, #0
 81061a4:	d109      	bne.n	81061ba <HAL_RCCEx_GetPeriphCLKFreq+0x4be>
          {
            /* In Case the CKPER Source is HSI */
            frequency = (HSI_VALUE >> (__HAL_RCC_GET_HSI_DIVIDER()>> 3));
 81061a6:	4b16      	ldr	r3, [pc, #88]	; (8106200 <HAL_RCCEx_GetPeriphCLKFreq+0x504>)
 81061a8:	681b      	ldr	r3, [r3, #0]
 81061aa:	08db      	lsrs	r3, r3, #3
 81061ac:	f003 0303 	and.w	r3, r3, #3
 81061b0:	4a14      	ldr	r2, [pc, #80]	; (8106204 <HAL_RCCEx_GetPeriphCLKFreq+0x508>)
 81061b2:	fa22 f303 	lsr.w	r3, r2, r3
 81061b6:	63fb      	str	r3, [r7, #60]	; 0x3c
 81061b8:	e01e      	b.n	81061f8 <HAL_RCCEx_GetPeriphCLKFreq+0x4fc>
          }

          else if ((HAL_IS_BIT_SET(RCC->CR, RCC_CR_CSIRDY)) && (ckpclocksource == RCC_CLKPSOURCE_CSI))
 81061ba:	4b11      	ldr	r3, [pc, #68]	; (8106200 <HAL_RCCEx_GetPeriphCLKFreq+0x504>)
 81061bc:	681b      	ldr	r3, [r3, #0]
 81061be:	f403 7380 	and.w	r3, r3, #256	; 0x100
 81061c2:	f5b3 7f80 	cmp.w	r3, #256	; 0x100
 81061c6:	d106      	bne.n	81061d6 <HAL_RCCEx_GetPeriphCLKFreq+0x4da>
 81061c8:	6b7b      	ldr	r3, [r7, #52]	; 0x34
 81061ca:	f1b3 5f80 	cmp.w	r3, #268435456	; 0x10000000
 81061ce:	d102      	bne.n	81061d6 <HAL_RCCEx_GetPeriphCLKFreq+0x4da>
          {
            /* In Case the CKPER Source is CSI */
            frequency = CSI_VALUE;
 81061d0:	4b0d      	ldr	r3, [pc, #52]	; (8106208 <HAL_RCCEx_GetPeriphCLKFreq+0x50c>)
 81061d2:	63fb      	str	r3, [r7, #60]	; 0x3c
 81061d4:	e010      	b.n	81061f8 <HAL_RCCEx_GetPeriphCLKFreq+0x4fc>
          }

          else if ((HAL_IS_BIT_SET(RCC->CR, RCC_CR_HSERDY)) && (ckpclocksource == RCC_CLKPSOURCE_HSE))
 81061d6:	4b0a      	ldr	r3, [pc, #40]	; (8106200 <HAL_RCCEx_GetPeriphCLKFreq+0x504>)
 81061d8:	681b      	ldr	r3, [r3, #0]
 81061da:	f403 3300 	and.w	r3, r3, #131072	; 0x20000
 81061de:	f5b3 3f00 	cmp.w	r3, #131072	; 0x20000
 81061e2:	d106      	bne.n	81061f2 <HAL_RCCEx_GetPeriphCLKFreq+0x4f6>
 81061e4:	6b7b      	ldr	r3, [r7, #52]	; 0x34
 81061e6:	f1b3 5f00 	cmp.w	r3, #536870912	; 0x20000000
 81061ea:	d102      	bne.n	81061f2 <HAL_RCCEx_GetPeriphCLKFreq+0x4f6>
          {
            /* In Case the CKPER Source is HSE */
            frequency = HSE_VALUE;
 81061ec:	4b07      	ldr	r3, [pc, #28]	; (810620c <HAL_RCCEx_GetPeriphCLKFreq+0x510>)
 81061ee:	63fb      	str	r3, [r7, #60]	; 0x3c
 81061f0:	e002      	b.n	81061f8 <HAL_RCCEx_GetPeriphCLKFreq+0x4fc>
          }

          else
          {
            /* In Case the CKPER is disabled*/
            frequency = 0;
 81061f2:	2300      	movs	r3, #0
 81061f4:	63fb      	str	r3, [r7, #60]	; 0x3c
          }

          break;
 81061f6:	e245      	b.n	8106684 <HAL_RCCEx_GetPeriphCLKFreq+0x988>
 81061f8:	e244      	b.n	8106684 <HAL_RCCEx_GetPeriphCLKFreq+0x988>
        }

      case RCC_SAI4BCLKSOURCE_PIN: /* External clock is the clock source for SAI4B */
        {
          frequency = EXTERNAL_CLOCK_VALUE;
 81061fa:	4b05      	ldr	r3, [pc, #20]	; (8106210 <HAL_RCCEx_GetPeriphCLKFreq+0x514>)
 81061fc:	63fb      	str	r3, [r7, #60]	; 0x3c
          break;
 81061fe:	e241      	b.n	8106684 <HAL_RCCEx_GetPeriphCLKFreq+0x988>
 8106200:	58024400 	.word	0x58024400
 8106204:	03d09000 	.word	0x03d09000
 8106208:	003d0900 	.word	0x003d0900
 810620c:	007a1200 	.word	0x007a1200
 8106210:	00bb8000 	.word	0x00bb8000
        }

      default :
        {
          frequency = 0;
 8106214:	2300      	movs	r3, #0
 8106216:	63fb      	str	r3, [r7, #60]	; 0x3c
          break;
 8106218:	e234      	b.n	8106684 <HAL_RCCEx_GetPeriphCLKFreq+0x988>
        }
      }
    }
#endif /*SAI4*/
  else if (PeriphClk == RCC_PERIPHCLK_SPI123)
 810621a:	687b      	ldr	r3, [r7, #4]
 810621c:	f5b3 5f80 	cmp.w	r3, #4096	; 0x1000
 8106220:	f040 809c 	bne.w	810635c <HAL_RCCEx_GetPeriphCLKFreq+0x660>
    {
      /* Get SPI1/2/3 clock source */
      srcclk= __HAL_RCC_GET_SPI123_SOURCE();
 8106224:	4b9b      	ldr	r3, [pc, #620]	; (8106494 <HAL_RCCEx_GetPeriphCLKFreq+0x798>)
 8106226:	6d1b      	ldr	r3, [r3, #80]	; 0x50
 8106228:	f403 43e0 	and.w	r3, r3, #28672	; 0x7000
 810622c:	63bb      	str	r3, [r7, #56]	; 0x38

      switch (srcclk)
 810622e:	6bbb      	ldr	r3, [r7, #56]	; 0x38
 8106230:	f5b3 4f80 	cmp.w	r3, #16384	; 0x4000
 8106234:	d054      	beq.n	81062e0 <HAL_RCCEx_GetPeriphCLKFreq+0x5e4>
 8106236:	6bbb      	ldr	r3, [r7, #56]	; 0x38
 8106238:	f5b3 4f80 	cmp.w	r3, #16384	; 0x4000
 810623c:	f200 808b 	bhi.w	8106356 <HAL_RCCEx_GetPeriphCLKFreq+0x65a>
 8106240:	6bbb      	ldr	r3, [r7, #56]	; 0x38
 8106242:	f5b3 5f40 	cmp.w	r3, #12288	; 0x3000
 8106246:	f000 8083 	beq.w	8106350 <HAL_RCCEx_GetPeriphCLKFreq+0x654>
 810624a:	6bbb      	ldr	r3, [r7, #56]	; 0x38
 810624c:	f5b3 5f40 	cmp.w	r3, #12288	; 0x3000
 8106250:	f200 8081 	bhi.w	8106356 <HAL_RCCEx_GetPeriphCLKFreq+0x65a>
 8106254:	6bbb      	ldr	r3, [r7, #56]	; 0x38
 8106256:	f5b3 5f00 	cmp.w	r3, #8192	; 0x2000
 810625a:	d02f      	beq.n	81062bc <HAL_RCCEx_GetPeriphCLKFreq+0x5c0>
 810625c:	6bbb      	ldr	r3, [r7, #56]	; 0x38
 810625e:	f5b3 5f00 	cmp.w	r3, #8192	; 0x2000
 8106262:	d878      	bhi.n	8106356 <HAL_RCCEx_GetPeriphCLKFreq+0x65a>
 8106264:	6bbb      	ldr	r3, [r7, #56]	; 0x38
 8106266:	2b00      	cmp	r3, #0
 8106268:	d004      	beq.n	8106274 <HAL_RCCEx_GetPeriphCLKFreq+0x578>
 810626a:	6bbb      	ldr	r3, [r7, #56]	; 0x38
 810626c:	f5b3 5f80 	cmp.w	r3, #4096	; 0x1000
 8106270:	d012      	beq.n	8106298 <HAL_RCCEx_GetPeriphCLKFreq+0x59c>
 8106272:	e070      	b.n	8106356 <HAL_RCCEx_GetPeriphCLKFreq+0x65a>
      {
      case RCC_SPI123CLKSOURCE_PLL: /* PLL1 is the clock source for SPI123 */
        {
         if (HAL_IS_BIT_SET(RCC->CR, RCC_CR_PLL1RDY))
 8106274:	4b87      	ldr	r3, [pc, #540]	; (8106494 <HAL_RCCEx_GetPeriphCLKFreq+0x798>)
 8106276:	681b      	ldr	r3, [r3, #0]
 8106278:	f003 7300 	and.w	r3, r3, #33554432	; 0x2000000
 810627c:	f1b3 7f00 	cmp.w	r3, #33554432	; 0x2000000
 8106280:	d107      	bne.n	8106292 <HAL_RCCEx_GetPeriphCLKFreq+0x596>
         {
          HAL_RCCEx_GetPLL1ClockFreq(&pll1_clocks);
 8106282:	f107 0324 	add.w	r3, r7, #36	; 0x24
 8106286:	4618      	mov	r0, r3
 8106288:	f000 fcc8 	bl	8106c1c <HAL_RCCEx_GetPLL1ClockFreq>
          frequency = pll1_clocks.PLL1_Q_Frequency;
 810628c:	6abb      	ldr	r3, [r7, #40]	; 0x28
 810628e:	63fb      	str	r3, [r7, #60]	; 0x3c
         }
         else
         {
           frequency = 0;
         }
          break;
 8106290:	e1f8      	b.n	8106684 <HAL_RCCEx_GetPeriphCLKFreq+0x988>
           frequency = 0;
 8106292:	2300      	movs	r3, #0
 8106294:	63fb      	str	r3, [r7, #60]	; 0x3c
          break;
 8106296:	e1f5      	b.n	8106684 <HAL_RCCEx_GetPeriphCLKFreq+0x988>
        }
      case RCC_SPI123CLKSOURCE_PLL2: /* PLL2 is the clock source for SPI123 */
        {
         if (HAL_IS_BIT_SET(RCC->CR, RCC_CR_PLL2RDY))
 8106298:	4b7e      	ldr	r3, [pc, #504]	; (8106494 <HAL_RCCEx_GetPeriphCLKFreq+0x798>)
 810629a:	681b      	ldr	r3, [r3, #0]
 810629c:	f003 6300 	and.w	r3, r3, #134217728	; 0x8000000
 81062a0:	f1b3 6f00 	cmp.w	r3, #134217728	; 0x8000000
 81062a4:	d107      	bne.n	81062b6 <HAL_RCCEx_GetPeriphCLKFreq+0x5ba>
         {
          HAL_RCCEx_GetPLL2ClockFreq(&pll2_clocks);
 81062a6:	f107 0318 	add.w	r3, r7, #24
 81062aa:	4618      	mov	r0, r3
 81062ac:	f000 fa0e 	bl	81066cc <HAL_RCCEx_GetPLL2ClockFreq>
          frequency = pll2_clocks.PLL2_P_Frequency;
 81062b0:	69bb      	ldr	r3, [r7, #24]
 81062b2:	63fb      	str	r3, [r7, #60]	; 0x3c
         }
         else
         {
           frequency = 0;
         }
          break;
 81062b4:	e1e6      	b.n	8106684 <HAL_RCCEx_GetPeriphCLKFreq+0x988>
           frequency = 0;
 81062b6:	2300      	movs	r3, #0
 81062b8:	63fb      	str	r3, [r7, #60]	; 0x3c
          break;
 81062ba:	e1e3      	b.n	8106684 <HAL_RCCEx_GetPeriphCLKFreq+0x988>
        }

      case RCC_SPI123CLKSOURCE_PLL3: /* PLL3 is the clock source for SPI123 */
        {
         if (HAL_IS_BIT_SET(RCC->CR, RCC_CR_PLL3RDY))
 81062bc:	4b75      	ldr	r3, [pc, #468]	; (8106494 <HAL_RCCEx_GetPeriphCLKFreq+0x798>)
 81062be:	681b      	ldr	r3, [r3, #0]
 81062c0:	f003 5300 	and.w	r3, r3, #536870912	; 0x20000000
 81062c4:	f1b3 5f00 	cmp.w	r3, #536870912	; 0x20000000
 81062c8:	d107      	bne.n	81062da <HAL_RCCEx_GetPeriphCLKFreq+0x5de>
         {
          HAL_RCCEx_GetPLL3ClockFreq(&pll3_clocks);
 81062ca:	f107 030c 	add.w	r3, r7, #12
 81062ce:	4618      	mov	r0, r3
 81062d0:	f000 fb50 	bl	8106974 <HAL_RCCEx_GetPLL3ClockFreq>
          frequency = pll3_clocks.PLL3_P_Frequency;
 81062d4:	68fb      	ldr	r3, [r7, #12]
 81062d6:	63fb      	str	r3, [r7, #60]	; 0x3c
         }
         else
         {
           frequency = 0;
         }
          break;
 81062d8:	e1d4      	b.n	8106684 <HAL_RCCEx_GetPeriphCLKFreq+0x988>
           frequency = 0;
 81062da:	2300      	movs	r3, #0
 81062dc:	63fb      	str	r3, [r7, #60]	; 0x3c
          break;
 81062de:	e1d1      	b.n	8106684 <HAL_RCCEx_GetPeriphCLKFreq+0x988>
        }

      case RCC_SPI123CLKSOURCE_CLKP: /* CKPER is the clock source for SPI123 */
        {

          ckpclocksource= __HAL_RCC_GET_CLKP_SOURCE();
 81062e0:	4b6c      	ldr	r3, [pc, #432]	; (8106494 <HAL_RCCEx_GetPeriphCLKFreq+0x798>)
 81062e2:	6cdb      	ldr	r3, [r3, #76]	; 0x4c
 81062e4:	f003 5340 	and.w	r3, r3, #805306368	; 0x30000000
 81062e8:	637b      	str	r3, [r7, #52]	; 0x34

         if ((HAL_IS_BIT_SET(RCC->CR, RCC_CR_HSIRDY)) && (ckpclocksource == RCC_CLKPSOURCE_HSI))
 81062ea:	4b6a      	ldr	r3, [pc, #424]	; (8106494 <HAL_RCCEx_GetPeriphCLKFreq+0x798>)
 81062ec:	681b      	ldr	r3, [r3, #0]
 81062ee:	f003 0304 	and.w	r3, r3, #4
 81062f2:	2b04      	cmp	r3, #4
 81062f4:	d10c      	bne.n	8106310 <HAL_RCCEx_GetPeriphCLKFreq+0x614>
 81062f6:	6b7b      	ldr	r3, [r7, #52]	; 0x34
 81062f8:	2b00      	cmp	r3, #0
 81062fa:	d109      	bne.n	8106310 <HAL_RCCEx_GetPeriphCLKFreq+0x614>
          {
            /* In Case the CKPER Source is HSI */
            frequency = (HSI_VALUE >> (__HAL_RCC_GET_HSI_DIVIDER()>> 3));
 81062fc:	4b65      	ldr	r3, [pc, #404]	; (8106494 <HAL_RCCEx_GetPeriphCLKFreq+0x798>)
 81062fe:	681b      	ldr	r3, [r3, #0]
 8106300:	08db      	lsrs	r3, r3, #3
 8106302:	f003 0303 	and.w	r3, r3, #3
 8106306:	4a64      	ldr	r2, [pc, #400]	; (8106498 <HAL_RCCEx_GetPeriphCLKFreq+0x79c>)
 8106308:	fa22 f303 	lsr.w	r3, r2, r3
 810630c:	63fb      	str	r3, [r7, #60]	; 0x3c
 810630e:	e01e      	b.n	810634e <HAL_RCCEx_GetPeriphCLKFreq+0x652>
          }

          else if ((HAL_IS_BIT_SET(RCC->CR, RCC_CR_CSIRDY)) && (ckpclocksource == RCC_CLKPSOURCE_CSI))
 8106310:	4b60      	ldr	r3, [pc, #384]	; (8106494 <HAL_RCCEx_GetPeriphCLKFreq+0x798>)
 8106312:	681b      	ldr	r3, [r3, #0]
 8106314:	f403 7380 	and.w	r3, r3, #256	; 0x100
 8106318:	f5b3 7f80 	cmp.w	r3, #256	; 0x100
 810631c:	d106      	bne.n	810632c <HAL_RCCEx_GetPeriphCLKFreq+0x630>
 810631e:	6b7b      	ldr	r3, [r7, #52]	; 0x34
 8106320:	f1b3 5f80 	cmp.w	r3, #268435456	; 0x10000000
 8106324:	d102      	bne.n	810632c <HAL_RCCEx_GetPeriphCLKFreq+0x630>
          {
            /* In Case the CKPER Source is CSI */
            frequency = CSI_VALUE;
 8106326:	4b5d      	ldr	r3, [pc, #372]	; (810649c <HAL_RCCEx_GetPeriphCLKFreq+0x7a0>)
 8106328:	63fb      	str	r3, [r7, #60]	; 0x3c
 810632a:	e010      	b.n	810634e <HAL_RCCEx_GetPeriphCLKFreq+0x652>
          }

          else if ((HAL_IS_BIT_SET(RCC->CR, RCC_CR_HSERDY)) && (ckpclocksource == RCC_CLKPSOURCE_HSE))
 810632c:	4b59      	ldr	r3, [pc, #356]	; (8106494 <HAL_RCCEx_GetPeriphCLKFreq+0x798>)
 810632e:	681b      	ldr	r3, [r3, #0]
 8106330:	f403 3300 	and.w	r3, r3, #131072	; 0x20000
 8106334:	f5b3 3f00 	cmp.w	r3, #131072	; 0x20000
 8106338:	d106      	bne.n	8106348 <HAL_RCCEx_GetPeriphCLKFreq+0x64c>
 810633a:	6b7b      	ldr	r3, [r7, #52]	; 0x34
 810633c:	f1b3 5f00 	cmp.w	r3, #536870912	; 0x20000000
 8106340:	d102      	bne.n	8106348 <HAL_RCCEx_GetPeriphCLKFreq+0x64c>
          {
            /* In Case the CKPER Source is HSE */
            frequency = HSE_VALUE;
 8106342:	4b57      	ldr	r3, [pc, #348]	; (81064a0 <HAL_RCCEx_GetPeriphCLKFreq+0x7a4>)
 8106344:	63fb      	str	r3, [r7, #60]	; 0x3c
 8106346:	e002      	b.n	810634e <HAL_RCCEx_GetPeriphCLKFreq+0x652>
          }

          else
          {
            /* In Case the CKPER is disabled*/
            frequency = 0;
 8106348:	2300      	movs	r3, #0
 810634a:	63fb      	str	r3, [r7, #60]	; 0x3c
          }

          break;
 810634c:	e19a      	b.n	8106684 <HAL_RCCEx_GetPeriphCLKFreq+0x988>
 810634e:	e199      	b.n	8106684 <HAL_RCCEx_GetPeriphCLKFreq+0x988>
        }

      case (RCC_SPI123CLKSOURCE_PIN): /* External clock is the clock source for I2S */
        {
          frequency = EXTERNAL_CLOCK_VALUE;
 8106350:	4b54      	ldr	r3, [pc, #336]	; (81064a4 <HAL_RCCEx_GetPeriphCLKFreq+0x7a8>)
 8106352:	63fb      	str	r3, [r7, #60]	; 0x3c
          break;
 8106354:	e196      	b.n	8106684 <HAL_RCCEx_GetPeriphCLKFreq+0x988>
        }
      default :
        {
          frequency = 0;
 8106356:	2300      	movs	r3, #0
 8106358:	63fb      	str	r3, [r7, #60]	; 0x3c
          break;
 810635a:	e193      	b.n	8106684 <HAL_RCCEx_GetPeriphCLKFreq+0x988>
        }
      }
    }
  else if (PeriphClk == RCC_PERIPHCLK_ADC)
 810635c:	687b      	ldr	r3, [r7, #4]
 810635e:	f5b3 2f00 	cmp.w	r3, #524288	; 0x80000
 8106362:	d173      	bne.n	810644c <HAL_RCCEx_GetPeriphCLKFreq+0x750>
    {
      /* Get ADC clock source */
      srcclk= __HAL_RCC_GET_ADC_SOURCE();
 8106364:	4b4b      	ldr	r3, [pc, #300]	; (8106494 <HAL_RCCEx_GetPeriphCLKFreq+0x798>)
 8106366:	6d9b      	ldr	r3, [r3, #88]	; 0x58
 8106368:	f403 3340 	and.w	r3, r3, #196608	; 0x30000
 810636c:	63bb      	str	r3, [r7, #56]	; 0x38

      switch (srcclk)
 810636e:	6bbb      	ldr	r3, [r7, #56]	; 0x38
 8106370:	f5b3 3f00 	cmp.w	r3, #131072	; 0x20000
 8106374:	d02f      	beq.n	81063d6 <HAL_RCCEx_GetPeriphCLKFreq+0x6da>
 8106376:	6bbb      	ldr	r3, [r7, #56]	; 0x38
 8106378:	f5b3 3f00 	cmp.w	r3, #131072	; 0x20000
 810637c:	d863      	bhi.n	8106446 <HAL_RCCEx_GetPeriphCLKFreq+0x74a>
 810637e:	6bbb      	ldr	r3, [r7, #56]	; 0x38
 8106380:	2b00      	cmp	r3, #0
 8106382:	d004      	beq.n	810638e <HAL_RCCEx_GetPeriphCLKFreq+0x692>
 8106384:	6bbb      	ldr	r3, [r7, #56]	; 0x38
 8106386:	f5b3 3f80 	cmp.w	r3, #65536	; 0x10000
 810638a:	d012      	beq.n	81063b2 <HAL_RCCEx_GetPeriphCLKFreq+0x6b6>
 810638c:	e05b      	b.n	8106446 <HAL_RCCEx_GetPeriphCLKFreq+0x74a>
      {
      case RCC_ADCCLKSOURCE_PLL2:
        {
         if (HAL_IS_BIT_SET(RCC->CR, RCC_CR_PLL2RDY))
 810638e:	4b41      	ldr	r3, [pc, #260]	; (8106494 <HAL_RCCEx_GetPeriphCLKFreq+0x798>)
 8106390:	681b      	ldr	r3, [r3, #0]
 8106392:	f003 6300 	and.w	r3, r3, #134217728	; 0x8000000
 8106396:	f1b3 6f00 	cmp.w	r3, #134217728	; 0x8000000
 810639a:	d107      	bne.n	81063ac <HAL_RCCEx_GetPeriphCLKFreq+0x6b0>
         {
          HAL_RCCEx_GetPLL2ClockFreq(&pll2_clocks);
 810639c:	f107 0318 	add.w	r3, r7, #24
 81063a0:	4618      	mov	r0, r3
 81063a2:	f000 f993 	bl	81066cc <HAL_RCCEx_GetPLL2ClockFreq>
          frequency = pll2_clocks.PLL2_P_Frequency;
 81063a6:	69bb      	ldr	r3, [r7, #24]
 81063a8:	63fb      	str	r3, [r7, #60]	; 0x3c
         }
         else
         {
           frequency = 0;
         }
          break;
 81063aa:	e16b      	b.n	8106684 <HAL_RCCEx_GetPeriphCLKFreq+0x988>
           frequency = 0;
 81063ac:	2300      	movs	r3, #0
 81063ae:	63fb      	str	r3, [r7, #60]	; 0x3c
          break;
 81063b0:	e168      	b.n	8106684 <HAL_RCCEx_GetPeriphCLKFreq+0x988>
        }
      case RCC_ADCCLKSOURCE_PLL3:
        {
         if (HAL_IS_BIT_SET(RCC->CR, RCC_CR_PLL3RDY))
 81063b2:	4b38      	ldr	r3, [pc, #224]	; (8106494 <HAL_RCCEx_GetPeriphCLKFreq+0x798>)
 81063b4:	681b      	ldr	r3, [r3, #0]
 81063b6:	f003 5300 	and.w	r3, r3, #536870912	; 0x20000000
 81063ba:	f1b3 5f00 	cmp.w	r3, #536870912	; 0x20000000
 81063be:	d107      	bne.n	81063d0 <HAL_RCCEx_GetPeriphCLKFreq+0x6d4>
         {
          HAL_RCCEx_GetPLL3ClockFreq(&pll3_clocks);
 81063c0:	f107 030c 	add.w	r3, r7, #12
 81063c4:	4618      	mov	r0, r3
 81063c6:	f000 fad5 	bl	8106974 <HAL_RCCEx_GetPLL3ClockFreq>
          frequency = pll3_clocks.PLL3_R_Frequency;
 81063ca:	697b      	ldr	r3, [r7, #20]
 81063cc:	63fb      	str	r3, [r7, #60]	; 0x3c
         }
         else
         {
           frequency = 0;
         }
          break;
 81063ce:	e159      	b.n	8106684 <HAL_RCCEx_GetPeriphCLKFreq+0x988>
           frequency = 0;
 81063d0:	2300      	movs	r3, #0
 81063d2:	63fb      	str	r3, [r7, #60]	; 0x3c
          break;
 81063d4:	e156      	b.n	8106684 <HAL_RCCEx_GetPeriphCLKFreq+0x988>
        }

      case RCC_ADCCLKSOURCE_CLKP:
        {

          ckpclocksource= __HAL_RCC_GET_CLKP_SOURCE();
 81063d6:	4b2f      	ldr	r3, [pc, #188]	; (8106494 <HAL_RCCEx_GetPeriphCLKFreq+0x798>)
 81063d8:	6cdb      	ldr	r3, [r3, #76]	; 0x4c
 81063da:	f003 5340 	and.w	r3, r3, #805306368	; 0x30000000
 81063de:	637b      	str	r3, [r7, #52]	; 0x34

         if ((HAL_IS_BIT_SET(RCC->CR, RCC_CR_HSIRDY)) && (ckpclocksource == RCC_CLKPSOURCE_HSI))
 81063e0:	4b2c      	ldr	r3, [pc, #176]	; (8106494 <HAL_RCCEx_GetPeriphCLKFreq+0x798>)
 81063e2:	681b      	ldr	r3, [r3, #0]
 81063e4:	f003 0304 	and.w	r3, r3, #4
 81063e8:	2b04      	cmp	r3, #4
 81063ea:	d10c      	bne.n	8106406 <HAL_RCCEx_GetPeriphCLKFreq+0x70a>
 81063ec:	6b7b      	ldr	r3, [r7, #52]	; 0x34
 81063ee:	2b00      	cmp	r3, #0
 81063f0:	d109      	bne.n	8106406 <HAL_RCCEx_GetPeriphCLKFreq+0x70a>
          {
            /* In Case the CKPER Source is HSI */
            frequency = (HSI_VALUE >> (__HAL_RCC_GET_HSI_DIVIDER()>> 3));
 81063f2:	4b28      	ldr	r3, [pc, #160]	; (8106494 <HAL_RCCEx_GetPeriphCLKFreq+0x798>)
 81063f4:	681b      	ldr	r3, [r3, #0]
 81063f6:	08db      	lsrs	r3, r3, #3
 81063f8:	f003 0303 	and.w	r3, r3, #3
 81063fc:	4a26      	ldr	r2, [pc, #152]	; (8106498 <HAL_RCCEx_GetPeriphCLKFreq+0x79c>)
 81063fe:	fa22 f303 	lsr.w	r3, r2, r3
 8106402:	63fb      	str	r3, [r7, #60]	; 0x3c
 8106404:	e01e      	b.n	8106444 <HAL_RCCEx_GetPeriphCLKFreq+0x748>
          }

          else if ((HAL_IS_BIT_SET(RCC->CR, RCC_CR_CSIRDY)) && (ckpclocksource == RCC_CLKPSOURCE_CSI))
 8106406:	4b23      	ldr	r3, [pc, #140]	; (8106494 <HAL_RCCEx_GetPeriphCLKFreq+0x798>)
 8106408:	681b      	ldr	r3, [r3, #0]
 810640a:	f403 7380 	and.w	r3, r3, #256	; 0x100
 810640e:	f5b3 7f80 	cmp.w	r3, #256	; 0x100
 8106412:	d106      	bne.n	8106422 <HAL_RCCEx_GetPeriphCLKFreq+0x726>
 8106414:	6b7b      	ldr	r3, [r7, #52]	; 0x34
 8106416:	f1b3 5f80 	cmp.w	r3, #268435456	; 0x10000000
 810641a:	d102      	bne.n	8106422 <HAL_RCCEx_GetPeriphCLKFreq+0x726>
          {
            /* In Case the CKPER Source is CSI */
            frequency = CSI_VALUE;
 810641c:	4b1f      	ldr	r3, [pc, #124]	; (810649c <HAL_RCCEx_GetPeriphCLKFreq+0x7a0>)
 810641e:	63fb      	str	r3, [r7, #60]	; 0x3c
 8106420:	e010      	b.n	8106444 <HAL_RCCEx_GetPeriphCLKFreq+0x748>
          }

          else if ((HAL_IS_BIT_SET(RCC->CR, RCC_CR_HSERDY)) && (ckpclocksource == RCC_CLKPSOURCE_HSE))
 8106422:	4b1c      	ldr	r3, [pc, #112]	; (8106494 <HAL_RCCEx_GetPeriphCLKFreq+0x798>)
 8106424:	681b      	ldr	r3, [r3, #0]
 8106426:	f403 3300 	and.w	r3, r3, #131072	; 0x20000
 810642a:	f5b3 3f00 	cmp.w	r3, #131072	; 0x20000
 810642e:	d106      	bne.n	810643e <HAL_RCCEx_GetPeriphCLKFreq+0x742>
 8106430:	6b7b      	ldr	r3, [r7, #52]	; 0x34
 8106432:	f1b3 5f00 	cmp.w	r3, #536870912	; 0x20000000
 8106436:	d102      	bne.n	810643e <HAL_RCCEx_GetPeriphCLKFreq+0x742>
          {
            /* In Case the CKPER Source is HSE */
            frequency = HSE_VALUE;
 8106438:	4b19      	ldr	r3, [pc, #100]	; (81064a0 <HAL_RCCEx_GetPeriphCLKFreq+0x7a4>)
 810643a:	63fb      	str	r3, [r7, #60]	; 0x3c
 810643c:	e002      	b.n	8106444 <HAL_RCCEx_GetPeriphCLKFreq+0x748>
          }

          else
          {
            /* In Case the CKPER is disabled*/
            frequency = 0;
 810643e:	2300      	movs	r3, #0
 8106440:	63fb      	str	r3, [r7, #60]	; 0x3c
          }

          break;
 8106442:	e11f      	b.n	8106684 <HAL_RCCEx_GetPeriphCLKFreq+0x988>
 8106444:	e11e      	b.n	8106684 <HAL_RCCEx_GetPeriphCLKFreq+0x988>
        }

      default :
        {
          frequency = 0;
 8106446:	2300      	movs	r3, #0
 8106448:	63fb      	str	r3, [r7, #60]	; 0x3c
          break;
 810644a:	e11b      	b.n	8106684 <HAL_RCCEx_GetPeriphCLKFreq+0x988>
        }
      }
    }
  else if (PeriphClk == RCC_PERIPHCLK_SDMMC)
 810644c:	687b      	ldr	r3, [r7, #4]
 810644e:	f5b3 3f80 	cmp.w	r3, #65536	; 0x10000
 8106452:	d13e      	bne.n	81064d2 <HAL_RCCEx_GetPeriphCLKFreq+0x7d6>
    {
      /* Get SDMMC clock source */
      srcclk= __HAL_RCC_GET_SDMMC_SOURCE();
 8106454:	4b0f      	ldr	r3, [pc, #60]	; (8106494 <HAL_RCCEx_GetPeriphCLKFreq+0x798>)
 8106456:	6cdb      	ldr	r3, [r3, #76]	; 0x4c
 8106458:	f403 3380 	and.w	r3, r3, #65536	; 0x10000
 810645c:	63bb      	str	r3, [r7, #56]	; 0x38

      switch (srcclk)
 810645e:	6bbb      	ldr	r3, [r7, #56]	; 0x38
 8106460:	2b00      	cmp	r3, #0
 8106462:	d004      	beq.n	810646e <HAL_RCCEx_GetPeriphCLKFreq+0x772>
 8106464:	6bbb      	ldr	r3, [r7, #56]	; 0x38
 8106466:	f5b3 3f80 	cmp.w	r3, #65536	; 0x10000
 810646a:	d01d      	beq.n	81064a8 <HAL_RCCEx_GetPeriphCLKFreq+0x7ac>
 810646c:	e02e      	b.n	81064cc <HAL_RCCEx_GetPeriphCLKFreq+0x7d0>
      {
      case RCC_SDMMCCLKSOURCE_PLL: /* PLL1 is the clock source for SDMMC */
        {
         if (HAL_IS_BIT_SET(RCC->CR, RCC_CR_PLL1RDY))
 810646e:	4b09      	ldr	r3, [pc, #36]	; (8106494 <HAL_RCCEx_GetPeriphCLKFreq+0x798>)
 8106470:	681b      	ldr	r3, [r3, #0]
 8106472:	f003 7300 	and.w	r3, r3, #33554432	; 0x2000000
 8106476:	f1b3 7f00 	cmp.w	r3, #33554432	; 0x2000000
 810647a:	d107      	bne.n	810648c <HAL_RCCEx_GetPeriphCLKFreq+0x790>
         {
          HAL_RCCEx_GetPLL1ClockFreq(&pll1_clocks);
 810647c:	f107 0324 	add.w	r3, r7, #36	; 0x24
 8106480:	4618      	mov	r0, r3
 8106482:	f000 fbcb 	bl	8106c1c <HAL_RCCEx_GetPLL1ClockFreq>
          frequency = pll1_clocks.PLL1_Q_Frequency;
 8106486:	6abb      	ldr	r3, [r7, #40]	; 0x28
 8106488:	63fb      	str	r3, [r7, #60]	; 0x3c
         }
         else
         {
          frequency = 0;
         }
          break;
 810648a:	e0fb      	b.n	8106684 <HAL_RCCEx_GetPeriphCLKFreq+0x988>
          frequency = 0;
 810648c:	2300      	movs	r3, #0
 810648e:	63fb      	str	r3, [r7, #60]	; 0x3c
          break;
 8106490:	e0f8      	b.n	8106684 <HAL_RCCEx_GetPeriphCLKFreq+0x988>
 8106492:	bf00      	nop
 8106494:	58024400 	.word	0x58024400
 8106498:	03d09000 	.word	0x03d09000
 810649c:	003d0900 	.word	0x003d0900
 81064a0:	007a1200 	.word	0x007a1200
 81064a4:	00bb8000 	.word	0x00bb8000
        }
      case RCC_SDMMCCLKSOURCE_PLL2: /* PLL2 is the clock source for SDMMC */
        {
          if (HAL_IS_BIT_SET(RCC->CR, RCC_CR_PLL2RDY))
 81064a8:	4b79      	ldr	r3, [pc, #484]	; (8106690 <HAL_RCCEx_GetPeriphCLKFreq+0x994>)
 81064aa:	681b      	ldr	r3, [r3, #0]
 81064ac:	f003 6300 	and.w	r3, r3, #134217728	; 0x8000000
 81064b0:	f1b3 6f00 	cmp.w	r3, #134217728	; 0x8000000
 81064b4:	d107      	bne.n	81064c6 <HAL_RCCEx_GetPeriphCLKFreq+0x7ca>
         {
          HAL_RCCEx_GetPLL2ClockFreq(&pll2_clocks);
 81064b6:	f107 0318 	add.w	r3, r7, #24
 81064ba:	4618      	mov	r0, r3
 81064bc:	f000 f906 	bl	81066cc <HAL_RCCEx_GetPLL2ClockFreq>
          frequency = pll2_clocks.PLL2_R_Frequency;
 81064c0:	6a3b      	ldr	r3, [r7, #32]
 81064c2:	63fb      	str	r3, [r7, #60]	; 0x3c
         }
         else
         {
          frequency = 0;
         }
          break;
 81064c4:	e0de      	b.n	8106684 <HAL_RCCEx_GetPeriphCLKFreq+0x988>
          frequency = 0;
 81064c6:	2300      	movs	r3, #0
 81064c8:	63fb      	str	r3, [r7, #60]	; 0x3c
          break;
 81064ca:	e0db      	b.n	8106684 <HAL_RCCEx_GetPeriphCLKFreq+0x988>
        }

      default :
        {
          frequency = 0;
 81064cc:	2300      	movs	r3, #0
 81064ce:	63fb      	str	r3, [r7, #60]	; 0x3c
          break;
 81064d0:	e0d8      	b.n	8106684 <HAL_RCCEx_GetPeriphCLKFreq+0x988>
        }
      }
    }
  else if (PeriphClk == RCC_PERIPHCLK_SPI6)
 81064d2:	687b      	ldr	r3, [r7, #4]
 81064d4:	f5b3 4f80 	cmp.w	r3, #16384	; 0x4000
 81064d8:	f040 8085 	bne.w	81065e6 <HAL_RCCEx_GetPeriphCLKFreq+0x8ea>
    {
      /* Get SPI6 clock source */
      srcclk= __HAL_RCC_GET_SPI6_SOURCE();
 81064dc:	4b6c      	ldr	r3, [pc, #432]	; (8106690 <HAL_RCCEx_GetPeriphCLKFreq+0x994>)
 81064de:	6d9b      	ldr	r3, [r3, #88]	; 0x58
 81064e0:	f003 43e0 	and.w	r3, r3, #1879048192	; 0x70000000
 81064e4:	63bb      	str	r3, [r7, #56]	; 0x38

      switch (srcclk)
 81064e6:	6bbb      	ldr	r3, [r7, #56]	; 0x38
 81064e8:	f1b3 4fa0 	cmp.w	r3, #1342177280	; 0x50000000
 81064ec:	d06b      	beq.n	81065c6 <HAL_RCCEx_GetPeriphCLKFreq+0x8ca>
 81064ee:	6bbb      	ldr	r3, [r7, #56]	; 0x38
 81064f0:	f1b3 4fa0 	cmp.w	r3, #1342177280	; 0x50000000
 81064f4:	d874      	bhi.n	81065e0 <HAL_RCCEx_GetPeriphCLKFreq+0x8e4>
 81064f6:	6bbb      	ldr	r3, [r7, #56]	; 0x38
 81064f8:	f1b3 4f80 	cmp.w	r3, #1073741824	; 0x40000000
 81064fc:	d056      	beq.n	81065ac <HAL_RCCEx_GetPeriphCLKFreq+0x8b0>
 81064fe:	6bbb      	ldr	r3, [r7, #56]	; 0x38
 8106500:	f1b3 4f80 	cmp.w	r3, #1073741824	; 0x40000000
 8106504:	d86c      	bhi.n	81065e0 <HAL_RCCEx_GetPeriphCLKFreq+0x8e4>
 8106506:	6bbb      	ldr	r3, [r7, #56]	; 0x38
 8106508:	f1b3 5f40 	cmp.w	r3, #805306368	; 0x30000000
 810650c:	d03b      	beq.n	8106586 <HAL_RCCEx_GetPeriphCLKFreq+0x88a>
 810650e:	6bbb      	ldr	r3, [r7, #56]	; 0x38
 8106510:	f1b3 5f40 	cmp.w	r3, #805306368	; 0x30000000
 8106514:	d864      	bhi.n	81065e0 <HAL_RCCEx_GetPeriphCLKFreq+0x8e4>
 8106516:	6bbb      	ldr	r3, [r7, #56]	; 0x38
 8106518:	f1b3 5f00 	cmp.w	r3, #536870912	; 0x20000000
 810651c:	d021      	beq.n	8106562 <HAL_RCCEx_GetPeriphCLKFreq+0x866>
 810651e:	6bbb      	ldr	r3, [r7, #56]	; 0x38
 8106520:	f1b3 5f00 	cmp.w	r3, #536870912	; 0x20000000
 8106524:	d85c      	bhi.n	81065e0 <HAL_RCCEx_GetPeriphCLKFreq+0x8e4>
 8106526:	6bbb      	ldr	r3, [r7, #56]	; 0x38
 8106528:	2b00      	cmp	r3, #0
 810652a:	d004      	beq.n	8106536 <HAL_RCCEx_GetPeriphCLKFreq+0x83a>
 810652c:	6bbb      	ldr	r3, [r7, #56]	; 0x38
 810652e:	f1b3 5f80 	cmp.w	r3, #268435456	; 0x10000000
 8106532:	d004      	beq.n	810653e <HAL_RCCEx_GetPeriphCLKFreq+0x842>
 8106534:	e054      	b.n	81065e0 <HAL_RCCEx_GetPeriphCLKFreq+0x8e4>
      {
      case RCC_SPI6CLKSOURCE_D3PCLK1: /* D3PCLK1 (PCLK4) is the clock source for SPI6 */
        {
          frequency = HAL_RCCEx_GetD3PCLK1Freq();
 8106536:	f000 f8b3 	bl	81066a0 <HAL_RCCEx_GetD3PCLK1Freq>
 810653a:	63f8      	str	r0, [r7, #60]	; 0x3c
          break;
 810653c:	e0a2      	b.n	8106684 <HAL_RCCEx_GetPeriphCLKFreq+0x988>
        }
      case RCC_SPI6CLKSOURCE_PLL2: /* PLL2 is the clock source for SPI6 */
        {
         if (HAL_IS_BIT_SET(RCC->CR, RCC_CR_PLL2RDY))
 810653e:	4b54      	ldr	r3, [pc, #336]	; (8106690 <HAL_RCCEx_GetPeriphCLKFreq+0x994>)
 8106540:	681b      	ldr	r3, [r3, #0]
 8106542:	f003 6300 	and.w	r3, r3, #134217728	; 0x8000000
 8106546:	f1b3 6f00 	cmp.w	r3, #134217728	; 0x8000000
 810654a:	d107      	bne.n	810655c <HAL_RCCEx_GetPeriphCLKFreq+0x860>
         {
          HAL_RCCEx_GetPLL2ClockFreq(&pll2_clocks);
 810654c:	f107 0318 	add.w	r3, r7, #24
 8106550:	4618      	mov	r0, r3
 8106552:	f000 f8bb 	bl	81066cc <HAL_RCCEx_GetPLL2ClockFreq>
          frequency = pll2_clocks.PLL2_Q_Frequency;
 8106556:	69fb      	ldr	r3, [r7, #28]
 8106558:	63fb      	str	r3, [r7, #60]	; 0x3c
         }
         else
         {
          frequency = 0;
         }
          break;
 810655a:	e093      	b.n	8106684 <HAL_RCCEx_GetPeriphCLKFreq+0x988>
          frequency = 0;
 810655c:	2300      	movs	r3, #0
 810655e:	63fb      	str	r3, [r7, #60]	; 0x3c
          break;
 8106560:	e090      	b.n	8106684 <HAL_RCCEx_GetPeriphCLKFreq+0x988>
        }
      case RCC_SPI6CLKSOURCE_PLL3: /* PLL3 is the clock source for SPI6 */
        {
         if (HAL_IS_BIT_SET(RCC->CR, RCC_CR_PLL3RDY))
 8106562:	4b4b      	ldr	r3, [pc, #300]	; (8106690 <HAL_RCCEx_GetPeriphCLKFreq+0x994>)
 8106564:	681b      	ldr	r3, [r3, #0]
 8106566:	f003 5300 	and.w	r3, r3, #536870912	; 0x20000000
 810656a:	f1b3 5f00 	cmp.w	r3, #536870912	; 0x20000000
 810656e:	d107      	bne.n	8106580 <HAL_RCCEx_GetPeriphCLKFreq+0x884>
         {
          HAL_RCCEx_GetPLL3ClockFreq(&pll3_clocks);
 8106570:	f107 030c 	add.w	r3, r7, #12
 8106574:	4618      	mov	r0, r3
 8106576:	f000 f9fd 	bl	8106974 <HAL_RCCEx_GetPLL3ClockFreq>
          frequency = pll3_clocks.PLL3_Q_Frequency;
 810657a:	693b      	ldr	r3, [r7, #16]
 810657c:	63fb      	str	r3, [r7, #60]	; 0x3c
         }
         else
         {
          frequency = 0;
         }
          break;
 810657e:	e081      	b.n	8106684 <HAL_RCCEx_GetPeriphCLKFreq+0x988>
          frequency = 0;
 8106580:	2300      	movs	r3, #0
 8106582:	63fb      	str	r3, [r7, #60]	; 0x3c
          break;
 8106584:	e07e      	b.n	8106684 <HAL_RCCEx_GetPeriphCLKFreq+0x988>
        }
      case RCC_SPI6CLKSOURCE_HSI: /* HSI is the clock source for SPI6 */
        {
         if (HAL_IS_BIT_SET(RCC->CR, RCC_CR_HSIRDY))
 8106586:	4b42      	ldr	r3, [pc, #264]	; (8106690 <HAL_RCCEx_GetPeriphCLKFreq+0x994>)
 8106588:	681b      	ldr	r3, [r3, #0]
 810658a:	f003 0304 	and.w	r3, r3, #4
 810658e:	2b04      	cmp	r3, #4
 8106590:	d109      	bne.n	81065a6 <HAL_RCCEx_GetPeriphCLKFreq+0x8aa>
         {
          frequency = (HSI_VALUE >> (__HAL_RCC_GET_HSI_DIVIDER()>> 3));
 8106592:	4b3f      	ldr	r3, [pc, #252]	; (8106690 <HAL_RCCEx_GetPeriphCLKFreq+0x994>)
 8106594:	681b      	ldr	r3, [r3, #0]
 8106596:	08db      	lsrs	r3, r3, #3
 8106598:	f003 0303 	and.w	r3, r3, #3
 810659c:	4a3d      	ldr	r2, [pc, #244]	; (8106694 <HAL_RCCEx_GetPeriphCLKFreq+0x998>)
 810659e:	fa22 f303 	lsr.w	r3, r2, r3
 81065a2:	63fb      	str	r3, [r7, #60]	; 0x3c
         }
         else
         {
          frequency = 0;
         }
          break;
 81065a4:	e06e      	b.n	8106684 <HAL_RCCEx_GetPeriphCLKFreq+0x988>
          frequency = 0;
 81065a6:	2300      	movs	r3, #0
 81065a8:	63fb      	str	r3, [r7, #60]	; 0x3c
          break;
 81065aa:	e06b      	b.n	8106684 <HAL_RCCEx_GetPeriphCLKFreq+0x988>
        }
      case RCC_SPI6CLKSOURCE_CSI: /* CSI is the clock source for SPI6 */
        {
         if (HAL_IS_BIT_SET(RCC->CR, RCC_CR_CSIRDY))
 81065ac:	4b38      	ldr	r3, [pc, #224]	; (8106690 <HAL_RCCEx_GetPeriphCLKFreq+0x994>)
 81065ae:	681b      	ldr	r3, [r3, #0]
 81065b0:	f403 7380 	and.w	r3, r3, #256	; 0x100
 81065b4:	f5b3 7f80 	cmp.w	r3, #256	; 0x100
 81065b8:	d102      	bne.n	81065c0 <HAL_RCCEx_GetPeriphCLKFreq+0x8c4>
         {
          frequency = CSI_VALUE;
 81065ba:	4b37      	ldr	r3, [pc, #220]	; (8106698 <HAL_RCCEx_GetPeriphCLKFreq+0x99c>)
 81065bc:	63fb      	str	r3, [r7, #60]	; 0x3c
         }
         else
         {
           frequency = 0;
         }
          break;
 81065be:	e061      	b.n	8106684 <HAL_RCCEx_GetPeriphCLKFreq+0x988>
           frequency = 0;
 81065c0:	2300      	movs	r3, #0
 81065c2:	63fb      	str	r3, [r7, #60]	; 0x3c
          break;
 81065c4:	e05e      	b.n	8106684 <HAL_RCCEx_GetPeriphCLKFreq+0x988>
        }
      case RCC_SPI6CLKSOURCE_HSE: /* HSE is the clock source for SPI6 */
        {
         if (HAL_IS_BIT_SET(RCC->CR, RCC_CR_HSERDY))
 81065c6:	4b32      	ldr	r3, [pc, #200]	; (8106690 <HAL_RCCEx_GetPeriphCLKFreq+0x994>)
 81065c8:	681b      	ldr	r3, [r3, #0]
 81065ca:	f403 3300 	and.w	r3, r3, #131072	; 0x20000
 81065ce:	f5b3 3f00 	cmp.w	r3, #131072	; 0x20000
 81065d2:	d102      	bne.n	81065da <HAL_RCCEx_GetPeriphCLKFreq+0x8de>
         {
          frequency = HSE_VALUE;
 81065d4:	4b31      	ldr	r3, [pc, #196]	; (810669c <HAL_RCCEx_GetPeriphCLKFreq+0x9a0>)
 81065d6:	63fb      	str	r3, [r7, #60]	; 0x3c
         }
         else
         {
          frequency = 0;
         }
          break;
 81065d8:	e054      	b.n	8106684 <HAL_RCCEx_GetPeriphCLKFreq+0x988>
          frequency = 0;
 81065da:	2300      	movs	r3, #0
 81065dc:	63fb      	str	r3, [r7, #60]	; 0x3c
          break;
 81065de:	e051      	b.n	8106684 <HAL_RCCEx_GetPeriphCLKFreq+0x988>
          break;
        }
#endif /* RCC_SPI6CLKSOURCE_PIN */
      default :
        {
          frequency = 0;
 81065e0:	2300      	movs	r3, #0
 81065e2:	63fb      	str	r3, [r7, #60]	; 0x3c
          break;
 81065e4:	e04e      	b.n	8106684 <HAL_RCCEx_GetPeriphCLKFreq+0x988>
        }
      }
    }
  else if (PeriphClk == RCC_PERIPHCLK_FDCAN)
 81065e6:	687b      	ldr	r3, [r7, #4]
 81065e8:	f5b3 4f00 	cmp.w	r3, #32768	; 0x8000
 81065ec:	d148      	bne.n	8106680 <HAL_RCCEx_GetPeriphCLKFreq+0x984>
    {
      /* Get FDCAN clock source */
      srcclk= __HAL_RCC_GET_FDCAN_SOURCE();
 81065ee:	4b28      	ldr	r3, [pc, #160]	; (8106690 <HAL_RCCEx_GetPeriphCLKFreq+0x994>)
 81065f0:	6d1b      	ldr	r3, [r3, #80]	; 0x50
 81065f2:	f003 5340 	and.w	r3, r3, #805306368	; 0x30000000
 81065f6:	63bb      	str	r3, [r7, #56]	; 0x38

      switch (srcclk)
 81065f8:	6bbb      	ldr	r3, [r7, #56]	; 0x38
 81065fa:	f1b3 5f00 	cmp.w	r3, #536870912	; 0x20000000
 81065fe:	d02a      	beq.n	8106656 <HAL_RCCEx_GetPeriphCLKFreq+0x95a>
 8106600:	6bbb      	ldr	r3, [r7, #56]	; 0x38
 8106602:	f1b3 5f00 	cmp.w	r3, #536870912	; 0x20000000
 8106606:	d838      	bhi.n	810667a <HAL_RCCEx_GetPeriphCLKFreq+0x97e>
 8106608:	6bbb      	ldr	r3, [r7, #56]	; 0x38
 810660a:	2b00      	cmp	r3, #0
 810660c:	d004      	beq.n	8106618 <HAL_RCCEx_GetPeriphCLKFreq+0x91c>
 810660e:	6bbb      	ldr	r3, [r7, #56]	; 0x38
 8106610:	f1b3 5f80 	cmp.w	r3, #268435456	; 0x10000000
 8106614:	d00d      	beq.n	8106632 <HAL_RCCEx_GetPeriphCLKFreq+0x936>
 8106616:	e030      	b.n	810667a <HAL_RCCEx_GetPeriphCLKFreq+0x97e>
      {
      case RCC_FDCANCLKSOURCE_HSE: /* HSE is the clock source for FDCAN */
        {
         if (HAL_IS_BIT_SET(RCC->CR, RCC_CR_HSERDY))
 8106618:	4b1d      	ldr	r3, [pc, #116]	; (8106690 <HAL_RCCEx_GetPeriphCLKFreq+0x994>)
 810661a:	681b      	ldr	r3, [r3, #0]
 810661c:	f403 3300 	and.w	r3, r3, #131072	; 0x20000
 8106620:	f5b3 3f00 	cmp.w	r3, #131072	; 0x20000
 8106624:	d102      	bne.n	810662c <HAL_RCCEx_GetPeriphCLKFreq+0x930>
         {
          frequency = HSE_VALUE;
 8106626:	4b1d      	ldr	r3, [pc, #116]	; (810669c <HAL_RCCEx_GetPeriphCLKFreq+0x9a0>)
 8106628:	63fb      	str	r3, [r7, #60]	; 0x3c
         }
         else
         {
          frequency = 0;
         }
          break;
 810662a:	e02b      	b.n	8106684 <HAL_RCCEx_GetPeriphCLKFreq+0x988>
          frequency = 0;
 810662c:	2300      	movs	r3, #0
 810662e:	63fb      	str	r3, [r7, #60]	; 0x3c
          break;
 8106630:	e028      	b.n	8106684 <HAL_RCCEx_GetPeriphCLKFreq+0x988>
        }
      case RCC_FDCANCLKSOURCE_PLL: /* PLL is the clock source for FDCAN */
        {
         if (HAL_IS_BIT_SET(RCC->CR, RCC_CR_PLL1RDY))
 8106632:	4b17      	ldr	r3, [pc, #92]	; (8106690 <HAL_RCCEx_GetPeriphCLKFreq+0x994>)
 8106634:	681b      	ldr	r3, [r3, #0]
 8106636:	f003 7300 	and.w	r3, r3, #33554432	; 0x2000000
 810663a:	f1b3 7f00 	cmp.w	r3, #33554432	; 0x2000000
 810663e:	d107      	bne.n	8106650 <HAL_RCCEx_GetPeriphCLKFreq+0x954>
         {
          HAL_RCCEx_GetPLL1ClockFreq(&pll1_clocks);
 8106640:	f107 0324 	add.w	r3, r7, #36	; 0x24
 8106644:	4618      	mov	r0, r3
 8106646:	f000 fae9 	bl	8106c1c <HAL_RCCEx_GetPLL1ClockFreq>
          frequency = pll1_clocks.PLL1_Q_Frequency;
 810664a:	6abb      	ldr	r3, [r7, #40]	; 0x28
 810664c:	63fb      	str	r3, [r7, #60]	; 0x3c
         }
         else
         {
          frequency = 0;
         }
          break;
 810664e:	e019      	b.n	8106684 <HAL_RCCEx_GetPeriphCLKFreq+0x988>
          frequency = 0;
 8106650:	2300      	movs	r3, #0
 8106652:	63fb      	str	r3, [r7, #60]	; 0x3c
          break;
 8106654:	e016      	b.n	8106684 <HAL_RCCEx_GetPeriphCLKFreq+0x988>
        }
      case RCC_FDCANCLKSOURCE_PLL2: /* PLL2 is the clock source for FDCAN */
        {
         if (HAL_IS_BIT_SET(RCC->CR, RCC_CR_PLL2RDY))
 8106656:	4b0e      	ldr	r3, [pc, #56]	; (8106690 <HAL_RCCEx_GetPeriphCLKFreq+0x994>)
 8106658:	681b      	ldr	r3, [r3, #0]
 810665a:	f003 6300 	and.w	r3, r3, #134217728	; 0x8000000
 810665e:	f1b3 6f00 	cmp.w	r3, #134217728	; 0x8000000
 8106662:	d107      	bne.n	8106674 <HAL_RCCEx_GetPeriphCLKFreq+0x978>
         {
          HAL_RCCEx_GetPLL2ClockFreq(&pll2_clocks);
 8106664:	f107 0318 	add.w	r3, r7, #24
 8106668:	4618      	mov	r0, r3
 810666a:	f000 f82f 	bl	81066cc <HAL_RCCEx_GetPLL2ClockFreq>
          frequency = pll2_clocks.PLL2_Q_Frequency;
 810666e:	69fb      	ldr	r3, [r7, #28]
 8106670:	63fb      	str	r3, [r7, #60]	; 0x3c
         }
         else
         {
          frequency = 0;
         }
          break;
 8106672:	e007      	b.n	8106684 <HAL_RCCEx_GetPeriphCLKFreq+0x988>
          frequency = 0;
 8106674:	2300      	movs	r3, #0
 8106676:	63fb      	str	r3, [r7, #60]	; 0x3c
          break;
 8106678:	e004      	b.n	8106684 <HAL_RCCEx_GetPeriphCLKFreq+0x988>
        }
      default :
        {
          frequency = 0;
 810667a:	2300      	movs	r3, #0
 810667c:	63fb      	str	r3, [r7, #60]	; 0x3c
          break;
 810667e:	e001      	b.n	8106684 <HAL_RCCEx_GetPeriphCLKFreq+0x988>
        }
      }
    }
  else
    {
      frequency = 0;
 8106680:	2300      	movs	r3, #0
 8106682:	63fb      	str	r3, [r7, #60]	; 0x3c
    }

  return frequency;
 8106684:	6bfb      	ldr	r3, [r7, #60]	; 0x3c
}
 8106686:	4618      	mov	r0, r3
 8106688:	3740      	adds	r7, #64	; 0x40
 810668a:	46bd      	mov	sp, r7
 810668c:	bd80      	pop	{r7, pc}
 810668e:	bf00      	nop
 8106690:	58024400 	.word	0x58024400
 8106694:	03d09000 	.word	0x03d09000
 8106698:	003d0900 	.word	0x003d0900
 810669c:	007a1200 	.word	0x007a1200

081066a0 <HAL_RCCEx_GetD3PCLK1Freq>:
  * @note   Each time D3PCLK1 changes, this function must be called to update the
  *         right D3PCLK1 value. Otherwise, any configuration based on this function will be incorrect.
  * @retval D3PCLK1 frequency
  */
uint32_t HAL_RCCEx_GetD3PCLK1Freq(void)
{
 81066a0:	b580      	push	{r7, lr}
 81066a2:	af00      	add	r7, sp, #0
#if defined(RCC_D3CFGR_D3PPRE)
  /* Get HCLK source and Compute D3PCLK1 frequency ---------------------------*/
  return (HAL_RCC_GetHCLKFreq() >> (D1CorePrescTable[(RCC->D3CFGR & RCC_D3CFGR_D3PPRE)>> RCC_D3CFGR_D3PPRE_Pos] & 0x1FU));
 81066a4:	f7fe fb86 	bl	8104db4 <HAL_RCC_GetHCLKFreq>
 81066a8:	4602      	mov	r2, r0
 81066aa:	4b06      	ldr	r3, [pc, #24]	; (81066c4 <HAL_RCCEx_GetD3PCLK1Freq+0x24>)
 81066ac:	6a1b      	ldr	r3, [r3, #32]
 81066ae:	091b      	lsrs	r3, r3, #4
 81066b0:	f003 0307 	and.w	r3, r3, #7
 81066b4:	4904      	ldr	r1, [pc, #16]	; (81066c8 <HAL_RCCEx_GetD3PCLK1Freq+0x28>)
 81066b6:	5ccb      	ldrb	r3, [r1, r3]
 81066b8:	f003 031f 	and.w	r3, r3, #31
 81066bc:	fa22 f303 	lsr.w	r3, r2, r3
#else
  /* Get HCLK source and Compute D3PCLK1 frequency ---------------------------*/
  return (HAL_RCC_GetHCLKFreq() >> (D1CorePrescTable[(RCC->SRDCFGR & RCC_SRDCFGR_SRDPPRE)>> RCC_SRDCFGR_SRDPPRE_Pos] & 0x1FU));
#endif
}
 81066c0:	4618      	mov	r0, r3
 81066c2:	bd80      	pop	{r7, pc}
 81066c4:	58024400 	.word	0x58024400
 81066c8:	08109db8 	.word	0x08109db8

081066cc <HAL_RCCEx_GetPLL2ClockFreq>:
  *         right PLL2CLK value. Otherwise, any configuration based on this function will be incorrect.
  * @param  PLL2_Clocks structure.
  * @retval None
  */
void HAL_RCCEx_GetPLL2ClockFreq(PLL2_ClocksTypeDef* PLL2_Clocks)
{
 81066cc:	b480      	push	{r7}
 81066ce:	b089      	sub	sp, #36	; 0x24
 81066d0:	af00      	add	r7, sp, #0
 81066d2:	6078      	str	r0, [r7, #4]
  float_t fracn2, pll2vco;

  /* PLL_VCO = (HSE_VALUE or HSI_VALUE or CSI_VALUE/ PLL2M) * PLL2N
     PLL2xCLK = PLL2_VCO / PLL2x
  */
  pllsource = (RCC->PLLCKSELR & RCC_PLLCKSELR_PLLSRC);
 81066d4:	4ba1      	ldr	r3, [pc, #644]	; (810695c <HAL_RCCEx_GetPLL2ClockFreq+0x290>)
 81066d6:	6a9b      	ldr	r3, [r3, #40]	; 0x28
 81066d8:	f003 0303 	and.w	r3, r3, #3
 81066dc:	61bb      	str	r3, [r7, #24]
  pll2m = ((RCC->PLLCKSELR & RCC_PLLCKSELR_DIVM2)>> 12);
 81066de:	4b9f      	ldr	r3, [pc, #636]	; (810695c <HAL_RCCEx_GetPLL2ClockFreq+0x290>)
 81066e0:	6a9b      	ldr	r3, [r3, #40]	; 0x28
 81066e2:	0b1b      	lsrs	r3, r3, #12
 81066e4:	f003 033f 	and.w	r3, r3, #63	; 0x3f
 81066e8:	617b      	str	r3, [r7, #20]
  pll2fracen = (RCC->PLLCFGR & RCC_PLLCFGR_PLL2FRACEN) >> RCC_PLLCFGR_PLL2FRACEN_Pos;
 81066ea:	4b9c      	ldr	r3, [pc, #624]	; (810695c <HAL_RCCEx_GetPLL2ClockFreq+0x290>)
 81066ec:	6adb      	ldr	r3, [r3, #44]	; 0x2c
 81066ee:	091b      	lsrs	r3, r3, #4
 81066f0:	f003 0301 	and.w	r3, r3, #1
 81066f4:	613b      	str	r3, [r7, #16]
  fracn2 =(float_t)(uint32_t)(pll2fracen* ((RCC->PLL2FRACR & RCC_PLL2FRACR_FRACN2)>> 3));
 81066f6:	4b99      	ldr	r3, [pc, #612]	; (810695c <HAL_RCCEx_GetPLL2ClockFreq+0x290>)
 81066f8:	6bdb      	ldr	r3, [r3, #60]	; 0x3c
 81066fa:	08db      	lsrs	r3, r3, #3
 81066fc:	f3c3 030c 	ubfx	r3, r3, #0, #13
 8106700:	693a      	ldr	r2, [r7, #16]
 8106702:	fb02 f303 	mul.w	r3, r2, r3
 8106706:	ee07 3a90 	vmov	s15, r3
 810670a:	eef8 7a67 	vcvt.f32.u32	s15, s15
 810670e:	edc7 7a03 	vstr	s15, [r7, #12]

  if (pll2m != 0U)
 8106712:	697b      	ldr	r3, [r7, #20]
 8106714:	2b00      	cmp	r3, #0
 8106716:	f000 8111 	beq.w	810693c <HAL_RCCEx_GetPLL2ClockFreq+0x270>
  {
    switch (pllsource)
 810671a:	69bb      	ldr	r3, [r7, #24]
 810671c:	2b02      	cmp	r3, #2
 810671e:	f000 8083 	beq.w	8106828 <HAL_RCCEx_GetPLL2ClockFreq+0x15c>
 8106722:	69bb      	ldr	r3, [r7, #24]
 8106724:	2b02      	cmp	r3, #2
 8106726:	f200 80a1 	bhi.w	810686c <HAL_RCCEx_GetPLL2ClockFreq+0x1a0>
 810672a:	69bb      	ldr	r3, [r7, #24]
 810672c:	2b00      	cmp	r3, #0
 810672e:	d003      	beq.n	8106738 <HAL_RCCEx_GetPLL2ClockFreq+0x6c>
 8106730:	69bb      	ldr	r3, [r7, #24]
 8106732:	2b01      	cmp	r3, #1
 8106734:	d056      	beq.n	81067e4 <HAL_RCCEx_GetPLL2ClockFreq+0x118>
 8106736:	e099      	b.n	810686c <HAL_RCCEx_GetPLL2ClockFreq+0x1a0>
    {

    case RCC_PLLSOURCE_HSI:  /* HSI used as PLL clock source */

      if (__HAL_RCC_GET_FLAG(RCC_FLAG_HSIDIV) != 0U)
 8106738:	4b88      	ldr	r3, [pc, #544]	; (810695c <HAL_RCCEx_GetPLL2ClockFreq+0x290>)
 810673a:	681b      	ldr	r3, [r3, #0]
 810673c:	f003 0320 	and.w	r3, r3, #32
 8106740:	2b00      	cmp	r3, #0
 8106742:	d02d      	beq.n	81067a0 <HAL_RCCEx_GetPLL2ClockFreq+0xd4>
      {
        hsivalue = (HSI_VALUE >> (__HAL_RCC_GET_HSI_DIVIDER()>> 3));
 8106744:	4b85      	ldr	r3, [pc, #532]	; (810695c <HAL_RCCEx_GetPLL2ClockFreq+0x290>)
 8106746:	681b      	ldr	r3, [r3, #0]
 8106748:	08db      	lsrs	r3, r3, #3
 810674a:	f003 0303 	and.w	r3, r3, #3
 810674e:	4a84      	ldr	r2, [pc, #528]	; (8106960 <HAL_RCCEx_GetPLL2ClockFreq+0x294>)
 8106750:	fa22 f303 	lsr.w	r3, r2, r3
 8106754:	60bb      	str	r3, [r7, #8]
        pll2vco = ( (float_t)hsivalue / (float_t)pll2m) * ((float_t)(uint32_t)(RCC->PLL2DIVR & RCC_PLL2DIVR_N2) + (fracn2/(float_t)0x2000) +(float_t)1 );
 8106756:	68bb      	ldr	r3, [r7, #8]
 8106758:	ee07 3a90 	vmov	s15, r3
 810675c:	eef8 6a67 	vcvt.f32.u32	s13, s15
 8106760:	697b      	ldr	r3, [r7, #20]
 8106762:	ee07 3a90 	vmov	s15, r3
 8106766:	eef8 7a67 	vcvt.f32.u32	s15, s15
 810676a:	ee86 7aa7 	vdiv.f32	s14, s13, s15
 810676e:	4b7b      	ldr	r3, [pc, #492]	; (810695c <HAL_RCCEx_GetPLL2ClockFreq+0x290>)
 8106770:	6b9b      	ldr	r3, [r3, #56]	; 0x38
 8106772:	f3c3 0308 	ubfx	r3, r3, #0, #9
 8106776:	ee07 3a90 	vmov	s15, r3
 810677a:	eef8 6a67 	vcvt.f32.u32	s13, s15
 810677e:	ed97 6a03 	vldr	s12, [r7, #12]
 8106782:	eddf 5a78 	vldr	s11, [pc, #480]	; 8106964 <HAL_RCCEx_GetPLL2ClockFreq+0x298>
 8106786:	eec6 7a25 	vdiv.f32	s15, s12, s11
 810678a:	ee76 7aa7 	vadd.f32	s15, s13, s15
 810678e:	eef7 6a00 	vmov.f32	s13, #112	; 0x3f800000  1.0
 8106792:	ee77 7aa6 	vadd.f32	s15, s15, s13
 8106796:	ee67 7a27 	vmul.f32	s15, s14, s15
 810679a:	edc7 7a07 	vstr	s15, [r7, #28]
      }
      else
      {
        pll2vco = ((float_t)HSI_VALUE / (float_t)pll2m) * ((float_t)(uint32_t)(RCC->PLL2DIVR & RCC_PLL2DIVR_N2) + (fracn2/(float_t)0x2000) +(float_t)1 );
      }
      break;
 810679e:	e087      	b.n	81068b0 <HAL_RCCEx_GetPLL2ClockFreq+0x1e4>
        pll2vco = ((float_t)HSI_VALUE / (float_t)pll2m) * ((float_t)(uint32_t)(RCC->PLL2DIVR & RCC_PLL2DIVR_N2) + (fracn2/(float_t)0x2000) +(float_t)1 );
 81067a0:	697b      	ldr	r3, [r7, #20]
 81067a2:	ee07 3a90 	vmov	s15, r3
 81067a6:	eef8 7a67 	vcvt.f32.u32	s15, s15
 81067aa:	eddf 6a6f 	vldr	s13, [pc, #444]	; 8106968 <HAL_RCCEx_GetPLL2ClockFreq+0x29c>
 81067ae:	ee86 7aa7 	vdiv.f32	s14, s13, s15
 81067b2:	4b6a      	ldr	r3, [pc, #424]	; (810695c <HAL_RCCEx_GetPLL2ClockFreq+0x290>)
 81067b4:	6b9b      	ldr	r3, [r3, #56]	; 0x38
 81067b6:	f3c3 0308 	ubfx	r3, r3, #0, #9
 81067ba:	ee07 3a90 	vmov	s15, r3
 81067be:	eef8 6a67 	vcvt.f32.u32	s13, s15
 81067c2:	ed97 6a03 	vldr	s12, [r7, #12]
 81067c6:	eddf 5a67 	vldr	s11, [pc, #412]	; 8106964 <HAL_RCCEx_GetPLL2ClockFreq+0x298>
 81067ca:	eec6 7a25 	vdiv.f32	s15, s12, s11
 81067ce:	ee76 7aa7 	vadd.f32	s15, s13, s15
 81067d2:	eef7 6a00 	vmov.f32	s13, #112	; 0x3f800000  1.0
 81067d6:	ee77 7aa6 	vadd.f32	s15, s15, s13
 81067da:	ee67 7a27 	vmul.f32	s15, s14, s15
 81067de:	edc7 7a07 	vstr	s15, [r7, #28]
      break;
 81067e2:	e065      	b.n	81068b0 <HAL_RCCEx_GetPLL2ClockFreq+0x1e4>

    case RCC_PLLSOURCE_CSI:  /* CSI used as PLL clock source */
      pll2vco = ((float_t)CSI_VALUE / (float_t)pll2m) * ((float_t)(uint32_t)(RCC->PLL2DIVR & RCC_PLL2DIVR_N2) + (fracn2/(float_t)0x2000) +(float_t)1 );
 81067e4:	697b      	ldr	r3, [r7, #20]
 81067e6:	ee07 3a90 	vmov	s15, r3
 81067ea:	eef8 7a67 	vcvt.f32.u32	s15, s15
 81067ee:	eddf 6a5f 	vldr	s13, [pc, #380]	; 810696c <HAL_RCCEx_GetPLL2ClockFreq+0x2a0>
 81067f2:	ee86 7aa7 	vdiv.f32	s14, s13, s15
 81067f6:	4b59      	ldr	r3, [pc, #356]	; (810695c <HAL_RCCEx_GetPLL2ClockFreq+0x290>)
 81067f8:	6b9b      	ldr	r3, [r3, #56]	; 0x38
 81067fa:	f3c3 0308 	ubfx	r3, r3, #0, #9
 81067fe:	ee07 3a90 	vmov	s15, r3
 8106802:	eef8 6a67 	vcvt.f32.u32	s13, s15
 8106806:	ed97 6a03 	vldr	s12, [r7, #12]
 810680a:	eddf 5a56 	vldr	s11, [pc, #344]	; 8106964 <HAL_RCCEx_GetPLL2ClockFreq+0x298>
 810680e:	eec6 7a25 	vdiv.f32	s15, s12, s11
 8106812:	ee76 7aa7 	vadd.f32	s15, s13, s15
 8106816:	eef7 6a00 	vmov.f32	s13, #112	; 0x3f800000  1.0
 810681a:	ee77 7aa6 	vadd.f32	s15, s15, s13
 810681e:	ee67 7a27 	vmul.f32	s15, s14, s15
 8106822:	edc7 7a07 	vstr	s15, [r7, #28]
      break;
 8106826:	e043      	b.n	81068b0 <HAL_RCCEx_GetPLL2ClockFreq+0x1e4>

    case RCC_PLLSOURCE_HSE:  /* HSE used as PLL clock source */
      pll2vco = ((float_t)HSE_VALUE / (float_t)pll2m) * ((float_t)(uint32_t)(RCC->PLL2DIVR & RCC_PLL2DIVR_N2) + (fracn2/(float_t)0x2000) +(float_t)1 );
 8106828:	697b      	ldr	r3, [r7, #20]
 810682a:	ee07 3a90 	vmov	s15, r3
 810682e:	eef8 7a67 	vcvt.f32.u32	s15, s15
 8106832:	eddf 6a4f 	vldr	s13, [pc, #316]	; 8106970 <HAL_RCCEx_GetPLL2ClockFreq+0x2a4>
 8106836:	ee86 7aa7 	vdiv.f32	s14, s13, s15
 810683a:	4b48      	ldr	r3, [pc, #288]	; (810695c <HAL_RCCEx_GetPLL2ClockFreq+0x290>)
 810683c:	6b9b      	ldr	r3, [r3, #56]	; 0x38
 810683e:	f3c3 0308 	ubfx	r3, r3, #0, #9
 8106842:	ee07 3a90 	vmov	s15, r3
 8106846:	eef8 6a67 	vcvt.f32.u32	s13, s15
 810684a:	ed97 6a03 	vldr	s12, [r7, #12]
 810684e:	eddf 5a45 	vldr	s11, [pc, #276]	; 8106964 <HAL_RCCEx_GetPLL2ClockFreq+0x298>
 8106852:	eec6 7a25 	vdiv.f32	s15, s12, s11
 8106856:	ee76 7aa7 	vadd.f32	s15, s13, s15
 810685a:	eef7 6a00 	vmov.f32	s13, #112	; 0x3f800000  1.0
 810685e:	ee77 7aa6 	vadd.f32	s15, s15, s13
 8106862:	ee67 7a27 	vmul.f32	s15, s14, s15
 8106866:	edc7 7a07 	vstr	s15, [r7, #28]
      break;
 810686a:	e021      	b.n	81068b0 <HAL_RCCEx_GetPLL2ClockFreq+0x1e4>

    default:
      pll2vco = ((float_t)CSI_VALUE / (float_t)pll2m) * ((float_t)(uint32_t)(RCC->PLL2DIVR & RCC_PLL2DIVR_N2) + (fracn2/(float_t)0x2000) +(float_t)1 );
 810686c:	697b      	ldr	r3, [r7, #20]
 810686e:	ee07 3a90 	vmov	s15, r3
 8106872:	eef8 7a67 	vcvt.f32.u32	s15, s15
 8106876:	eddf 6a3d 	vldr	s13, [pc, #244]	; 810696c <HAL_RCCEx_GetPLL2ClockFreq+0x2a0>
 810687a:	ee86 7aa7 	vdiv.f32	s14, s13, s15
 810687e:	4b37      	ldr	r3, [pc, #220]	; (810695c <HAL_RCCEx_GetPLL2ClockFreq+0x290>)
 8106880:	6b9b      	ldr	r3, [r3, #56]	; 0x38
 8106882:	f3c3 0308 	ubfx	r3, r3, #0, #9
 8106886:	ee07 3a90 	vmov	s15, r3
 810688a:	eef8 6a67 	vcvt.f32.u32	s13, s15
 810688e:	ed97 6a03 	vldr	s12, [r7, #12]
 8106892:	eddf 5a34 	vldr	s11, [pc, #208]	; 8106964 <HAL_RCCEx_GetPLL2ClockFreq+0x298>
 8106896:	eec6 7a25 	vdiv.f32	s15, s12, s11
 810689a:	ee76 7aa7 	vadd.f32	s15, s13, s15
 810689e:	eef7 6a00 	vmov.f32	s13, #112	; 0x3f800000  1.0
 81068a2:	ee77 7aa6 	vadd.f32	s15, s15, s13
 81068a6:	ee67 7a27 	vmul.f32	s15, s14, s15
 81068aa:	edc7 7a07 	vstr	s15, [r7, #28]
      break;
 81068ae:	bf00      	nop
    }
    PLL2_Clocks->PLL2_P_Frequency = (uint32_t)(float_t)(pll2vco/((float_t)(uint32_t)((RCC->PLL2DIVR & RCC_PLL2DIVR_P2) >>9)  + (float_t)1 )) ;
 81068b0:	4b2a      	ldr	r3, [pc, #168]	; (810695c <HAL_RCCEx_GetPLL2ClockFreq+0x290>)
 81068b2:	6b9b      	ldr	r3, [r3, #56]	; 0x38
 81068b4:	0a5b      	lsrs	r3, r3, #9
 81068b6:	f003 037f 	and.w	r3, r3, #127	; 0x7f
 81068ba:	ee07 3a90 	vmov	s15, r3
 81068be:	eef8 7a67 	vcvt.f32.u32	s15, s15
 81068c2:	eeb7 7a00 	vmov.f32	s14, #112	; 0x3f800000  1.0
 81068c6:	ee37 7a87 	vadd.f32	s14, s15, s14
 81068ca:	edd7 6a07 	vldr	s13, [r7, #28]
 81068ce:	eec6 7a87 	vdiv.f32	s15, s13, s14
 81068d2:	eefc 7ae7 	vcvt.u32.f32	s15, s15
 81068d6:	ee17 2a90 	vmov	r2, s15
 81068da:	687b      	ldr	r3, [r7, #4]
 81068dc:	601a      	str	r2, [r3, #0]
    PLL2_Clocks->PLL2_Q_Frequency = (uint32_t)(float_t)(pll2vco/((float_t)(uint32_t)((RCC->PLL2DIVR & RCC_PLL2DIVR_Q2) >>16) + (float_t)1 )) ;
 81068de:	4b1f      	ldr	r3, [pc, #124]	; (810695c <HAL_RCCEx_GetPLL2ClockFreq+0x290>)
 81068e0:	6b9b      	ldr	r3, [r3, #56]	; 0x38
 81068e2:	0c1b      	lsrs	r3, r3, #16
 81068e4:	f003 037f 	and.w	r3, r3, #127	; 0x7f
 81068e8:	ee07 3a90 	vmov	s15, r3
 81068ec:	eef8 7a67 	vcvt.f32.u32	s15, s15
 81068f0:	eeb7 7a00 	vmov.f32	s14, #112	; 0x3f800000  1.0
 81068f4:	ee37 7a87 	vadd.f32	s14, s15, s14
 81068f8:	edd7 6a07 	vldr	s13, [r7, #28]
 81068fc:	eec6 7a87 	vdiv.f32	s15, s13, s14
 8106900:	eefc 7ae7 	vcvt.u32.f32	s15, s15
 8106904:	ee17 2a90 	vmov	r2, s15
 8106908:	687b      	ldr	r3, [r7, #4]
 810690a:	605a      	str	r2, [r3, #4]
    PLL2_Clocks->PLL2_R_Frequency = (uint32_t)(float_t)(pll2vco/((float_t)(uint32_t)((RCC->PLL2DIVR & RCC_PLL2DIVR_R2) >>24) + (float_t)1 )) ;
 810690c:	4b13      	ldr	r3, [pc, #76]	; (810695c <HAL_RCCEx_GetPLL2ClockFreq+0x290>)
 810690e:	6b9b      	ldr	r3, [r3, #56]	; 0x38
 8106910:	0e1b      	lsrs	r3, r3, #24
 8106912:	f003 037f 	and.w	r3, r3, #127	; 0x7f
 8106916:	ee07 3a90 	vmov	s15, r3
 810691a:	eef8 7a67 	vcvt.f32.u32	s15, s15
 810691e:	eeb7 7a00 	vmov.f32	s14, #112	; 0x3f800000  1.0
 8106922:	ee37 7a87 	vadd.f32	s14, s15, s14
 8106926:	edd7 6a07 	vldr	s13, [r7, #28]
 810692a:	eec6 7a87 	vdiv.f32	s15, s13, s14
 810692e:	eefc 7ae7 	vcvt.u32.f32	s15, s15
 8106932:	ee17 2a90 	vmov	r2, s15
 8106936:	687b      	ldr	r3, [r7, #4]
 8106938:	609a      	str	r2, [r3, #8]
  {
    PLL2_Clocks->PLL2_P_Frequency = 0U;
    PLL2_Clocks->PLL2_Q_Frequency = 0U;
    PLL2_Clocks->PLL2_R_Frequency = 0U;
  }
}
 810693a:	e008      	b.n	810694e <HAL_RCCEx_GetPLL2ClockFreq+0x282>
    PLL2_Clocks->PLL2_P_Frequency = 0U;
 810693c:	687b      	ldr	r3, [r7, #4]
 810693e:	2200      	movs	r2, #0
 8106940:	601a      	str	r2, [r3, #0]
    PLL2_Clocks->PLL2_Q_Frequency = 0U;
 8106942:	687b      	ldr	r3, [r7, #4]
 8106944:	2200      	movs	r2, #0
 8106946:	605a      	str	r2, [r3, #4]
    PLL2_Clocks->PLL2_R_Frequency = 0U;
 8106948:	687b      	ldr	r3, [r7, #4]
 810694a:	2200      	movs	r2, #0
 810694c:	609a      	str	r2, [r3, #8]
}
 810694e:	bf00      	nop
 8106950:	3724      	adds	r7, #36	; 0x24
 8106952:	46bd      	mov	sp, r7
 8106954:	f85d 7b04 	ldr.w	r7, [sp], #4
 8106958:	4770      	bx	lr
 810695a:	bf00      	nop
 810695c:	58024400 	.word	0x58024400
 8106960:	03d09000 	.word	0x03d09000
 8106964:	46000000 	.word	0x46000000
 8106968:	4c742400 	.word	0x4c742400
 810696c:	4a742400 	.word	0x4a742400
 8106970:	4af42400 	.word	0x4af42400

08106974 <HAL_RCCEx_GetPLL3ClockFreq>:
  *         right PLL3CLK value. Otherwise, any configuration based on this function will be incorrect.
  * @param  PLL3_Clocks structure.
  * @retval None
  */
void HAL_RCCEx_GetPLL3ClockFreq(PLL3_ClocksTypeDef* PLL3_Clocks)
{
 8106974:	b480      	push	{r7}
 8106976:	b089      	sub	sp, #36	; 0x24
 8106978:	af00      	add	r7, sp, #0
 810697a:	6078      	str	r0, [r7, #4]
  float_t fracn3, pll3vco;

  /* PLL3_VCO = (HSE_VALUE or HSI_VALUE or CSI_VALUE/ PLL3M) * PLL3N
     PLL3xCLK = PLL3_VCO / PLLxR
  */
  pllsource = (RCC->PLLCKSELR & RCC_PLLCKSELR_PLLSRC);
 810697c:	4ba1      	ldr	r3, [pc, #644]	; (8106c04 <HAL_RCCEx_GetPLL3ClockFreq+0x290>)
 810697e:	6a9b      	ldr	r3, [r3, #40]	; 0x28
 8106980:	f003 0303 	and.w	r3, r3, #3
 8106984:	61bb      	str	r3, [r7, #24]
  pll3m = ((RCC->PLLCKSELR & RCC_PLLCKSELR_DIVM3)>> 20)  ;
 8106986:	4b9f      	ldr	r3, [pc, #636]	; (8106c04 <HAL_RCCEx_GetPLL3ClockFreq+0x290>)
 8106988:	6a9b      	ldr	r3, [r3, #40]	; 0x28
 810698a:	0d1b      	lsrs	r3, r3, #20
 810698c:	f003 033f 	and.w	r3, r3, #63	; 0x3f
 8106990:	617b      	str	r3, [r7, #20]
  pll3fracen = (RCC->PLLCFGR & RCC_PLLCFGR_PLL3FRACEN) >> RCC_PLLCFGR_PLL3FRACEN_Pos;
 8106992:	4b9c      	ldr	r3, [pc, #624]	; (8106c04 <HAL_RCCEx_GetPLL3ClockFreq+0x290>)
 8106994:	6adb      	ldr	r3, [r3, #44]	; 0x2c
 8106996:	0a1b      	lsrs	r3, r3, #8
 8106998:	f003 0301 	and.w	r3, r3, #1
 810699c:	613b      	str	r3, [r7, #16]
  fracn3 = (float_t)(uint32_t)(pll3fracen* ((RCC->PLL3FRACR & RCC_PLL3FRACR_FRACN3)>> 3));
 810699e:	4b99      	ldr	r3, [pc, #612]	; (8106c04 <HAL_RCCEx_GetPLL3ClockFreq+0x290>)
 81069a0:	6c5b      	ldr	r3, [r3, #68]	; 0x44
 81069a2:	08db      	lsrs	r3, r3, #3
 81069a4:	f3c3 030c 	ubfx	r3, r3, #0, #13
 81069a8:	693a      	ldr	r2, [r7, #16]
 81069aa:	fb02 f303 	mul.w	r3, r2, r3
 81069ae:	ee07 3a90 	vmov	s15, r3
 81069b2:	eef8 7a67 	vcvt.f32.u32	s15, s15
 81069b6:	edc7 7a03 	vstr	s15, [r7, #12]

  if (pll3m != 0U)
 81069ba:	697b      	ldr	r3, [r7, #20]
 81069bc:	2b00      	cmp	r3, #0
 81069be:	f000 8111 	beq.w	8106be4 <HAL_RCCEx_GetPLL3ClockFreq+0x270>
  {
    switch (pllsource)
 81069c2:	69bb      	ldr	r3, [r7, #24]
 81069c4:	2b02      	cmp	r3, #2
 81069c6:	f000 8083 	beq.w	8106ad0 <HAL_RCCEx_GetPLL3ClockFreq+0x15c>
 81069ca:	69bb      	ldr	r3, [r7, #24]
 81069cc:	2b02      	cmp	r3, #2
 81069ce:	f200 80a1 	bhi.w	8106b14 <HAL_RCCEx_GetPLL3ClockFreq+0x1a0>
 81069d2:	69bb      	ldr	r3, [r7, #24]
 81069d4:	2b00      	cmp	r3, #0
 81069d6:	d003      	beq.n	81069e0 <HAL_RCCEx_GetPLL3ClockFreq+0x6c>
 81069d8:	69bb      	ldr	r3, [r7, #24]
 81069da:	2b01      	cmp	r3, #1
 81069dc:	d056      	beq.n	8106a8c <HAL_RCCEx_GetPLL3ClockFreq+0x118>
 81069de:	e099      	b.n	8106b14 <HAL_RCCEx_GetPLL3ClockFreq+0x1a0>
    {
    case RCC_PLLSOURCE_HSI:  /* HSI used as PLL clock source */

      if (__HAL_RCC_GET_FLAG(RCC_FLAG_HSIDIV) != 0U)
 81069e0:	4b88      	ldr	r3, [pc, #544]	; (8106c04 <HAL_RCCEx_GetPLL3ClockFreq+0x290>)
 81069e2:	681b      	ldr	r3, [r3, #0]
 81069e4:	f003 0320 	and.w	r3, r3, #32
 81069e8:	2b00      	cmp	r3, #0
 81069ea:	d02d      	beq.n	8106a48 <HAL_RCCEx_GetPLL3ClockFreq+0xd4>
      {
        hsivalue = (HSI_VALUE >> (__HAL_RCC_GET_HSI_DIVIDER()>> 3));
 81069ec:	4b85      	ldr	r3, [pc, #532]	; (8106c04 <HAL_RCCEx_GetPLL3ClockFreq+0x290>)
 81069ee:	681b      	ldr	r3, [r3, #0]
 81069f0:	08db      	lsrs	r3, r3, #3
 81069f2:	f003 0303 	and.w	r3, r3, #3
 81069f6:	4a84      	ldr	r2, [pc, #528]	; (8106c08 <HAL_RCCEx_GetPLL3ClockFreq+0x294>)
 81069f8:	fa22 f303 	lsr.w	r3, r2, r3
 81069fc:	60bb      	str	r3, [r7, #8]
        pll3vco = ((float_t)hsivalue / (float_t)pll3m) * ((float_t)(uint32_t)(RCC->PLL3DIVR & RCC_PLL3DIVR_N3) + (fracn3/(float_t)0x2000) +(float_t)1 );
 81069fe:	68bb      	ldr	r3, [r7, #8]
 8106a00:	ee07 3a90 	vmov	s15, r3
 8106a04:	eef8 6a67 	vcvt.f32.u32	s13, s15
 8106a08:	697b      	ldr	r3, [r7, #20]
 8106a0a:	ee07 3a90 	vmov	s15, r3
 8106a0e:	eef8 7a67 	vcvt.f32.u32	s15, s15
 8106a12:	ee86 7aa7 	vdiv.f32	s14, s13, s15
 8106a16:	4b7b      	ldr	r3, [pc, #492]	; (8106c04 <HAL_RCCEx_GetPLL3ClockFreq+0x290>)
 8106a18:	6c1b      	ldr	r3, [r3, #64]	; 0x40
 8106a1a:	f3c3 0308 	ubfx	r3, r3, #0, #9
 8106a1e:	ee07 3a90 	vmov	s15, r3
 8106a22:	eef8 6a67 	vcvt.f32.u32	s13, s15
 8106a26:	ed97 6a03 	vldr	s12, [r7, #12]
 8106a2a:	eddf 5a78 	vldr	s11, [pc, #480]	; 8106c0c <HAL_RCCEx_GetPLL3ClockFreq+0x298>
 8106a2e:	eec6 7a25 	vdiv.f32	s15, s12, s11
 8106a32:	ee76 7aa7 	vadd.f32	s15, s13, s15
 8106a36:	eef7 6a00 	vmov.f32	s13, #112	; 0x3f800000  1.0
 8106a3a:	ee77 7aa6 	vadd.f32	s15, s15, s13
 8106a3e:	ee67 7a27 	vmul.f32	s15, s14, s15
 8106a42:	edc7 7a07 	vstr	s15, [r7, #28]
      }
      else
      {
        pll3vco = ((float_t)HSI_VALUE / (float_t)pll3m) * ((float_t)(uint32_t)(RCC->PLL3DIVR & RCC_PLL3DIVR_N3) + (fracn3/(float_t)0x2000) +(float_t)1 );
      }
      break;
 8106a46:	e087      	b.n	8106b58 <HAL_RCCEx_GetPLL3ClockFreq+0x1e4>
        pll3vco = ((float_t)HSI_VALUE / (float_t)pll3m) * ((float_t)(uint32_t)(RCC->PLL3DIVR & RCC_PLL3DIVR_N3) + (fracn3/(float_t)0x2000) +(float_t)1 );
 8106a48:	697b      	ldr	r3, [r7, #20]
 8106a4a:	ee07 3a90 	vmov	s15, r3
 8106a4e:	eef8 7a67 	vcvt.f32.u32	s15, s15
 8106a52:	eddf 6a6f 	vldr	s13, [pc, #444]	; 8106c10 <HAL_RCCEx_GetPLL3ClockFreq+0x29c>
 8106a56:	ee86 7aa7 	vdiv.f32	s14, s13, s15
 8106a5a:	4b6a      	ldr	r3, [pc, #424]	; (8106c04 <HAL_RCCEx_GetPLL3ClockFreq+0x290>)
 8106a5c:	6c1b      	ldr	r3, [r3, #64]	; 0x40
 8106a5e:	f3c3 0308 	ubfx	r3, r3, #0, #9
 8106a62:	ee07 3a90 	vmov	s15, r3
 8106a66:	eef8 6a67 	vcvt.f32.u32	s13, s15
 8106a6a:	ed97 6a03 	vldr	s12, [r7, #12]
 8106a6e:	eddf 5a67 	vldr	s11, [pc, #412]	; 8106c0c <HAL_RCCEx_GetPLL3ClockFreq+0x298>
 8106a72:	eec6 7a25 	vdiv.f32	s15, s12, s11
 8106a76:	ee76 7aa7 	vadd.f32	s15, s13, s15
 8106a7a:	eef7 6a00 	vmov.f32	s13, #112	; 0x3f800000  1.0
 8106a7e:	ee77 7aa6 	vadd.f32	s15, s15, s13
 8106a82:	ee67 7a27 	vmul.f32	s15, s14, s15
 8106a86:	edc7 7a07 	vstr	s15, [r7, #28]
      break;
 8106a8a:	e065      	b.n	8106b58 <HAL_RCCEx_GetPLL3ClockFreq+0x1e4>
    case RCC_PLLSOURCE_CSI:  /* CSI used as PLL clock source */
      pll3vco = ((float_t)CSI_VALUE / (float_t)pll3m) * ((float_t)(uint32_t)(RCC->PLL3DIVR & RCC_PLL3DIVR_N3) + (fracn3/(float_t)0x2000) +(float_t)1 );
 8106a8c:	697b      	ldr	r3, [r7, #20]
 8106a8e:	ee07 3a90 	vmov	s15, r3
 8106a92:	eef8 7a67 	vcvt.f32.u32	s15, s15
 8106a96:	eddf 6a5f 	vldr	s13, [pc, #380]	; 8106c14 <HAL_RCCEx_GetPLL3ClockFreq+0x2a0>
 8106a9a:	ee86 7aa7 	vdiv.f32	s14, s13, s15
 8106a9e:	4b59      	ldr	r3, [pc, #356]	; (8106c04 <HAL_RCCEx_GetPLL3ClockFreq+0x290>)
 8106aa0:	6c1b      	ldr	r3, [r3, #64]	; 0x40
 8106aa2:	f3c3 0308 	ubfx	r3, r3, #0, #9
 8106aa6:	ee07 3a90 	vmov	s15, r3
 8106aaa:	eef8 6a67 	vcvt.f32.u32	s13, s15
 8106aae:	ed97 6a03 	vldr	s12, [r7, #12]
 8106ab2:	eddf 5a56 	vldr	s11, [pc, #344]	; 8106c0c <HAL_RCCEx_GetPLL3ClockFreq+0x298>
 8106ab6:	eec6 7a25 	vdiv.f32	s15, s12, s11
 8106aba:	ee76 7aa7 	vadd.f32	s15, s13, s15
 8106abe:	eef7 6a00 	vmov.f32	s13, #112	; 0x3f800000  1.0
 8106ac2:	ee77 7aa6 	vadd.f32	s15, s15, s13
 8106ac6:	ee67 7a27 	vmul.f32	s15, s14, s15
 8106aca:	edc7 7a07 	vstr	s15, [r7, #28]
      break;
 8106ace:	e043      	b.n	8106b58 <HAL_RCCEx_GetPLL3ClockFreq+0x1e4>

    case RCC_PLLSOURCE_HSE:  /* HSE used as PLL clock source */
      pll3vco = ((float_t)HSE_VALUE / (float_t)pll3m) * ((float_t)(uint32_t)(RCC->PLL3DIVR & RCC_PLL3DIVR_N3) + (fracn3/(float_t)0x2000) +(float_t)1 );
 8106ad0:	697b      	ldr	r3, [r7, #20]
 8106ad2:	ee07 3a90 	vmov	s15, r3
 8106ad6:	eef8 7a67 	vcvt.f32.u32	s15, s15
 8106ada:	eddf 6a4f 	vldr	s13, [pc, #316]	; 8106c18 <HAL_RCCEx_GetPLL3ClockFreq+0x2a4>
 8106ade:	ee86 7aa7 	vdiv.f32	s14, s13, s15
 8106ae2:	4b48      	ldr	r3, [pc, #288]	; (8106c04 <HAL_RCCEx_GetPLL3ClockFreq+0x290>)
 8106ae4:	6c1b      	ldr	r3, [r3, #64]	; 0x40
 8106ae6:	f3c3 0308 	ubfx	r3, r3, #0, #9
 8106aea:	ee07 3a90 	vmov	s15, r3
 8106aee:	eef8 6a67 	vcvt.f32.u32	s13, s15
 8106af2:	ed97 6a03 	vldr	s12, [r7, #12]
 8106af6:	eddf 5a45 	vldr	s11, [pc, #276]	; 8106c0c <HAL_RCCEx_GetPLL3ClockFreq+0x298>
 8106afa:	eec6 7a25 	vdiv.f32	s15, s12, s11
 8106afe:	ee76 7aa7 	vadd.f32	s15, s13, s15
 8106b02:	eef7 6a00 	vmov.f32	s13, #112	; 0x3f800000  1.0
 8106b06:	ee77 7aa6 	vadd.f32	s15, s15, s13
 8106b0a:	ee67 7a27 	vmul.f32	s15, s14, s15
 8106b0e:	edc7 7a07 	vstr	s15, [r7, #28]
      break;
 8106b12:	e021      	b.n	8106b58 <HAL_RCCEx_GetPLL3ClockFreq+0x1e4>

    default:
      pll3vco = ((float_t)CSI_VALUE / (float_t)pll3m) * ((float_t)(uint32_t)(RCC->PLL3DIVR & RCC_PLL3DIVR_N3) + (fracn3/(float_t)0x2000) +(float_t)1 );
 8106b14:	697b      	ldr	r3, [r7, #20]
 8106b16:	ee07 3a90 	vmov	s15, r3
 8106b1a:	eef8 7a67 	vcvt.f32.u32	s15, s15
 8106b1e:	eddf 6a3d 	vldr	s13, [pc, #244]	; 8106c14 <HAL_RCCEx_GetPLL3ClockFreq+0x2a0>
 8106b22:	ee86 7aa7 	vdiv.f32	s14, s13, s15
 8106b26:	4b37      	ldr	r3, [pc, #220]	; (8106c04 <HAL_RCCEx_GetPLL3ClockFreq+0x290>)
 8106b28:	6c1b      	ldr	r3, [r3, #64]	; 0x40
 8106b2a:	f3c3 0308 	ubfx	r3, r3, #0, #9
 8106b2e:	ee07 3a90 	vmov	s15, r3
 8106b32:	eef8 6a67 	vcvt.f32.u32	s13, s15
 8106b36:	ed97 6a03 	vldr	s12, [r7, #12]
 8106b3a:	eddf 5a34 	vldr	s11, [pc, #208]	; 8106c0c <HAL_RCCEx_GetPLL3ClockFreq+0x298>
 8106b3e:	eec6 7a25 	vdiv.f32	s15, s12, s11
 8106b42:	ee76 7aa7 	vadd.f32	s15, s13, s15
 8106b46:	eef7 6a00 	vmov.f32	s13, #112	; 0x3f800000  1.0
 8106b4a:	ee77 7aa6 	vadd.f32	s15, s15, s13
 8106b4e:	ee67 7a27 	vmul.f32	s15, s14, s15
 8106b52:	edc7 7a07 	vstr	s15, [r7, #28]
      break;
 8106b56:	bf00      	nop
    }
    PLL3_Clocks->PLL3_P_Frequency = (uint32_t)(float_t)(pll3vco/((float_t)(uint32_t)((RCC->PLL3DIVR & RCC_PLL3DIVR_P3) >>9)  + (float_t)1 )) ;
 8106b58:	4b2a      	ldr	r3, [pc, #168]	; (8106c04 <HAL_RCCEx_GetPLL3ClockFreq+0x290>)
 8106b5a:	6c1b      	ldr	r3, [r3, #64]	; 0x40
 8106b5c:	0a5b      	lsrs	r3, r3, #9
 8106b5e:	f003 037f 	and.w	r3, r3, #127	; 0x7f
 8106b62:	ee07 3a90 	vmov	s15, r3
 8106b66:	eef8 7a67 	vcvt.f32.u32	s15, s15
 8106b6a:	eeb7 7a00 	vmov.f32	s14, #112	; 0x3f800000  1.0
 8106b6e:	ee37 7a87 	vadd.f32	s14, s15, s14
 8106b72:	edd7 6a07 	vldr	s13, [r7, #28]
 8106b76:	eec6 7a87 	vdiv.f32	s15, s13, s14
 8106b7a:	eefc 7ae7 	vcvt.u32.f32	s15, s15
 8106b7e:	ee17 2a90 	vmov	r2, s15
 8106b82:	687b      	ldr	r3, [r7, #4]
 8106b84:	601a      	str	r2, [r3, #0]
    PLL3_Clocks->PLL3_Q_Frequency = (uint32_t)(float_t)(pll3vco/((float_t)(uint32_t)((RCC->PLL3DIVR & RCC_PLL3DIVR_Q3) >>16) + (float_t)1 )) ;
 8106b86:	4b1f      	ldr	r3, [pc, #124]	; (8106c04 <HAL_RCCEx_GetPLL3ClockFreq+0x290>)
 8106b88:	6c1b      	ldr	r3, [r3, #64]	; 0x40
 8106b8a:	0c1b      	lsrs	r3, r3, #16
 8106b8c:	f003 037f 	and.w	r3, r3, #127	; 0x7f
 8106b90:	ee07 3a90 	vmov	s15, r3
 8106b94:	eef8 7a67 	vcvt.f32.u32	s15, s15
 8106b98:	eeb7 7a00 	vmov.f32	s14, #112	; 0x3f800000  1.0
 8106b9c:	ee37 7a87 	vadd.f32	s14, s15, s14
 8106ba0:	edd7 6a07 	vldr	s13, [r7, #28]
 8106ba4:	eec6 7a87 	vdiv.f32	s15, s13, s14
 8106ba8:	eefc 7ae7 	vcvt.u32.f32	s15, s15
 8106bac:	ee17 2a90 	vmov	r2, s15
 8106bb0:	687b      	ldr	r3, [r7, #4]
 8106bb2:	605a      	str	r2, [r3, #4]
    PLL3_Clocks->PLL3_R_Frequency = (uint32_t)(float_t)(pll3vco/((float_t)(uint32_t)((RCC->PLL3DIVR & RCC_PLL3DIVR_R3) >>24) + (float_t)1 )) ;
 8106bb4:	4b13      	ldr	r3, [pc, #76]	; (8106c04 <HAL_RCCEx_GetPLL3ClockFreq+0x290>)
 8106bb6:	6c1b      	ldr	r3, [r3, #64]	; 0x40
 8106bb8:	0e1b      	lsrs	r3, r3, #24
 8106bba:	f003 037f 	and.w	r3, r3, #127	; 0x7f
 8106bbe:	ee07 3a90 	vmov	s15, r3
 8106bc2:	eef8 7a67 	vcvt.f32.u32	s15, s15
 8106bc6:	eeb7 7a00 	vmov.f32	s14, #112	; 0x3f800000  1.0
 8106bca:	ee37 7a87 	vadd.f32	s14, s15, s14
 8106bce:	edd7 6a07 	vldr	s13, [r7, #28]
 8106bd2:	eec6 7a87 	vdiv.f32	s15, s13, s14
 8106bd6:	eefc 7ae7 	vcvt.u32.f32	s15, s15
 8106bda:	ee17 2a90 	vmov	r2, s15
 8106bde:	687b      	ldr	r3, [r7, #4]
 8106be0:	609a      	str	r2, [r3, #8]
    PLL3_Clocks->PLL3_P_Frequency = 0U;
    PLL3_Clocks->PLL3_Q_Frequency = 0U;
    PLL3_Clocks->PLL3_R_Frequency = 0U;
  }

}
 8106be2:	e008      	b.n	8106bf6 <HAL_RCCEx_GetPLL3ClockFreq+0x282>
    PLL3_Clocks->PLL3_P_Frequency = 0U;
 8106be4:	687b      	ldr	r3, [r7, #4]
 8106be6:	2200      	movs	r2, #0
 8106be8:	601a      	str	r2, [r3, #0]
    PLL3_Clocks->PLL3_Q_Frequency = 0U;
 8106bea:	687b      	ldr	r3, [r7, #4]
 8106bec:	2200      	movs	r2, #0
 8106bee:	605a      	str	r2, [r3, #4]
    PLL3_Clocks->PLL3_R_Frequency = 0U;
 8106bf0:	687b      	ldr	r3, [r7, #4]
 8106bf2:	2200      	movs	r2, #0
 8106bf4:	609a      	str	r2, [r3, #8]
}
 8106bf6:	bf00      	nop
 8106bf8:	3724      	adds	r7, #36	; 0x24
 8106bfa:	46bd      	mov	sp, r7
 8106bfc:	f85d 7b04 	ldr.w	r7, [sp], #4
 8106c00:	4770      	bx	lr
 8106c02:	bf00      	nop
 8106c04:	58024400 	.word	0x58024400
 8106c08:	03d09000 	.word	0x03d09000
 8106c0c:	46000000 	.word	0x46000000
 8106c10:	4c742400 	.word	0x4c742400
 8106c14:	4a742400 	.word	0x4a742400
 8106c18:	4af42400 	.word	0x4af42400

08106c1c <HAL_RCCEx_GetPLL1ClockFreq>:
  *         right PLL1CLK value. Otherwise, any configuration based on this function will be incorrect.
  * @param  PLL1_Clocks structure.
  * @retval None
  */
void HAL_RCCEx_GetPLL1ClockFreq(PLL1_ClocksTypeDef* PLL1_Clocks)
{
 8106c1c:	b480      	push	{r7}
 8106c1e:	b089      	sub	sp, #36	; 0x24
 8106c20:	af00      	add	r7, sp, #0
 8106c22:	6078      	str	r0, [r7, #4]
  uint32_t pllsource, pll1m, pll1fracen, hsivalue;
  float_t fracn1, pll1vco;

  pllsource = (RCC->PLLCKSELR & RCC_PLLCKSELR_PLLSRC);
 8106c24:	4ba0      	ldr	r3, [pc, #640]	; (8106ea8 <HAL_RCCEx_GetPLL1ClockFreq+0x28c>)
 8106c26:	6a9b      	ldr	r3, [r3, #40]	; 0x28
 8106c28:	f003 0303 	and.w	r3, r3, #3
 8106c2c:	61bb      	str	r3, [r7, #24]
  pll1m = ((RCC->PLLCKSELR & RCC_PLLCKSELR_DIVM1)>> 4);
 8106c2e:	4b9e      	ldr	r3, [pc, #632]	; (8106ea8 <HAL_RCCEx_GetPLL1ClockFreq+0x28c>)
 8106c30:	6a9b      	ldr	r3, [r3, #40]	; 0x28
 8106c32:	091b      	lsrs	r3, r3, #4
 8106c34:	f003 033f 	and.w	r3, r3, #63	; 0x3f
 8106c38:	617b      	str	r3, [r7, #20]
  pll1fracen = RCC->PLLCFGR & RCC_PLLCFGR_PLL1FRACEN;
 8106c3a:	4b9b      	ldr	r3, [pc, #620]	; (8106ea8 <HAL_RCCEx_GetPLL1ClockFreq+0x28c>)
 8106c3c:	6adb      	ldr	r3, [r3, #44]	; 0x2c
 8106c3e:	f003 0301 	and.w	r3, r3, #1
 8106c42:	613b      	str	r3, [r7, #16]
  fracn1 = (float_t)(uint32_t)(pll1fracen * ((RCC->PLL1FRACR & RCC_PLL1FRACR_FRACN1)>> 3));
 8106c44:	4b98      	ldr	r3, [pc, #608]	; (8106ea8 <HAL_RCCEx_GetPLL1ClockFreq+0x28c>)
 8106c46:	6b5b      	ldr	r3, [r3, #52]	; 0x34
 8106c48:	08db      	lsrs	r3, r3, #3
 8106c4a:	f3c3 030c 	ubfx	r3, r3, #0, #13
 8106c4e:	693a      	ldr	r2, [r7, #16]
 8106c50:	fb02 f303 	mul.w	r3, r2, r3
 8106c54:	ee07 3a90 	vmov	s15, r3
 8106c58:	eef8 7a67 	vcvt.f32.u32	s15, s15
 8106c5c:	edc7 7a03 	vstr	s15, [r7, #12]

  if (pll1m != 0U)
 8106c60:	697b      	ldr	r3, [r7, #20]
 8106c62:	2b00      	cmp	r3, #0
 8106c64:	f000 8111 	beq.w	8106e8a <HAL_RCCEx_GetPLL1ClockFreq+0x26e>
  {
    switch (pllsource)
 8106c68:	69bb      	ldr	r3, [r7, #24]
 8106c6a:	2b02      	cmp	r3, #2
 8106c6c:	f000 8083 	beq.w	8106d76 <HAL_RCCEx_GetPLL1ClockFreq+0x15a>
 8106c70:	69bb      	ldr	r3, [r7, #24]
 8106c72:	2b02      	cmp	r3, #2
 8106c74:	f200 80a1 	bhi.w	8106dba <HAL_RCCEx_GetPLL1ClockFreq+0x19e>
 8106c78:	69bb      	ldr	r3, [r7, #24]
 8106c7a:	2b00      	cmp	r3, #0
 8106c7c:	d003      	beq.n	8106c86 <HAL_RCCEx_GetPLL1ClockFreq+0x6a>
 8106c7e:	69bb      	ldr	r3, [r7, #24]
 8106c80:	2b01      	cmp	r3, #1
 8106c82:	d056      	beq.n	8106d32 <HAL_RCCEx_GetPLL1ClockFreq+0x116>
 8106c84:	e099      	b.n	8106dba <HAL_RCCEx_GetPLL1ClockFreq+0x19e>
    {

    case RCC_PLLSOURCE_HSI:  /* HSI used as PLL clock source */

      if (__HAL_RCC_GET_FLAG(RCC_FLAG_HSIDIV) != 0U)
 8106c86:	4b88      	ldr	r3, [pc, #544]	; (8106ea8 <HAL_RCCEx_GetPLL1ClockFreq+0x28c>)
 8106c88:	681b      	ldr	r3, [r3, #0]
 8106c8a:	f003 0320 	and.w	r3, r3, #32
 8106c8e:	2b00      	cmp	r3, #0
 8106c90:	d02d      	beq.n	8106cee <HAL_RCCEx_GetPLL1ClockFreq+0xd2>
      {
        hsivalue = (HSI_VALUE >> (__HAL_RCC_GET_HSI_DIVIDER()>> 3));
 8106c92:	4b85      	ldr	r3, [pc, #532]	; (8106ea8 <HAL_RCCEx_GetPLL1ClockFreq+0x28c>)
 8106c94:	681b      	ldr	r3, [r3, #0]
 8106c96:	08db      	lsrs	r3, r3, #3
 8106c98:	f003 0303 	and.w	r3, r3, #3
 8106c9c:	4a83      	ldr	r2, [pc, #524]	; (8106eac <HAL_RCCEx_GetPLL1ClockFreq+0x290>)
 8106c9e:	fa22 f303 	lsr.w	r3, r2, r3
 8106ca2:	60bb      	str	r3, [r7, #8]
        pll1vco = ((float_t)hsivalue / (float_t)pll1m) * ((float_t)(uint32_t)(RCC->PLL1DIVR & RCC_PLL1DIVR_N1) + (fracn1/(float_t)0x2000) +(float_t)1 );
 8106ca4:	68bb      	ldr	r3, [r7, #8]
 8106ca6:	ee07 3a90 	vmov	s15, r3
 8106caa:	eef8 6a67 	vcvt.f32.u32	s13, s15
 8106cae:	697b      	ldr	r3, [r7, #20]
 8106cb0:	ee07 3a90 	vmov	s15, r3
 8106cb4:	eef8 7a67 	vcvt.f32.u32	s15, s15
 8106cb8:	ee86 7aa7 	vdiv.f32	s14, s13, s15
 8106cbc:	4b7a      	ldr	r3, [pc, #488]	; (8106ea8 <HAL_RCCEx_GetPLL1ClockFreq+0x28c>)
 8106cbe:	6b1b      	ldr	r3, [r3, #48]	; 0x30
 8106cc0:	f3c3 0308 	ubfx	r3, r3, #0, #9
 8106cc4:	ee07 3a90 	vmov	s15, r3
 8106cc8:	eef8 6a67 	vcvt.f32.u32	s13, s15
 8106ccc:	ed97 6a03 	vldr	s12, [r7, #12]
 8106cd0:	eddf 5a77 	vldr	s11, [pc, #476]	; 8106eb0 <HAL_RCCEx_GetPLL1ClockFreq+0x294>
 8106cd4:	eec6 7a25 	vdiv.f32	s15, s12, s11
 8106cd8:	ee76 7aa7 	vadd.f32	s15, s13, s15
 8106cdc:	eef7 6a00 	vmov.f32	s13, #112	; 0x3f800000  1.0
 8106ce0:	ee77 7aa6 	vadd.f32	s15, s15, s13
 8106ce4:	ee67 7a27 	vmul.f32	s15, s14, s15
 8106ce8:	edc7 7a07 	vstr	s15, [r7, #28]
      }
      else
      {
        pll1vco = ((float_t)HSI_VALUE / (float_t)pll1m) * ((float_t)(uint32_t)(RCC->PLL1DIVR & RCC_PLL1DIVR_N1) + (fracn1/(float_t)0x2000) +(float_t)1 );
      }
      break;
 8106cec:	e087      	b.n	8106dfe <HAL_RCCEx_GetPLL1ClockFreq+0x1e2>
        pll1vco = ((float_t)HSI_VALUE / (float_t)pll1m) * ((float_t)(uint32_t)(RCC->PLL1DIVR & RCC_PLL1DIVR_N1) + (fracn1/(float_t)0x2000) +(float_t)1 );
 8106cee:	697b      	ldr	r3, [r7, #20]
 8106cf0:	ee07 3a90 	vmov	s15, r3
 8106cf4:	eef8 7a67 	vcvt.f32.u32	s15, s15
 8106cf8:	eddf 6a6e 	vldr	s13, [pc, #440]	; 8106eb4 <HAL_RCCEx_GetPLL1ClockFreq+0x298>
 8106cfc:	ee86 7aa7 	vdiv.f32	s14, s13, s15
 8106d00:	4b69      	ldr	r3, [pc, #420]	; (8106ea8 <HAL_RCCEx_GetPLL1ClockFreq+0x28c>)
 8106d02:	6b1b      	ldr	r3, [r3, #48]	; 0x30
 8106d04:	f3c3 0308 	ubfx	r3, r3, #0, #9
 8106d08:	ee07 3a90 	vmov	s15, r3
 8106d0c:	eef8 6a67 	vcvt.f32.u32	s13, s15
 8106d10:	ed97 6a03 	vldr	s12, [r7, #12]
 8106d14:	eddf 5a66 	vldr	s11, [pc, #408]	; 8106eb0 <HAL_RCCEx_GetPLL1ClockFreq+0x294>
 8106d18:	eec6 7a25 	vdiv.f32	s15, s12, s11
 8106d1c:	ee76 7aa7 	vadd.f32	s15, s13, s15
 8106d20:	eef7 6a00 	vmov.f32	s13, #112	; 0x3f800000  1.0
 8106d24:	ee77 7aa6 	vadd.f32	s15, s15, s13
 8106d28:	ee67 7a27 	vmul.f32	s15, s14, s15
 8106d2c:	edc7 7a07 	vstr	s15, [r7, #28]
      break;
 8106d30:	e065      	b.n	8106dfe <HAL_RCCEx_GetPLL1ClockFreq+0x1e2>
    case RCC_PLLSOURCE_CSI:  /* CSI used as PLL clock source */
      pll1vco = ((float_t)CSI_VALUE / (float_t)pll1m) * ((float_t)(uint32_t)(RCC->PLL1DIVR & RCC_PLL1DIVR_N1) + (fracn1/(float_t)0x2000) +(float_t)1 );
 8106d32:	697b      	ldr	r3, [r7, #20]
 8106d34:	ee07 3a90 	vmov	s15, r3
 8106d38:	eef8 7a67 	vcvt.f32.u32	s15, s15
 8106d3c:	eddf 6a5e 	vldr	s13, [pc, #376]	; 8106eb8 <HAL_RCCEx_GetPLL1ClockFreq+0x29c>
 8106d40:	ee86 7aa7 	vdiv.f32	s14, s13, s15
 8106d44:	4b58      	ldr	r3, [pc, #352]	; (8106ea8 <HAL_RCCEx_GetPLL1ClockFreq+0x28c>)
 8106d46:	6b1b      	ldr	r3, [r3, #48]	; 0x30
 8106d48:	f3c3 0308 	ubfx	r3, r3, #0, #9
 8106d4c:	ee07 3a90 	vmov	s15, r3
 8106d50:	eef8 6a67 	vcvt.f32.u32	s13, s15
 8106d54:	ed97 6a03 	vldr	s12, [r7, #12]
 8106d58:	eddf 5a55 	vldr	s11, [pc, #340]	; 8106eb0 <HAL_RCCEx_GetPLL1ClockFreq+0x294>
 8106d5c:	eec6 7a25 	vdiv.f32	s15, s12, s11
 8106d60:	ee76 7aa7 	vadd.f32	s15, s13, s15
 8106d64:	eef7 6a00 	vmov.f32	s13, #112	; 0x3f800000  1.0
 8106d68:	ee77 7aa6 	vadd.f32	s15, s15, s13
 8106d6c:	ee67 7a27 	vmul.f32	s15, s14, s15
 8106d70:	edc7 7a07 	vstr	s15, [r7, #28]
      break;
 8106d74:	e043      	b.n	8106dfe <HAL_RCCEx_GetPLL1ClockFreq+0x1e2>

    case RCC_PLLSOURCE_HSE:  /* HSE used as PLL clock source */
      pll1vco = ((float_t)HSE_VALUE / (float_t)pll1m) * ((float_t)(uint32_t)(RCC->PLL1DIVR & RCC_PLL1DIVR_N1) + (fracn1/(float_t)0x2000) +(float_t)1 );
 8106d76:	697b      	ldr	r3, [r7, #20]
 8106d78:	ee07 3a90 	vmov	s15, r3
 8106d7c:	eef8 7a67 	vcvt.f32.u32	s15, s15
 8106d80:	eddf 6a4e 	vldr	s13, [pc, #312]	; 8106ebc <HAL_RCCEx_GetPLL1ClockFreq+0x2a0>
 8106d84:	ee86 7aa7 	vdiv.f32	s14, s13, s15
 8106d88:	4b47      	ldr	r3, [pc, #284]	; (8106ea8 <HAL_RCCEx_GetPLL1ClockFreq+0x28c>)
 8106d8a:	6b1b      	ldr	r3, [r3, #48]	; 0x30
 8106d8c:	f3c3 0308 	ubfx	r3, r3, #0, #9
 8106d90:	ee07 3a90 	vmov	s15, r3
 8106d94:	eef8 6a67 	vcvt.f32.u32	s13, s15
 8106d98:	ed97 6a03 	vldr	s12, [r7, #12]
 8106d9c:	eddf 5a44 	vldr	s11, [pc, #272]	; 8106eb0 <HAL_RCCEx_GetPLL1ClockFreq+0x294>
 8106da0:	eec6 7a25 	vdiv.f32	s15, s12, s11
 8106da4:	ee76 7aa7 	vadd.f32	s15, s13, s15
 8106da8:	eef7 6a00 	vmov.f32	s13, #112	; 0x3f800000  1.0
 8106dac:	ee77 7aa6 	vadd.f32	s15, s15, s13
 8106db0:	ee67 7a27 	vmul.f32	s15, s14, s15
 8106db4:	edc7 7a07 	vstr	s15, [r7, #28]
      break;
 8106db8:	e021      	b.n	8106dfe <HAL_RCCEx_GetPLL1ClockFreq+0x1e2>

    default:
      pll1vco = ((float_t)HSI_VALUE / (float_t)pll1m) * ((float_t)(uint32_t)(RCC->PLL1DIVR & RCC_PLL1DIVR_N1) + (fracn1/(float_t)0x2000) +(float_t)1 );
 8106dba:	697b      	ldr	r3, [r7, #20]
 8106dbc:	ee07 3a90 	vmov	s15, r3
 8106dc0:	eef8 7a67 	vcvt.f32.u32	s15, s15
 8106dc4:	eddf 6a3b 	vldr	s13, [pc, #236]	; 8106eb4 <HAL_RCCEx_GetPLL1ClockFreq+0x298>
 8106dc8:	ee86 7aa7 	vdiv.f32	s14, s13, s15
 8106dcc:	4b36      	ldr	r3, [pc, #216]	; (8106ea8 <HAL_RCCEx_GetPLL1ClockFreq+0x28c>)
 8106dce:	6b1b      	ldr	r3, [r3, #48]	; 0x30
 8106dd0:	f3c3 0308 	ubfx	r3, r3, #0, #9
 8106dd4:	ee07 3a90 	vmov	s15, r3
 8106dd8:	eef8 6a67 	vcvt.f32.u32	s13, s15
 8106ddc:	ed97 6a03 	vldr	s12, [r7, #12]
 8106de0:	eddf 5a33 	vldr	s11, [pc, #204]	; 8106eb0 <HAL_RCCEx_GetPLL1ClockFreq+0x294>
 8106de4:	eec6 7a25 	vdiv.f32	s15, s12, s11
 8106de8:	ee76 7aa7 	vadd.f32	s15, s13, s15
 8106dec:	eef7 6a00 	vmov.f32	s13, #112	; 0x3f800000  1.0
 8106df0:	ee77 7aa6 	vadd.f32	s15, s15, s13
 8106df4:	ee67 7a27 	vmul.f32	s15, s14, s15
 8106df8:	edc7 7a07 	vstr	s15, [r7, #28]
      break;
 8106dfc:	bf00      	nop
    }

    PLL1_Clocks->PLL1_P_Frequency = (uint32_t)(float_t)(pll1vco/((float_t)(uint32_t)((RCC->PLL1DIVR & RCC_PLL1DIVR_P1) >>9)  + (float_t)1 )) ;
 8106dfe:	4b2a      	ldr	r3, [pc, #168]	; (8106ea8 <HAL_RCCEx_GetPLL1ClockFreq+0x28c>)
 8106e00:	6b1b      	ldr	r3, [r3, #48]	; 0x30
 8106e02:	0a5b      	lsrs	r3, r3, #9
 8106e04:	f003 037f 	and.w	r3, r3, #127	; 0x7f
 8106e08:	ee07 3a90 	vmov	s15, r3
 8106e0c:	eef8 7a67 	vcvt.f32.u32	s15, s15
 8106e10:	eeb7 7a00 	vmov.f32	s14, #112	; 0x3f800000  1.0
 8106e14:	ee37 7a87 	vadd.f32	s14, s15, s14
 8106e18:	edd7 6a07 	vldr	s13, [r7, #28]
 8106e1c:	eec6 7a87 	vdiv.f32	s15, s13, s14
 8106e20:	eefc 7ae7 	vcvt.u32.f32	s15, s15
 8106e24:	ee17 2a90 	vmov	r2, s15
 8106e28:	687b      	ldr	r3, [r7, #4]
 8106e2a:	601a      	str	r2, [r3, #0]
    PLL1_Clocks->PLL1_Q_Frequency = (uint32_t)(float_t)(pll1vco/((float_t)(uint32_t)((RCC->PLL1DIVR & RCC_PLL1DIVR_Q1) >>16) + (float_t)1 )) ;
 8106e2c:	4b1e      	ldr	r3, [pc, #120]	; (8106ea8 <HAL_RCCEx_GetPLL1ClockFreq+0x28c>)
 8106e2e:	6b1b      	ldr	r3, [r3, #48]	; 0x30
 8106e30:	0c1b      	lsrs	r3, r3, #16
 8106e32:	f003 037f 	and.w	r3, r3, #127	; 0x7f
 8106e36:	ee07 3a90 	vmov	s15, r3
 8106e3a:	eef8 7a67 	vcvt.f32.u32	s15, s15
 8106e3e:	eeb7 7a00 	vmov.f32	s14, #112	; 0x3f800000  1.0
 8106e42:	ee37 7a87 	vadd.f32	s14, s15, s14
 8106e46:	edd7 6a07 	vldr	s13, [r7, #28]
 8106e4a:	eec6 7a87 	vdiv.f32	s15, s13, s14
 8106e4e:	eefc 7ae7 	vcvt.u32.f32	s15, s15
 8106e52:	ee17 2a90 	vmov	r2, s15
 8106e56:	687b      	ldr	r3, [r7, #4]
 8106e58:	605a      	str	r2, [r3, #4]
    PLL1_Clocks->PLL1_R_Frequency = (uint32_t)(float_t)(pll1vco/((float_t)(uint32_t)((RCC->PLL1DIVR & RCC_PLL1DIVR_R1) >>24) + (float_t)1 )) ;
 8106e5a:	4b13      	ldr	r3, [pc, #76]	; (8106ea8 <HAL_RCCEx_GetPLL1ClockFreq+0x28c>)
 8106e5c:	6b1b      	ldr	r3, [r3, #48]	; 0x30
 8106e5e:	0e1b      	lsrs	r3, r3, #24
 8106e60:	f003 037f 	and.w	r3, r3, #127	; 0x7f
 8106e64:	ee07 3a90 	vmov	s15, r3
 8106e68:	eef8 7a67 	vcvt.f32.u32	s15, s15
 8106e6c:	eeb7 7a00 	vmov.f32	s14, #112	; 0x3f800000  1.0
 8106e70:	ee37 7a87 	vadd.f32	s14, s15, s14
 8106e74:	edd7 6a07 	vldr	s13, [r7, #28]
 8106e78:	eec6 7a87 	vdiv.f32	s15, s13, s14
 8106e7c:	eefc 7ae7 	vcvt.u32.f32	s15, s15
 8106e80:	ee17 2a90 	vmov	r2, s15
 8106e84:	687b      	ldr	r3, [r7, #4]
 8106e86:	609a      	str	r2, [r3, #8]
    PLL1_Clocks->PLL1_P_Frequency = 0U;
    PLL1_Clocks->PLL1_Q_Frequency = 0U;
    PLL1_Clocks->PLL1_R_Frequency = 0U;
  }

}
 8106e88:	e008      	b.n	8106e9c <HAL_RCCEx_GetPLL1ClockFreq+0x280>
    PLL1_Clocks->PLL1_P_Frequency = 0U;
 8106e8a:	687b      	ldr	r3, [r7, #4]
 8106e8c:	2200      	movs	r2, #0
 8106e8e:	601a      	str	r2, [r3, #0]
    PLL1_Clocks->PLL1_Q_Frequency = 0U;
 8106e90:	687b      	ldr	r3, [r7, #4]
 8106e92:	2200      	movs	r2, #0
 8106e94:	605a      	str	r2, [r3, #4]
    PLL1_Clocks->PLL1_R_Frequency = 0U;
 8106e96:	687b      	ldr	r3, [r7, #4]
 8106e98:	2200      	movs	r2, #0
 8106e9a:	609a      	str	r2, [r3, #8]
}
 8106e9c:	bf00      	nop
 8106e9e:	3724      	adds	r7, #36	; 0x24
 8106ea0:	46bd      	mov	sp, r7
 8106ea2:	f85d 7b04 	ldr.w	r7, [sp], #4
 8106ea6:	4770      	bx	lr
 8106ea8:	58024400 	.word	0x58024400
 8106eac:	03d09000 	.word	0x03d09000
 8106eb0:	46000000 	.word	0x46000000
 8106eb4:	4c742400 	.word	0x4c742400
 8106eb8:	4a742400 	.word	0x4a742400
 8106ebc:	4af42400 	.word	0x4af42400

08106ec0 <RCCEx_PLL2_Config>:
  * @note   PLL2 is temporary disabled to apply new parameters
  *
  * @retval HAL status
  */
static HAL_StatusTypeDef RCCEx_PLL2_Config(RCC_PLL2InitTypeDef *pll2, uint32_t Divider)
{
 8106ec0:	b580      	push	{r7, lr}
 8106ec2:	b084      	sub	sp, #16
 8106ec4:	af00      	add	r7, sp, #0
 8106ec6:	6078      	str	r0, [r7, #4]
 8106ec8:	6039      	str	r1, [r7, #0]

  uint32_t tickstart;
  HAL_StatusTypeDef status = HAL_OK;
 8106eca:	2300      	movs	r3, #0
 8106ecc:	73fb      	strb	r3, [r7, #15]
  assert_param(IS_RCC_PLL2RGE_VALUE(pll2->PLL2RGE));
  assert_param(IS_RCC_PLL2VCO_VALUE(pll2->PLL2VCOSEL));
  assert_param(IS_RCC_PLLFRACN_VALUE(pll2->PLL2FRACN));

  /* Check that PLL2 OSC clock source is already set */
  if(__HAL_RCC_GET_PLL_OSCSOURCE() == RCC_PLLSOURCE_NONE)
 8106ece:	4b54      	ldr	r3, [pc, #336]	; (8107020 <RCCEx_PLL2_Config+0x160>)
 8106ed0:	6a9b      	ldr	r3, [r3, #40]	; 0x28
 8106ed2:	f003 0303 	and.w	r3, r3, #3
 8106ed6:	2b03      	cmp	r3, #3
 8106ed8:	d101      	bne.n	8106ede <RCCEx_PLL2_Config+0x1e>
  {
    return HAL_ERROR;
 8106eda:	2301      	movs	r3, #1
 8106edc:	e09b      	b.n	8107016 <RCCEx_PLL2_Config+0x156>


  else
  {
    /* Disable  PLL2. */
    __HAL_RCC_PLL2_DISABLE();
 8106ede:	4b50      	ldr	r3, [pc, #320]	; (8107020 <RCCEx_PLL2_Config+0x160>)
 8106ee0:	681b      	ldr	r3, [r3, #0]
 8106ee2:	4a4f      	ldr	r2, [pc, #316]	; (8107020 <RCCEx_PLL2_Config+0x160>)
 8106ee4:	f023 6380 	bic.w	r3, r3, #67108864	; 0x4000000
 8106ee8:	6013      	str	r3, [r2, #0]

    /* Get Start Tick*/
    tickstart = HAL_GetTick();
 8106eea:	f7fb fd0f 	bl	810290c <HAL_GetTick>
 8106eee:	60b8      	str	r0, [r7, #8]

    /* Wait till PLL is disabled */
    while(__HAL_RCC_GET_FLAG(RCC_FLAG_PLL2RDY) != 0U)
 8106ef0:	e008      	b.n	8106f04 <RCCEx_PLL2_Config+0x44>
    {
      if( (HAL_GetTick() - tickstart ) > PLL2_TIMEOUT_VALUE)
 8106ef2:	f7fb fd0b 	bl	810290c <HAL_GetTick>
 8106ef6:	4602      	mov	r2, r0
 8106ef8:	68bb      	ldr	r3, [r7, #8]
 8106efa:	1ad3      	subs	r3, r2, r3
 8106efc:	2b02      	cmp	r3, #2
 8106efe:	d901      	bls.n	8106f04 <RCCEx_PLL2_Config+0x44>
      {
        return HAL_TIMEOUT;
 8106f00:	2303      	movs	r3, #3
 8106f02:	e088      	b.n	8107016 <RCCEx_PLL2_Config+0x156>
    while(__HAL_RCC_GET_FLAG(RCC_FLAG_PLL2RDY) != 0U)
 8106f04:	4b46      	ldr	r3, [pc, #280]	; (8107020 <RCCEx_PLL2_Config+0x160>)
 8106f06:	681b      	ldr	r3, [r3, #0]
 8106f08:	f003 6300 	and.w	r3, r3, #134217728	; 0x8000000
 8106f0c:	2b00      	cmp	r3, #0
 8106f0e:	d1f0      	bne.n	8106ef2 <RCCEx_PLL2_Config+0x32>
      }
    }

    /* Configure PLL2 multiplication and division factors. */
    __HAL_RCC_PLL2_CONFIG(pll2->PLL2M,
 8106f10:	4b43      	ldr	r3, [pc, #268]	; (8107020 <RCCEx_PLL2_Config+0x160>)
 8106f12:	6a9b      	ldr	r3, [r3, #40]	; 0x28
 8106f14:	f423 327c 	bic.w	r2, r3, #258048	; 0x3f000
 8106f18:	687b      	ldr	r3, [r7, #4]
 8106f1a:	681b      	ldr	r3, [r3, #0]
 8106f1c:	031b      	lsls	r3, r3, #12
 8106f1e:	4940      	ldr	r1, [pc, #256]	; (8107020 <RCCEx_PLL2_Config+0x160>)
 8106f20:	4313      	orrs	r3, r2
 8106f22:	628b      	str	r3, [r1, #40]	; 0x28
 8106f24:	687b      	ldr	r3, [r7, #4]
 8106f26:	685b      	ldr	r3, [r3, #4]
 8106f28:	3b01      	subs	r3, #1
 8106f2a:	f3c3 0208 	ubfx	r2, r3, #0, #9
 8106f2e:	687b      	ldr	r3, [r7, #4]
 8106f30:	689b      	ldr	r3, [r3, #8]
 8106f32:	3b01      	subs	r3, #1
 8106f34:	025b      	lsls	r3, r3, #9
 8106f36:	b29b      	uxth	r3, r3
 8106f38:	431a      	orrs	r2, r3
 8106f3a:	687b      	ldr	r3, [r7, #4]
 8106f3c:	68db      	ldr	r3, [r3, #12]
 8106f3e:	3b01      	subs	r3, #1
 8106f40:	041b      	lsls	r3, r3, #16
 8106f42:	f403 03fe 	and.w	r3, r3, #8323072	; 0x7f0000
 8106f46:	431a      	orrs	r2, r3
 8106f48:	687b      	ldr	r3, [r7, #4]
 8106f4a:	691b      	ldr	r3, [r3, #16]
 8106f4c:	3b01      	subs	r3, #1
 8106f4e:	061b      	lsls	r3, r3, #24
 8106f50:	f003 43fe 	and.w	r3, r3, #2130706432	; 0x7f000000
 8106f54:	4932      	ldr	r1, [pc, #200]	; (8107020 <RCCEx_PLL2_Config+0x160>)
 8106f56:	4313      	orrs	r3, r2
 8106f58:	638b      	str	r3, [r1, #56]	; 0x38
                          pll2->PLL2P,
                          pll2->PLL2Q,
                          pll2->PLL2R);

    /* Select PLL2 input reference frequency range: VCI */
    __HAL_RCC_PLL2_VCIRANGE(pll2->PLL2RGE) ;
 8106f5a:	4b31      	ldr	r3, [pc, #196]	; (8107020 <RCCEx_PLL2_Config+0x160>)
 8106f5c:	6adb      	ldr	r3, [r3, #44]	; 0x2c
 8106f5e:	f023 02c0 	bic.w	r2, r3, #192	; 0xc0
 8106f62:	687b      	ldr	r3, [r7, #4]
 8106f64:	695b      	ldr	r3, [r3, #20]
 8106f66:	492e      	ldr	r1, [pc, #184]	; (8107020 <RCCEx_PLL2_Config+0x160>)
 8106f68:	4313      	orrs	r3, r2
 8106f6a:	62cb      	str	r3, [r1, #44]	; 0x2c

    /* Select PLL2 output frequency range : VCO */
    __HAL_RCC_PLL2_VCORANGE(pll2->PLL2VCOSEL) ;
 8106f6c:	4b2c      	ldr	r3, [pc, #176]	; (8107020 <RCCEx_PLL2_Config+0x160>)
 8106f6e:	6adb      	ldr	r3, [r3, #44]	; 0x2c
 8106f70:	f023 0220 	bic.w	r2, r3, #32
 8106f74:	687b      	ldr	r3, [r7, #4]
 8106f76:	699b      	ldr	r3, [r3, #24]
 8106f78:	4929      	ldr	r1, [pc, #164]	; (8107020 <RCCEx_PLL2_Config+0x160>)
 8106f7a:	4313      	orrs	r3, r2
 8106f7c:	62cb      	str	r3, [r1, #44]	; 0x2c

    /* Disable PLL2FRACN . */
    __HAL_RCC_PLL2FRACN_DISABLE();
 8106f7e:	4b28      	ldr	r3, [pc, #160]	; (8107020 <RCCEx_PLL2_Config+0x160>)
 8106f80:	6adb      	ldr	r3, [r3, #44]	; 0x2c
 8106f82:	4a27      	ldr	r2, [pc, #156]	; (8107020 <RCCEx_PLL2_Config+0x160>)
 8106f84:	f023 0310 	bic.w	r3, r3, #16
 8106f88:	62d3      	str	r3, [r2, #44]	; 0x2c

    /* Configures PLL2 clock Fractional Part Of The Multiplication Factor */
    __HAL_RCC_PLL2FRACN_CONFIG(pll2->PLL2FRACN);
 8106f8a:	4b25      	ldr	r3, [pc, #148]	; (8107020 <RCCEx_PLL2_Config+0x160>)
 8106f8c:	6bdb      	ldr	r3, [r3, #60]	; 0x3c
 8106f8e:	f423 437f 	bic.w	r3, r3, #65280	; 0xff00
 8106f92:	f023 03f8 	bic.w	r3, r3, #248	; 0xf8
 8106f96:	687a      	ldr	r2, [r7, #4]
 8106f98:	69d2      	ldr	r2, [r2, #28]
 8106f9a:	00d2      	lsls	r2, r2, #3
 8106f9c:	4920      	ldr	r1, [pc, #128]	; (8107020 <RCCEx_PLL2_Config+0x160>)
 8106f9e:	4313      	orrs	r3, r2
 8106fa0:	63cb      	str	r3, [r1, #60]	; 0x3c

    /* Enable PLL2FRACN . */
    __HAL_RCC_PLL2FRACN_ENABLE();
 8106fa2:	4b1f      	ldr	r3, [pc, #124]	; (8107020 <RCCEx_PLL2_Config+0x160>)
 8106fa4:	6adb      	ldr	r3, [r3, #44]	; 0x2c
 8106fa6:	4a1e      	ldr	r2, [pc, #120]	; (8107020 <RCCEx_PLL2_Config+0x160>)
 8106fa8:	f043 0310 	orr.w	r3, r3, #16
 8106fac:	62d3      	str	r3, [r2, #44]	; 0x2c

    /* Enable the PLL2 clock output */
    if(Divider == DIVIDER_P_UPDATE)
 8106fae:	683b      	ldr	r3, [r7, #0]
 8106fb0:	2b00      	cmp	r3, #0
 8106fb2:	d106      	bne.n	8106fc2 <RCCEx_PLL2_Config+0x102>
    {
      __HAL_RCC_PLL2CLKOUT_ENABLE(RCC_PLL2_DIVP);
 8106fb4:	4b1a      	ldr	r3, [pc, #104]	; (8107020 <RCCEx_PLL2_Config+0x160>)
 8106fb6:	6adb      	ldr	r3, [r3, #44]	; 0x2c
 8106fb8:	4a19      	ldr	r2, [pc, #100]	; (8107020 <RCCEx_PLL2_Config+0x160>)
 8106fba:	f443 2300 	orr.w	r3, r3, #524288	; 0x80000
 8106fbe:	62d3      	str	r3, [r2, #44]	; 0x2c
 8106fc0:	e00f      	b.n	8106fe2 <RCCEx_PLL2_Config+0x122>
    }
    else if(Divider == DIVIDER_Q_UPDATE)
 8106fc2:	683b      	ldr	r3, [r7, #0]
 8106fc4:	2b01      	cmp	r3, #1
 8106fc6:	d106      	bne.n	8106fd6 <RCCEx_PLL2_Config+0x116>
    {
      __HAL_RCC_PLL2CLKOUT_ENABLE(RCC_PLL2_DIVQ);
 8106fc8:	4b15      	ldr	r3, [pc, #84]	; (8107020 <RCCEx_PLL2_Config+0x160>)
 8106fca:	6adb      	ldr	r3, [r3, #44]	; 0x2c
 8106fcc:	4a14      	ldr	r2, [pc, #80]	; (8107020 <RCCEx_PLL2_Config+0x160>)
 8106fce:	f443 1380 	orr.w	r3, r3, #1048576	; 0x100000
 8106fd2:	62d3      	str	r3, [r2, #44]	; 0x2c
 8106fd4:	e005      	b.n	8106fe2 <RCCEx_PLL2_Config+0x122>
    }
    else
    {
      __HAL_RCC_PLL2CLKOUT_ENABLE(RCC_PLL2_DIVR);
 8106fd6:	4b12      	ldr	r3, [pc, #72]	; (8107020 <RCCEx_PLL2_Config+0x160>)
 8106fd8:	6adb      	ldr	r3, [r3, #44]	; 0x2c
 8106fda:	4a11      	ldr	r2, [pc, #68]	; (8107020 <RCCEx_PLL2_Config+0x160>)
 8106fdc:	f443 1300 	orr.w	r3, r3, #2097152	; 0x200000
 8106fe0:	62d3      	str	r3, [r2, #44]	; 0x2c
    }

    /* Enable  PLL2. */
    __HAL_RCC_PLL2_ENABLE();
 8106fe2:	4b0f      	ldr	r3, [pc, #60]	; (8107020 <RCCEx_PLL2_Config+0x160>)
 8106fe4:	681b      	ldr	r3, [r3, #0]
 8106fe6:	4a0e      	ldr	r2, [pc, #56]	; (8107020 <RCCEx_PLL2_Config+0x160>)
 8106fe8:	f043 6380 	orr.w	r3, r3, #67108864	; 0x4000000
 8106fec:	6013      	str	r3, [r2, #0]

    /* Get Start Tick*/
    tickstart = HAL_GetTick();
 8106fee:	f7fb fc8d 	bl	810290c <HAL_GetTick>
 8106ff2:	60b8      	str	r0, [r7, #8]

    /* Wait till PLL2 is ready */
    while(__HAL_RCC_GET_FLAG(RCC_FLAG_PLL2RDY) == 0U)
 8106ff4:	e008      	b.n	8107008 <RCCEx_PLL2_Config+0x148>
    {
      if( (HAL_GetTick() - tickstart ) > PLL2_TIMEOUT_VALUE)
 8106ff6:	f7fb fc89 	bl	810290c <HAL_GetTick>
 8106ffa:	4602      	mov	r2, r0
 8106ffc:	68bb      	ldr	r3, [r7, #8]
 8106ffe:	1ad3      	subs	r3, r2, r3
 8107000:	2b02      	cmp	r3, #2
 8107002:	d901      	bls.n	8107008 <RCCEx_PLL2_Config+0x148>
      {
        return HAL_TIMEOUT;
 8107004:	2303      	movs	r3, #3
 8107006:	e006      	b.n	8107016 <RCCEx_PLL2_Config+0x156>
    while(__HAL_RCC_GET_FLAG(RCC_FLAG_PLL2RDY) == 0U)
 8107008:	4b05      	ldr	r3, [pc, #20]	; (8107020 <RCCEx_PLL2_Config+0x160>)
 810700a:	681b      	ldr	r3, [r3, #0]
 810700c:	f003 6300 	and.w	r3, r3, #134217728	; 0x8000000
 8107010:	2b00      	cmp	r3, #0
 8107012:	d0f0      	beq.n	8106ff6 <RCCEx_PLL2_Config+0x136>
    }

  }


  return status;
 8107014:	7bfb      	ldrb	r3, [r7, #15]
}
 8107016:	4618      	mov	r0, r3
 8107018:	3710      	adds	r7, #16
 810701a:	46bd      	mov	sp, r7
 810701c:	bd80      	pop	{r7, pc}
 810701e:	bf00      	nop
 8107020:	58024400 	.word	0x58024400

08107024 <RCCEx_PLL3_Config>:
  * @note   PLL3 is temporary disabled to apply new parameters
  *
  * @retval HAL status
  */
static HAL_StatusTypeDef RCCEx_PLL3_Config(RCC_PLL3InitTypeDef *pll3, uint32_t Divider)
{
 8107024:	b580      	push	{r7, lr}
 8107026:	b084      	sub	sp, #16
 8107028:	af00      	add	r7, sp, #0
 810702a:	6078      	str	r0, [r7, #4]
 810702c:	6039      	str	r1, [r7, #0]
  uint32_t tickstart;
  HAL_StatusTypeDef status = HAL_OK;
 810702e:	2300      	movs	r3, #0
 8107030:	73fb      	strb	r3, [r7, #15]
  assert_param(IS_RCC_PLL3RGE_VALUE(pll3->PLL3RGE));
  assert_param(IS_RCC_PLL3VCO_VALUE(pll3->PLL3VCOSEL));
  assert_param(IS_RCC_PLLFRACN_VALUE(pll3->PLL3FRACN));

  /* Check that PLL3 OSC clock source is already set */
  if(__HAL_RCC_GET_PLL_OSCSOURCE() == RCC_PLLSOURCE_NONE)
 8107032:	4b54      	ldr	r3, [pc, #336]	; (8107184 <RCCEx_PLL3_Config+0x160>)
 8107034:	6a9b      	ldr	r3, [r3, #40]	; 0x28
 8107036:	f003 0303 	and.w	r3, r3, #3
 810703a:	2b03      	cmp	r3, #3
 810703c:	d101      	bne.n	8107042 <RCCEx_PLL3_Config+0x1e>
  {
    return HAL_ERROR;
 810703e:	2301      	movs	r3, #1
 8107040:	e09b      	b.n	810717a <RCCEx_PLL3_Config+0x156>


  else
  {
    /* Disable  PLL3. */
    __HAL_RCC_PLL3_DISABLE();
 8107042:	4b50      	ldr	r3, [pc, #320]	; (8107184 <RCCEx_PLL3_Config+0x160>)
 8107044:	681b      	ldr	r3, [r3, #0]
 8107046:	4a4f      	ldr	r2, [pc, #316]	; (8107184 <RCCEx_PLL3_Config+0x160>)
 8107048:	f023 5380 	bic.w	r3, r3, #268435456	; 0x10000000
 810704c:	6013      	str	r3, [r2, #0]

    /* Get Start Tick*/
    tickstart = HAL_GetTick();
 810704e:	f7fb fc5d 	bl	810290c <HAL_GetTick>
 8107052:	60b8      	str	r0, [r7, #8]
    /* Wait till PLL3 is ready */
    while(__HAL_RCC_GET_FLAG(RCC_FLAG_PLL3RDY) != 0U)
 8107054:	e008      	b.n	8107068 <RCCEx_PLL3_Config+0x44>
    {
      if( (HAL_GetTick() - tickstart ) > PLL3_TIMEOUT_VALUE)
 8107056:	f7fb fc59 	bl	810290c <HAL_GetTick>
 810705a:	4602      	mov	r2, r0
 810705c:	68bb      	ldr	r3, [r7, #8]
 810705e:	1ad3      	subs	r3, r2, r3
 8107060:	2b02      	cmp	r3, #2
 8107062:	d901      	bls.n	8107068 <RCCEx_PLL3_Config+0x44>
      {
        return HAL_TIMEOUT;
 8107064:	2303      	movs	r3, #3
 8107066:	e088      	b.n	810717a <RCCEx_PLL3_Config+0x156>
    while(__HAL_RCC_GET_FLAG(RCC_FLAG_PLL3RDY) != 0U)
 8107068:	4b46      	ldr	r3, [pc, #280]	; (8107184 <RCCEx_PLL3_Config+0x160>)
 810706a:	681b      	ldr	r3, [r3, #0]
 810706c:	f003 5300 	and.w	r3, r3, #536870912	; 0x20000000
 8107070:	2b00      	cmp	r3, #0
 8107072:	d1f0      	bne.n	8107056 <RCCEx_PLL3_Config+0x32>
      }
    }

    /* Configure the PLL3  multiplication and division factors. */
    __HAL_RCC_PLL3_CONFIG(pll3->PLL3M,
 8107074:	4b43      	ldr	r3, [pc, #268]	; (8107184 <RCCEx_PLL3_Config+0x160>)
 8107076:	6a9b      	ldr	r3, [r3, #40]	; 0x28
 8107078:	f023 727c 	bic.w	r2, r3, #66060288	; 0x3f00000
 810707c:	687b      	ldr	r3, [r7, #4]
 810707e:	681b      	ldr	r3, [r3, #0]
 8107080:	051b      	lsls	r3, r3, #20
 8107082:	4940      	ldr	r1, [pc, #256]	; (8107184 <RCCEx_PLL3_Config+0x160>)
 8107084:	4313      	orrs	r3, r2
 8107086:	628b      	str	r3, [r1, #40]	; 0x28
 8107088:	687b      	ldr	r3, [r7, #4]
 810708a:	685b      	ldr	r3, [r3, #4]
 810708c:	3b01      	subs	r3, #1
 810708e:	f3c3 0208 	ubfx	r2, r3, #0, #9
 8107092:	687b      	ldr	r3, [r7, #4]
 8107094:	689b      	ldr	r3, [r3, #8]
 8107096:	3b01      	subs	r3, #1
 8107098:	025b      	lsls	r3, r3, #9
 810709a:	b29b      	uxth	r3, r3
 810709c:	431a      	orrs	r2, r3
 810709e:	687b      	ldr	r3, [r7, #4]
 81070a0:	68db      	ldr	r3, [r3, #12]
 81070a2:	3b01      	subs	r3, #1
 81070a4:	041b      	lsls	r3, r3, #16
 81070a6:	f403 03fe 	and.w	r3, r3, #8323072	; 0x7f0000
 81070aa:	431a      	orrs	r2, r3
 81070ac:	687b      	ldr	r3, [r7, #4]
 81070ae:	691b      	ldr	r3, [r3, #16]
 81070b0:	3b01      	subs	r3, #1
 81070b2:	061b      	lsls	r3, r3, #24
 81070b4:	f003 43fe 	and.w	r3, r3, #2130706432	; 0x7f000000
 81070b8:	4932      	ldr	r1, [pc, #200]	; (8107184 <RCCEx_PLL3_Config+0x160>)
 81070ba:	4313      	orrs	r3, r2
 81070bc:	640b      	str	r3, [r1, #64]	; 0x40
                          pll3->PLL3P,
                          pll3->PLL3Q,
                          pll3->PLL3R);

    /* Select PLL3 input reference frequency range: VCI */
    __HAL_RCC_PLL3_VCIRANGE(pll3->PLL3RGE) ;
 81070be:	4b31      	ldr	r3, [pc, #196]	; (8107184 <RCCEx_PLL3_Config+0x160>)
 81070c0:	6adb      	ldr	r3, [r3, #44]	; 0x2c
 81070c2:	f423 6240 	bic.w	r2, r3, #3072	; 0xc00
 81070c6:	687b      	ldr	r3, [r7, #4]
 81070c8:	695b      	ldr	r3, [r3, #20]
 81070ca:	492e      	ldr	r1, [pc, #184]	; (8107184 <RCCEx_PLL3_Config+0x160>)
 81070cc:	4313      	orrs	r3, r2
 81070ce:	62cb      	str	r3, [r1, #44]	; 0x2c

    /* Select PLL3 output frequency range : VCO */
    __HAL_RCC_PLL3_VCORANGE(pll3->PLL3VCOSEL) ;
 81070d0:	4b2c      	ldr	r3, [pc, #176]	; (8107184 <RCCEx_PLL3_Config+0x160>)
 81070d2:	6adb      	ldr	r3, [r3, #44]	; 0x2c
 81070d4:	f423 7200 	bic.w	r2, r3, #512	; 0x200
 81070d8:	687b      	ldr	r3, [r7, #4]
 81070da:	699b      	ldr	r3, [r3, #24]
 81070dc:	4929      	ldr	r1, [pc, #164]	; (8107184 <RCCEx_PLL3_Config+0x160>)
 81070de:	4313      	orrs	r3, r2
 81070e0:	62cb      	str	r3, [r1, #44]	; 0x2c

    /* Disable PLL3FRACN . */
    __HAL_RCC_PLL3FRACN_DISABLE();
 81070e2:	4b28      	ldr	r3, [pc, #160]	; (8107184 <RCCEx_PLL3_Config+0x160>)
 81070e4:	6adb      	ldr	r3, [r3, #44]	; 0x2c
 81070e6:	4a27      	ldr	r2, [pc, #156]	; (8107184 <RCCEx_PLL3_Config+0x160>)
 81070e8:	f423 7380 	bic.w	r3, r3, #256	; 0x100
 81070ec:	62d3      	str	r3, [r2, #44]	; 0x2c

    /* Configures PLL3 clock Fractional Part Of The Multiplication Factor */
    __HAL_RCC_PLL3FRACN_CONFIG(pll3->PLL3FRACN);
 81070ee:	4b25      	ldr	r3, [pc, #148]	; (8107184 <RCCEx_PLL3_Config+0x160>)
 81070f0:	6c5b      	ldr	r3, [r3, #68]	; 0x44
 81070f2:	f423 437f 	bic.w	r3, r3, #65280	; 0xff00
 81070f6:	f023 03f8 	bic.w	r3, r3, #248	; 0xf8
 81070fa:	687a      	ldr	r2, [r7, #4]
 81070fc:	69d2      	ldr	r2, [r2, #28]
 81070fe:	00d2      	lsls	r2, r2, #3
 8107100:	4920      	ldr	r1, [pc, #128]	; (8107184 <RCCEx_PLL3_Config+0x160>)
 8107102:	4313      	orrs	r3, r2
 8107104:	644b      	str	r3, [r1, #68]	; 0x44

    /* Enable PLL3FRACN . */
    __HAL_RCC_PLL3FRACN_ENABLE();
 8107106:	4b1f      	ldr	r3, [pc, #124]	; (8107184 <RCCEx_PLL3_Config+0x160>)
 8107108:	6adb      	ldr	r3, [r3, #44]	; 0x2c
 810710a:	4a1e      	ldr	r2, [pc, #120]	; (8107184 <RCCEx_PLL3_Config+0x160>)
 810710c:	f443 7380 	orr.w	r3, r3, #256	; 0x100
 8107110:	62d3      	str	r3, [r2, #44]	; 0x2c

    /* Enable the PLL3 clock output */
    if(Divider == DIVIDER_P_UPDATE)
 8107112:	683b      	ldr	r3, [r7, #0]
 8107114:	2b00      	cmp	r3, #0
 8107116:	d106      	bne.n	8107126 <RCCEx_PLL3_Config+0x102>
    {
      __HAL_RCC_PLL3CLKOUT_ENABLE(RCC_PLL3_DIVP);
 8107118:	4b1a      	ldr	r3, [pc, #104]	; (8107184 <RCCEx_PLL3_Config+0x160>)
 810711a:	6adb      	ldr	r3, [r3, #44]	; 0x2c
 810711c:	4a19      	ldr	r2, [pc, #100]	; (8107184 <RCCEx_PLL3_Config+0x160>)
 810711e:	f443 0380 	orr.w	r3, r3, #4194304	; 0x400000
 8107122:	62d3      	str	r3, [r2, #44]	; 0x2c
 8107124:	e00f      	b.n	8107146 <RCCEx_PLL3_Config+0x122>
    }
    else if(Divider == DIVIDER_Q_UPDATE)
 8107126:	683b      	ldr	r3, [r7, #0]
 8107128:	2b01      	cmp	r3, #1
 810712a:	d106      	bne.n	810713a <RCCEx_PLL3_Config+0x116>
    {
      __HAL_RCC_PLL3CLKOUT_ENABLE(RCC_PLL3_DIVQ);
 810712c:	4b15      	ldr	r3, [pc, #84]	; (8107184 <RCCEx_PLL3_Config+0x160>)
 810712e:	6adb      	ldr	r3, [r3, #44]	; 0x2c
 8107130:	4a14      	ldr	r2, [pc, #80]	; (8107184 <RCCEx_PLL3_Config+0x160>)
 8107132:	f443 0300 	orr.w	r3, r3, #8388608	; 0x800000
 8107136:	62d3      	str	r3, [r2, #44]	; 0x2c
 8107138:	e005      	b.n	8107146 <RCCEx_PLL3_Config+0x122>
    }
    else
    {
      __HAL_RCC_PLL3CLKOUT_ENABLE(RCC_PLL3_DIVR);
 810713a:	4b12      	ldr	r3, [pc, #72]	; (8107184 <RCCEx_PLL3_Config+0x160>)
 810713c:	6adb      	ldr	r3, [r3, #44]	; 0x2c
 810713e:	4a11      	ldr	r2, [pc, #68]	; (8107184 <RCCEx_PLL3_Config+0x160>)
 8107140:	f043 7380 	orr.w	r3, r3, #16777216	; 0x1000000
 8107144:	62d3      	str	r3, [r2, #44]	; 0x2c
    }

    /* Enable  PLL3. */
    __HAL_RCC_PLL3_ENABLE();
 8107146:	4b0f      	ldr	r3, [pc, #60]	; (8107184 <RCCEx_PLL3_Config+0x160>)
 8107148:	681b      	ldr	r3, [r3, #0]
 810714a:	4a0e      	ldr	r2, [pc, #56]	; (8107184 <RCCEx_PLL3_Config+0x160>)
 810714c:	f043 5380 	orr.w	r3, r3, #268435456	; 0x10000000
 8107150:	6013      	str	r3, [r2, #0]

    /* Get Start Tick*/
    tickstart = HAL_GetTick();
 8107152:	f7fb fbdb 	bl	810290c <HAL_GetTick>
 8107156:	60b8      	str	r0, [r7, #8]

    /* Wait till PLL3 is ready */
    while(__HAL_RCC_GET_FLAG(RCC_FLAG_PLL3RDY) == 0U)
 8107158:	e008      	b.n	810716c <RCCEx_PLL3_Config+0x148>
    {
      if( (HAL_GetTick() - tickstart ) > PLL3_TIMEOUT_VALUE)
 810715a:	f7fb fbd7 	bl	810290c <HAL_GetTick>
 810715e:	4602      	mov	r2, r0
 8107160:	68bb      	ldr	r3, [r7, #8]
 8107162:	1ad3      	subs	r3, r2, r3
 8107164:	2b02      	cmp	r3, #2
 8107166:	d901      	bls.n	810716c <RCCEx_PLL3_Config+0x148>
      {
        return HAL_TIMEOUT;
 8107168:	2303      	movs	r3, #3
 810716a:	e006      	b.n	810717a <RCCEx_PLL3_Config+0x156>
    while(__HAL_RCC_GET_FLAG(RCC_FLAG_PLL3RDY) == 0U)
 810716c:	4b05      	ldr	r3, [pc, #20]	; (8107184 <RCCEx_PLL3_Config+0x160>)
 810716e:	681b      	ldr	r3, [r3, #0]
 8107170:	f003 5300 	and.w	r3, r3, #536870912	; 0x20000000
 8107174:	2b00      	cmp	r3, #0
 8107176:	d0f0      	beq.n	810715a <RCCEx_PLL3_Config+0x136>
    }

  }


  return status;
 8107178:	7bfb      	ldrb	r3, [r7, #15]
}
 810717a:	4618      	mov	r0, r3
 810717c:	3710      	adds	r7, #16
 810717e:	46bd      	mov	sp, r7
 8107180:	bd80      	pop	{r7, pc}
 8107182:	bf00      	nop
 8107184:	58024400 	.word	0x58024400

08107188 <HAL_TIM_Base_Init>:
  *         Ex: call @ref HAL_TIM_Base_DeInit() before HAL_TIM_Base_Init()
  * @param  htim TIM Base handle
  * @retval HAL status
  */
HAL_StatusTypeDef HAL_TIM_Base_Init(TIM_HandleTypeDef *htim)
{
 8107188:	b580      	push	{r7, lr}
 810718a:	b082      	sub	sp, #8
 810718c:	af00      	add	r7, sp, #0
 810718e:	6078      	str	r0, [r7, #4]
  /* Check the TIM handle allocation */
  if (htim == NULL)
 8107190:	687b      	ldr	r3, [r7, #4]
 8107192:	2b00      	cmp	r3, #0
 8107194:	d101      	bne.n	810719a <HAL_TIM_Base_Init+0x12>
  {
    return HAL_ERROR;
 8107196:	2301      	movs	r3, #1
 8107198:	e049      	b.n	810722e <HAL_TIM_Base_Init+0xa6>
  assert_param(IS_TIM_INSTANCE(htim->Instance));
  assert_param(IS_TIM_COUNTER_MODE(htim->Init.CounterMode));
  assert_param(IS_TIM_CLOCKDIVISION_DIV(htim->Init.ClockDivision));
  assert_param(IS_TIM_AUTORELOAD_PRELOAD(htim->Init.AutoReloadPreload));

  if (htim->State == HAL_TIM_STATE_RESET)
 810719a:	687b      	ldr	r3, [r7, #4]
 810719c:	f893 303d 	ldrb.w	r3, [r3, #61]	; 0x3d
 81071a0:	b2db      	uxtb	r3, r3
 81071a2:	2b00      	cmp	r3, #0
 81071a4:	d106      	bne.n	81071b4 <HAL_TIM_Base_Init+0x2c>
  {
    /* Allocate lock resource and initialize it */
    htim->Lock = HAL_UNLOCKED;
 81071a6:	687b      	ldr	r3, [r7, #4]
 81071a8:	2200      	movs	r2, #0
 81071aa:	f883 203c 	strb.w	r2, [r3, #60]	; 0x3c
    }
    /* Init the low level hardware : GPIO, CLOCK, NVIC */
    htim->Base_MspInitCallback(htim);
#else
    /* Init the low level hardware : GPIO, CLOCK, NVIC */
    HAL_TIM_Base_MspInit(htim);
 81071ae:	6878      	ldr	r0, [r7, #4]
 81071b0:	f7fb f8da 	bl	8102368 <HAL_TIM_Base_MspInit>
#endif /* USE_HAL_TIM_REGISTER_CALLBACKS */
  }

  /* Set the TIM state */
  htim->State = HAL_TIM_STATE_BUSY;
 81071b4:	687b      	ldr	r3, [r7, #4]
 81071b6:	2202      	movs	r2, #2
 81071b8:	f883 203d 	strb.w	r2, [r3, #61]	; 0x3d

  /* Set the Time Base configuration */
  TIM_Base_SetConfig(htim->Instance, &htim->Init);
 81071bc:	687b      	ldr	r3, [r7, #4]
 81071be:	681a      	ldr	r2, [r3, #0]
 81071c0:	687b      	ldr	r3, [r7, #4]
 81071c2:	3304      	adds	r3, #4
 81071c4:	4619      	mov	r1, r3
 81071c6:	4610      	mov	r0, r2
 81071c8:	f000 fc02 	bl	81079d0 <TIM_Base_SetConfig>

  /* Initialize the DMA burst operation state */
  htim->DMABurstState = HAL_DMA_BURST_STATE_READY;
 81071cc:	687b      	ldr	r3, [r7, #4]
 81071ce:	2201      	movs	r2, #1
 81071d0:	f883 2048 	strb.w	r2, [r3, #72]	; 0x48

  /* Initialize the TIM channels state */
  TIM_CHANNEL_STATE_SET_ALL(htim, HAL_TIM_CHANNEL_STATE_READY);
 81071d4:	687b      	ldr	r3, [r7, #4]
 81071d6:	2201      	movs	r2, #1
 81071d8:	f883 203e 	strb.w	r2, [r3, #62]	; 0x3e
 81071dc:	687b      	ldr	r3, [r7, #4]
 81071de:	2201      	movs	r2, #1
 81071e0:	f883 203f 	strb.w	r2, [r3, #63]	; 0x3f
 81071e4:	687b      	ldr	r3, [r7, #4]
 81071e6:	2201      	movs	r2, #1
 81071e8:	f883 2040 	strb.w	r2, [r3, #64]	; 0x40
 81071ec:	687b      	ldr	r3, [r7, #4]
 81071ee:	2201      	movs	r2, #1
 81071f0:	f883 2041 	strb.w	r2, [r3, #65]	; 0x41
 81071f4:	687b      	ldr	r3, [r7, #4]
 81071f6:	2201      	movs	r2, #1
 81071f8:	f883 2042 	strb.w	r2, [r3, #66]	; 0x42
 81071fc:	687b      	ldr	r3, [r7, #4]
 81071fe:	2201      	movs	r2, #1
 8107200:	f883 2043 	strb.w	r2, [r3, #67]	; 0x43
  TIM_CHANNEL_N_STATE_SET_ALL(htim, HAL_TIM_CHANNEL_STATE_READY);
 8107204:	687b      	ldr	r3, [r7, #4]
 8107206:	2201      	movs	r2, #1
 8107208:	f883 2044 	strb.w	r2, [r3, #68]	; 0x44
 810720c:	687b      	ldr	r3, [r7, #4]
 810720e:	2201      	movs	r2, #1
 8107210:	f883 2045 	strb.w	r2, [r3, #69]	; 0x45
 8107214:	687b      	ldr	r3, [r7, #4]
 8107216:	2201      	movs	r2, #1
 8107218:	f883 2046 	strb.w	r2, [r3, #70]	; 0x46
 810721c:	687b      	ldr	r3, [r7, #4]
 810721e:	2201      	movs	r2, #1
 8107220:	f883 2047 	strb.w	r2, [r3, #71]	; 0x47

  /* Initialize the TIM state*/
  htim->State = HAL_TIM_STATE_READY;
 8107224:	687b      	ldr	r3, [r7, #4]
 8107226:	2201      	movs	r2, #1
 8107228:	f883 203d 	strb.w	r2, [r3, #61]	; 0x3d

  return HAL_OK;
 810722c:	2300      	movs	r3, #0
}
 810722e:	4618      	mov	r0, r3
 8107230:	3708      	adds	r7, #8
 8107232:	46bd      	mov	sp, r7
 8107234:	bd80      	pop	{r7, pc}

08107236 <HAL_TIM_PWM_Init>:
  *         Ex: call @ref HAL_TIM_PWM_DeInit() before HAL_TIM_PWM_Init()
  * @param  htim TIM PWM handle
  * @retval HAL status
  */
HAL_StatusTypeDef HAL_TIM_PWM_Init(TIM_HandleTypeDef *htim)
{
 8107236:	b580      	push	{r7, lr}
 8107238:	b082      	sub	sp, #8
 810723a:	af00      	add	r7, sp, #0
 810723c:	6078      	str	r0, [r7, #4]
  /* Check the TIM handle allocation */
  if (htim == NULL)
 810723e:	687b      	ldr	r3, [r7, #4]
 8107240:	2b00      	cmp	r3, #0
 8107242:	d101      	bne.n	8107248 <HAL_TIM_PWM_Init+0x12>
  {
    return HAL_ERROR;
 8107244:	2301      	movs	r3, #1
 8107246:	e049      	b.n	81072dc <HAL_TIM_PWM_Init+0xa6>
  assert_param(IS_TIM_INSTANCE(htim->Instance));
  assert_param(IS_TIM_COUNTER_MODE(htim->Init.CounterMode));
  assert_param(IS_TIM_CLOCKDIVISION_DIV(htim->Init.ClockDivision));
  assert_param(IS_TIM_AUTORELOAD_PRELOAD(htim->Init.AutoReloadPreload));

  if (htim->State == HAL_TIM_STATE_RESET)
 8107248:	687b      	ldr	r3, [r7, #4]
 810724a:	f893 303d 	ldrb.w	r3, [r3, #61]	; 0x3d
 810724e:	b2db      	uxtb	r3, r3
 8107250:	2b00      	cmp	r3, #0
 8107252:	d106      	bne.n	8107262 <HAL_TIM_PWM_Init+0x2c>
  {
    /* Allocate lock resource and initialize it */
    htim->Lock = HAL_UNLOCKED;
 8107254:	687b      	ldr	r3, [r7, #4]
 8107256:	2200      	movs	r2, #0
 8107258:	f883 203c 	strb.w	r2, [r3, #60]	; 0x3c
    }
    /* Init the low level hardware : GPIO, CLOCK, NVIC */
    htim->PWM_MspInitCallback(htim);
#else
    /* Init the low level hardware : GPIO, CLOCK, NVIC and DMA */
    HAL_TIM_PWM_MspInit(htim);
 810725c:	6878      	ldr	r0, [r7, #4]
 810725e:	f7fa ffbf 	bl	81021e0 <HAL_TIM_PWM_MspInit>
#endif /* USE_HAL_TIM_REGISTER_CALLBACKS */
  }

  /* Set the TIM state */
  htim->State = HAL_TIM_STATE_BUSY;
 8107262:	687b      	ldr	r3, [r7, #4]
 8107264:	2202      	movs	r2, #2
 8107266:	f883 203d 	strb.w	r2, [r3, #61]	; 0x3d

  /* Init the base time for the PWM */
  TIM_Base_SetConfig(htim->Instance, &htim->Init);
 810726a:	687b      	ldr	r3, [r7, #4]
 810726c:	681a      	ldr	r2, [r3, #0]
 810726e:	687b      	ldr	r3, [r7, #4]
 8107270:	3304      	adds	r3, #4
 8107272:	4619      	mov	r1, r3
 8107274:	4610      	mov	r0, r2
 8107276:	f000 fbab 	bl	81079d0 <TIM_Base_SetConfig>

  /* Initialize the DMA burst operation state */
  htim->DMABurstState = HAL_DMA_BURST_STATE_READY;
 810727a:	687b      	ldr	r3, [r7, #4]
 810727c:	2201      	movs	r2, #1
 810727e:	f883 2048 	strb.w	r2, [r3, #72]	; 0x48

  /* Initialize the TIM channels state */
  TIM_CHANNEL_STATE_SET_ALL(htim, HAL_TIM_CHANNEL_STATE_READY);
 8107282:	687b      	ldr	r3, [r7, #4]
 8107284:	2201      	movs	r2, #1
 8107286:	f883 203e 	strb.w	r2, [r3, #62]	; 0x3e
 810728a:	687b      	ldr	r3, [r7, #4]
 810728c:	2201      	movs	r2, #1
 810728e:	f883 203f 	strb.w	r2, [r3, #63]	; 0x3f
 8107292:	687b      	ldr	r3, [r7, #4]
 8107294:	2201      	movs	r2, #1
 8107296:	f883 2040 	strb.w	r2, [r3, #64]	; 0x40
 810729a:	687b      	ldr	r3, [r7, #4]
 810729c:	2201      	movs	r2, #1
 810729e:	f883 2041 	strb.w	r2, [r3, #65]	; 0x41
 81072a2:	687b      	ldr	r3, [r7, #4]
 81072a4:	2201      	movs	r2, #1
 81072a6:	f883 2042 	strb.w	r2, [r3, #66]	; 0x42
 81072aa:	687b      	ldr	r3, [r7, #4]
 81072ac:	2201      	movs	r2, #1
 81072ae:	f883 2043 	strb.w	r2, [r3, #67]	; 0x43
  TIM_CHANNEL_N_STATE_SET_ALL(htim, HAL_TIM_CHANNEL_STATE_READY);
 81072b2:	687b      	ldr	r3, [r7, #4]
 81072b4:	2201      	movs	r2, #1
 81072b6:	f883 2044 	strb.w	r2, [r3, #68]	; 0x44
 81072ba:	687b      	ldr	r3, [r7, #4]
 81072bc:	2201      	movs	r2, #1
 81072be:	f883 2045 	strb.w	r2, [r3, #69]	; 0x45
 81072c2:	687b      	ldr	r3, [r7, #4]
 81072c4:	2201      	movs	r2, #1
 81072c6:	f883 2046 	strb.w	r2, [r3, #70]	; 0x46
 81072ca:	687b      	ldr	r3, [r7, #4]
 81072cc:	2201      	movs	r2, #1
 81072ce:	f883 2047 	strb.w	r2, [r3, #71]	; 0x47

  /* Initialize the TIM state*/
  htim->State = HAL_TIM_STATE_READY;
 81072d2:	687b      	ldr	r3, [r7, #4]
 81072d4:	2201      	movs	r2, #1
 81072d6:	f883 203d 	strb.w	r2, [r3, #61]	; 0x3d

  return HAL_OK;
 81072da:	2300      	movs	r3, #0
}
 81072dc:	4618      	mov	r0, r3
 81072de:	3708      	adds	r7, #8
 81072e0:	46bd      	mov	sp, r7
 81072e2:	bd80      	pop	{r7, pc}

081072e4 <HAL_TIM_PWM_Start>:
  *            @arg TIM_CHANNEL_5: TIM Channel 5 selected
  *            @arg TIM_CHANNEL_6: TIM Channel 6 selected
  * @retval HAL status
  */
HAL_StatusTypeDef HAL_TIM_PWM_Start(TIM_HandleTypeDef *htim, uint32_t Channel)
{
 81072e4:	b580      	push	{r7, lr}
 81072e6:	b084      	sub	sp, #16
 81072e8:	af00      	add	r7, sp, #0
 81072ea:	6078      	str	r0, [r7, #4]
 81072ec:	6039      	str	r1, [r7, #0]

  /* Check the parameters */
  assert_param(IS_TIM_CCX_INSTANCE(htim->Instance, Channel));

  /* Check the TIM channel state */
  if (TIM_CHANNEL_STATE_GET(htim, Channel) != HAL_TIM_CHANNEL_STATE_READY)
 81072ee:	683b      	ldr	r3, [r7, #0]
 81072f0:	2b00      	cmp	r3, #0
 81072f2:	d109      	bne.n	8107308 <HAL_TIM_PWM_Start+0x24>
 81072f4:	687b      	ldr	r3, [r7, #4]
 81072f6:	f893 303e 	ldrb.w	r3, [r3, #62]	; 0x3e
 81072fa:	b2db      	uxtb	r3, r3
 81072fc:	2b01      	cmp	r3, #1
 81072fe:	bf14      	ite	ne
 8107300:	2301      	movne	r3, #1
 8107302:	2300      	moveq	r3, #0
 8107304:	b2db      	uxtb	r3, r3
 8107306:	e03c      	b.n	8107382 <HAL_TIM_PWM_Start+0x9e>
 8107308:	683b      	ldr	r3, [r7, #0]
 810730a:	2b04      	cmp	r3, #4
 810730c:	d109      	bne.n	8107322 <HAL_TIM_PWM_Start+0x3e>
 810730e:	687b      	ldr	r3, [r7, #4]
 8107310:	f893 303f 	ldrb.w	r3, [r3, #63]	; 0x3f
 8107314:	b2db      	uxtb	r3, r3
 8107316:	2b01      	cmp	r3, #1
 8107318:	bf14      	ite	ne
 810731a:	2301      	movne	r3, #1
 810731c:	2300      	moveq	r3, #0
 810731e:	b2db      	uxtb	r3, r3
 8107320:	e02f      	b.n	8107382 <HAL_TIM_PWM_Start+0x9e>
 8107322:	683b      	ldr	r3, [r7, #0]
 8107324:	2b08      	cmp	r3, #8
 8107326:	d109      	bne.n	810733c <HAL_TIM_PWM_Start+0x58>
 8107328:	687b      	ldr	r3, [r7, #4]
 810732a:	f893 3040 	ldrb.w	r3, [r3, #64]	; 0x40
 810732e:	b2db      	uxtb	r3, r3
 8107330:	2b01      	cmp	r3, #1
 8107332:	bf14      	ite	ne
 8107334:	2301      	movne	r3, #1
 8107336:	2300      	moveq	r3, #0
 8107338:	b2db      	uxtb	r3, r3
 810733a:	e022      	b.n	8107382 <HAL_TIM_PWM_Start+0x9e>
 810733c:	683b      	ldr	r3, [r7, #0]
 810733e:	2b0c      	cmp	r3, #12
 8107340:	d109      	bne.n	8107356 <HAL_TIM_PWM_Start+0x72>
 8107342:	687b      	ldr	r3, [r7, #4]
 8107344:	f893 3041 	ldrb.w	r3, [r3, #65]	; 0x41
 8107348:	b2db      	uxtb	r3, r3
 810734a:	2b01      	cmp	r3, #1
 810734c:	bf14      	ite	ne
 810734e:	2301      	movne	r3, #1
 8107350:	2300      	moveq	r3, #0
 8107352:	b2db      	uxtb	r3, r3
 8107354:	e015      	b.n	8107382 <HAL_TIM_PWM_Start+0x9e>
 8107356:	683b      	ldr	r3, [r7, #0]
 8107358:	2b10      	cmp	r3, #16
 810735a:	d109      	bne.n	8107370 <HAL_TIM_PWM_Start+0x8c>
 810735c:	687b      	ldr	r3, [r7, #4]
 810735e:	f893 3042 	ldrb.w	r3, [r3, #66]	; 0x42
 8107362:	b2db      	uxtb	r3, r3
 8107364:	2b01      	cmp	r3, #1
 8107366:	bf14      	ite	ne
 8107368:	2301      	movne	r3, #1
 810736a:	2300      	moveq	r3, #0
 810736c:	b2db      	uxtb	r3, r3
 810736e:	e008      	b.n	8107382 <HAL_TIM_PWM_Start+0x9e>
 8107370:	687b      	ldr	r3, [r7, #4]
 8107372:	f893 3043 	ldrb.w	r3, [r3, #67]	; 0x43
 8107376:	b2db      	uxtb	r3, r3
 8107378:	2b01      	cmp	r3, #1
 810737a:	bf14      	ite	ne
 810737c:	2301      	movne	r3, #1
 810737e:	2300      	moveq	r3, #0
 8107380:	b2db      	uxtb	r3, r3
 8107382:	2b00      	cmp	r3, #0
 8107384:	d001      	beq.n	810738a <HAL_TIM_PWM_Start+0xa6>
  {
    return HAL_ERROR;
 8107386:	2301      	movs	r3, #1
 8107388:	e0a1      	b.n	81074ce <HAL_TIM_PWM_Start+0x1ea>
  }

  /* Set the TIM channel state */
  TIM_CHANNEL_STATE_SET(htim, Channel, HAL_TIM_CHANNEL_STATE_BUSY);
 810738a:	683b      	ldr	r3, [r7, #0]
 810738c:	2b00      	cmp	r3, #0
 810738e:	d104      	bne.n	810739a <HAL_TIM_PWM_Start+0xb6>
 8107390:	687b      	ldr	r3, [r7, #4]
 8107392:	2202      	movs	r2, #2
 8107394:	f883 203e 	strb.w	r2, [r3, #62]	; 0x3e
 8107398:	e023      	b.n	81073e2 <HAL_TIM_PWM_Start+0xfe>
 810739a:	683b      	ldr	r3, [r7, #0]
 810739c:	2b04      	cmp	r3, #4
 810739e:	d104      	bne.n	81073aa <HAL_TIM_PWM_Start+0xc6>
 81073a0:	687b      	ldr	r3, [r7, #4]
 81073a2:	2202      	movs	r2, #2
 81073a4:	f883 203f 	strb.w	r2, [r3, #63]	; 0x3f
 81073a8:	e01b      	b.n	81073e2 <HAL_TIM_PWM_Start+0xfe>
 81073aa:	683b      	ldr	r3, [r7, #0]
 81073ac:	2b08      	cmp	r3, #8
 81073ae:	d104      	bne.n	81073ba <HAL_TIM_PWM_Start+0xd6>
 81073b0:	687b      	ldr	r3, [r7, #4]
 81073b2:	2202      	movs	r2, #2
 81073b4:	f883 2040 	strb.w	r2, [r3, #64]	; 0x40
 81073b8:	e013      	b.n	81073e2 <HAL_TIM_PWM_Start+0xfe>
 81073ba:	683b      	ldr	r3, [r7, #0]
 81073bc:	2b0c      	cmp	r3, #12
 81073be:	d104      	bne.n	81073ca <HAL_TIM_PWM_Start+0xe6>
 81073c0:	687b      	ldr	r3, [r7, #4]
 81073c2:	2202      	movs	r2, #2
 81073c4:	f883 2041 	strb.w	r2, [r3, #65]	; 0x41
 81073c8:	e00b      	b.n	81073e2 <HAL_TIM_PWM_Start+0xfe>
 81073ca:	683b      	ldr	r3, [r7, #0]
 81073cc:	2b10      	cmp	r3, #16
 81073ce:	d104      	bne.n	81073da <HAL_TIM_PWM_Start+0xf6>
 81073d0:	687b      	ldr	r3, [r7, #4]
 81073d2:	2202      	movs	r2, #2
 81073d4:	f883 2042 	strb.w	r2, [r3, #66]	; 0x42
 81073d8:	e003      	b.n	81073e2 <HAL_TIM_PWM_Start+0xfe>
 81073da:	687b      	ldr	r3, [r7, #4]
 81073dc:	2202      	movs	r2, #2
 81073de:	f883 2043 	strb.w	r2, [r3, #67]	; 0x43

  /* Enable the Capture compare channel */
  TIM_CCxChannelCmd(htim->Instance, Channel, TIM_CCx_ENABLE);
 81073e2:	687b      	ldr	r3, [r7, #4]
 81073e4:	681b      	ldr	r3, [r3, #0]
 81073e6:	2201      	movs	r2, #1
 81073e8:	6839      	ldr	r1, [r7, #0]
 81073ea:	4618      	mov	r0, r3
 81073ec:	f000 fe60 	bl	81080b0 <TIM_CCxChannelCmd>

  if (IS_TIM_BREAK_INSTANCE(htim->Instance) != RESET)
 81073f0:	687b      	ldr	r3, [r7, #4]
 81073f2:	681b      	ldr	r3, [r3, #0]
 81073f4:	4a38      	ldr	r2, [pc, #224]	; (81074d8 <HAL_TIM_PWM_Start+0x1f4>)
 81073f6:	4293      	cmp	r3, r2
 81073f8:	d013      	beq.n	8107422 <HAL_TIM_PWM_Start+0x13e>
 81073fa:	687b      	ldr	r3, [r7, #4]
 81073fc:	681b      	ldr	r3, [r3, #0]
 81073fe:	4a37      	ldr	r2, [pc, #220]	; (81074dc <HAL_TIM_PWM_Start+0x1f8>)
 8107400:	4293      	cmp	r3, r2
 8107402:	d00e      	beq.n	8107422 <HAL_TIM_PWM_Start+0x13e>
 8107404:	687b      	ldr	r3, [r7, #4]
 8107406:	681b      	ldr	r3, [r3, #0]
 8107408:	4a35      	ldr	r2, [pc, #212]	; (81074e0 <HAL_TIM_PWM_Start+0x1fc>)
 810740a:	4293      	cmp	r3, r2
 810740c:	d009      	beq.n	8107422 <HAL_TIM_PWM_Start+0x13e>
 810740e:	687b      	ldr	r3, [r7, #4]
 8107410:	681b      	ldr	r3, [r3, #0]
 8107412:	4a34      	ldr	r2, [pc, #208]	; (81074e4 <HAL_TIM_PWM_Start+0x200>)
 8107414:	4293      	cmp	r3, r2
 8107416:	d004      	beq.n	8107422 <HAL_TIM_PWM_Start+0x13e>
 8107418:	687b      	ldr	r3, [r7, #4]
 810741a:	681b      	ldr	r3, [r3, #0]
 810741c:	4a32      	ldr	r2, [pc, #200]	; (81074e8 <HAL_TIM_PWM_Start+0x204>)
 810741e:	4293      	cmp	r3, r2
 8107420:	d101      	bne.n	8107426 <HAL_TIM_PWM_Start+0x142>
 8107422:	2301      	movs	r3, #1
 8107424:	e000      	b.n	8107428 <HAL_TIM_PWM_Start+0x144>
 8107426:	2300      	movs	r3, #0
 8107428:	2b00      	cmp	r3, #0
 810742a:	d007      	beq.n	810743c <HAL_TIM_PWM_Start+0x158>
  {
    /* Enable the main output */
    __HAL_TIM_MOE_ENABLE(htim);
 810742c:	687b      	ldr	r3, [r7, #4]
 810742e:	681b      	ldr	r3, [r3, #0]
 8107430:	6c5a      	ldr	r2, [r3, #68]	; 0x44
 8107432:	687b      	ldr	r3, [r7, #4]
 8107434:	681b      	ldr	r3, [r3, #0]
 8107436:	f442 4200 	orr.w	r2, r2, #32768	; 0x8000
 810743a:	645a      	str	r2, [r3, #68]	; 0x44
  }

  /* Enable the Peripheral, except in trigger mode where enable is automatically done with trigger */
  if (IS_TIM_SLAVE_INSTANCE(htim->Instance))
 810743c:	687b      	ldr	r3, [r7, #4]
 810743e:	681b      	ldr	r3, [r3, #0]
 8107440:	4a25      	ldr	r2, [pc, #148]	; (81074d8 <HAL_TIM_PWM_Start+0x1f4>)
 8107442:	4293      	cmp	r3, r2
 8107444:	d022      	beq.n	810748c <HAL_TIM_PWM_Start+0x1a8>
 8107446:	687b      	ldr	r3, [r7, #4]
 8107448:	681b      	ldr	r3, [r3, #0]
 810744a:	f1b3 4f80 	cmp.w	r3, #1073741824	; 0x40000000
 810744e:	d01d      	beq.n	810748c <HAL_TIM_PWM_Start+0x1a8>
 8107450:	687b      	ldr	r3, [r7, #4]
 8107452:	681b      	ldr	r3, [r3, #0]
 8107454:	4a25      	ldr	r2, [pc, #148]	; (81074ec <HAL_TIM_PWM_Start+0x208>)
 8107456:	4293      	cmp	r3, r2
 8107458:	d018      	beq.n	810748c <HAL_TIM_PWM_Start+0x1a8>
 810745a:	687b      	ldr	r3, [r7, #4]
 810745c:	681b      	ldr	r3, [r3, #0]
 810745e:	4a24      	ldr	r2, [pc, #144]	; (81074f0 <HAL_TIM_PWM_Start+0x20c>)
 8107460:	4293      	cmp	r3, r2
 8107462:	d013      	beq.n	810748c <HAL_TIM_PWM_Start+0x1a8>
 8107464:	687b      	ldr	r3, [r7, #4]
 8107466:	681b      	ldr	r3, [r3, #0]
 8107468:	4a22      	ldr	r2, [pc, #136]	; (81074f4 <HAL_TIM_PWM_Start+0x210>)
 810746a:	4293      	cmp	r3, r2
 810746c:	d00e      	beq.n	810748c <HAL_TIM_PWM_Start+0x1a8>
 810746e:	687b      	ldr	r3, [r7, #4]
 8107470:	681b      	ldr	r3, [r3, #0]
 8107472:	4a1a      	ldr	r2, [pc, #104]	; (81074dc <HAL_TIM_PWM_Start+0x1f8>)
 8107474:	4293      	cmp	r3, r2
 8107476:	d009      	beq.n	810748c <HAL_TIM_PWM_Start+0x1a8>
 8107478:	687b      	ldr	r3, [r7, #4]
 810747a:	681b      	ldr	r3, [r3, #0]
 810747c:	4a1e      	ldr	r2, [pc, #120]	; (81074f8 <HAL_TIM_PWM_Start+0x214>)
 810747e:	4293      	cmp	r3, r2
 8107480:	d004      	beq.n	810748c <HAL_TIM_PWM_Start+0x1a8>
 8107482:	687b      	ldr	r3, [r7, #4]
 8107484:	681b      	ldr	r3, [r3, #0]
 8107486:	4a16      	ldr	r2, [pc, #88]	; (81074e0 <HAL_TIM_PWM_Start+0x1fc>)
 8107488:	4293      	cmp	r3, r2
 810748a:	d115      	bne.n	81074b8 <HAL_TIM_PWM_Start+0x1d4>
  {
    tmpsmcr = htim->Instance->SMCR & TIM_SMCR_SMS;
 810748c:	687b      	ldr	r3, [r7, #4]
 810748e:	681b      	ldr	r3, [r3, #0]
 8107490:	689a      	ldr	r2, [r3, #8]
 8107492:	4b1a      	ldr	r3, [pc, #104]	; (81074fc <HAL_TIM_PWM_Start+0x218>)
 8107494:	4013      	ands	r3, r2
 8107496:	60fb      	str	r3, [r7, #12]
    if (!IS_TIM_SLAVEMODE_TRIGGER_ENABLED(tmpsmcr))
 8107498:	68fb      	ldr	r3, [r7, #12]
 810749a:	2b06      	cmp	r3, #6
 810749c:	d015      	beq.n	81074ca <HAL_TIM_PWM_Start+0x1e6>
 810749e:	68fb      	ldr	r3, [r7, #12]
 81074a0:	f5b3 3f80 	cmp.w	r3, #65536	; 0x10000
 81074a4:	d011      	beq.n	81074ca <HAL_TIM_PWM_Start+0x1e6>
    {
      __HAL_TIM_ENABLE(htim);
 81074a6:	687b      	ldr	r3, [r7, #4]
 81074a8:	681b      	ldr	r3, [r3, #0]
 81074aa:	681a      	ldr	r2, [r3, #0]
 81074ac:	687b      	ldr	r3, [r7, #4]
 81074ae:	681b      	ldr	r3, [r3, #0]
 81074b0:	f042 0201 	orr.w	r2, r2, #1
 81074b4:	601a      	str	r2, [r3, #0]
    if (!IS_TIM_SLAVEMODE_TRIGGER_ENABLED(tmpsmcr))
 81074b6:	e008      	b.n	81074ca <HAL_TIM_PWM_Start+0x1e6>
    }
  }
  else
  {
    __HAL_TIM_ENABLE(htim);
 81074b8:	687b      	ldr	r3, [r7, #4]
 81074ba:	681b      	ldr	r3, [r3, #0]
 81074bc:	681a      	ldr	r2, [r3, #0]
 81074be:	687b      	ldr	r3, [r7, #4]
 81074c0:	681b      	ldr	r3, [r3, #0]
 81074c2:	f042 0201 	orr.w	r2, r2, #1
 81074c6:	601a      	str	r2, [r3, #0]
 81074c8:	e000      	b.n	81074cc <HAL_TIM_PWM_Start+0x1e8>
    if (!IS_TIM_SLAVEMODE_TRIGGER_ENABLED(tmpsmcr))
 81074ca:	bf00      	nop
  }

  /* Return function status */
  return HAL_OK;
 81074cc:	2300      	movs	r3, #0
}
 81074ce:	4618      	mov	r0, r3
 81074d0:	3710      	adds	r7, #16
 81074d2:	46bd      	mov	sp, r7
 81074d4:	bd80      	pop	{r7, pc}
 81074d6:	bf00      	nop
 81074d8:	40010000 	.word	0x40010000
 81074dc:	40010400 	.word	0x40010400
 81074e0:	40014000 	.word	0x40014000
 81074e4:	40014400 	.word	0x40014400
 81074e8:	40014800 	.word	0x40014800
 81074ec:	40000400 	.word	0x40000400
 81074f0:	40000800 	.word	0x40000800
 81074f4:	40000c00 	.word	0x40000c00
 81074f8:	40001800 	.word	0x40001800
 81074fc:	00010007 	.word	0x00010007

08107500 <HAL_TIM_Encoder_Init>:
  * @param  htim TIM Encoder Interface handle
  * @param  sConfig TIM Encoder Interface configuration structure
  * @retval HAL status
  */
HAL_StatusTypeDef HAL_TIM_Encoder_Init(TIM_HandleTypeDef *htim,  TIM_Encoder_InitTypeDef *sConfig)
{
 8107500:	b580      	push	{r7, lr}
 8107502:	b086      	sub	sp, #24
 8107504:	af00      	add	r7, sp, #0
 8107506:	6078      	str	r0, [r7, #4]
 8107508:	6039      	str	r1, [r7, #0]
  uint32_t tmpsmcr;
  uint32_t tmpccmr1;
  uint32_t tmpccer;

  /* Check the TIM handle allocation */
  if (htim == NULL)
 810750a:	687b      	ldr	r3, [r7, #4]
 810750c:	2b00      	cmp	r3, #0
 810750e:	d101      	bne.n	8107514 <HAL_TIM_Encoder_Init+0x14>
  {
    return HAL_ERROR;
 8107510:	2301      	movs	r3, #1
 8107512:	e097      	b.n	8107644 <HAL_TIM_Encoder_Init+0x144>
  assert_param(IS_TIM_IC_PRESCALER(sConfig->IC1Prescaler));
  assert_param(IS_TIM_IC_PRESCALER(sConfig->IC2Prescaler));
  assert_param(IS_TIM_IC_FILTER(sConfig->IC1Filter));
  assert_param(IS_TIM_IC_FILTER(sConfig->IC2Filter));

  if (htim->State == HAL_TIM_STATE_RESET)
 8107514:	687b      	ldr	r3, [r7, #4]
 8107516:	f893 303d 	ldrb.w	r3, [r3, #61]	; 0x3d
 810751a:	b2db      	uxtb	r3, r3
 810751c:	2b00      	cmp	r3, #0
 810751e:	d106      	bne.n	810752e <HAL_TIM_Encoder_Init+0x2e>
  {
    /* Allocate lock resource and initialize it */
    htim->Lock = HAL_UNLOCKED;
 8107520:	687b      	ldr	r3, [r7, #4]
 8107522:	2200      	movs	r2, #0
 8107524:	f883 203c 	strb.w	r2, [r3, #60]	; 0x3c
    }
    /* Init the low level hardware : GPIO, CLOCK, NVIC */
    htim->Encoder_MspInitCallback(htim);
#else
    /* Init the low level hardware : GPIO, CLOCK, NVIC and DMA */
    HAL_TIM_Encoder_MspInit(htim);
 8107528:	6878      	ldr	r0, [r7, #4]
 810752a:	f7fa fe79 	bl	8102220 <HAL_TIM_Encoder_MspInit>
#endif /* USE_HAL_TIM_REGISTER_CALLBACKS */
  }

  /* Set the TIM state */
  htim->State = HAL_TIM_STATE_BUSY;
 810752e:	687b      	ldr	r3, [r7, #4]
 8107530:	2202      	movs	r2, #2
 8107532:	f883 203d 	strb.w	r2, [r3, #61]	; 0x3d

  /* Reset the SMS and ECE bits */
  htim->Instance->SMCR &= ~(TIM_SMCR_SMS | TIM_SMCR_ECE);
 8107536:	687b      	ldr	r3, [r7, #4]
 8107538:	681b      	ldr	r3, [r3, #0]
 810753a:	689b      	ldr	r3, [r3, #8]
 810753c:	687a      	ldr	r2, [r7, #4]
 810753e:	6812      	ldr	r2, [r2, #0]
 8107540:	f423 33a0 	bic.w	r3, r3, #81920	; 0x14000
 8107544:	f023 0307 	bic.w	r3, r3, #7
 8107548:	6093      	str	r3, [r2, #8]

  /* Configure the Time base in the Encoder Mode */
  TIM_Base_SetConfig(htim->Instance, &htim->Init);
 810754a:	687b      	ldr	r3, [r7, #4]
 810754c:	681a      	ldr	r2, [r3, #0]
 810754e:	687b      	ldr	r3, [r7, #4]
 8107550:	3304      	adds	r3, #4
 8107552:	4619      	mov	r1, r3
 8107554:	4610      	mov	r0, r2
 8107556:	f000 fa3b 	bl	81079d0 <TIM_Base_SetConfig>

  /* Get the TIMx SMCR register value */
  tmpsmcr = htim->Instance->SMCR;
 810755a:	687b      	ldr	r3, [r7, #4]
 810755c:	681b      	ldr	r3, [r3, #0]
 810755e:	689b      	ldr	r3, [r3, #8]
 8107560:	617b      	str	r3, [r7, #20]

  /* Get the TIMx CCMR1 register value */
  tmpccmr1 = htim->Instance->CCMR1;
 8107562:	687b      	ldr	r3, [r7, #4]
 8107564:	681b      	ldr	r3, [r3, #0]
 8107566:	699b      	ldr	r3, [r3, #24]
 8107568:	613b      	str	r3, [r7, #16]

  /* Get the TIMx CCER register value */
  tmpccer = htim->Instance->CCER;
 810756a:	687b      	ldr	r3, [r7, #4]
 810756c:	681b      	ldr	r3, [r3, #0]
 810756e:	6a1b      	ldr	r3, [r3, #32]
 8107570:	60fb      	str	r3, [r7, #12]

  /* Set the encoder Mode */
  tmpsmcr |= sConfig->EncoderMode;
 8107572:	683b      	ldr	r3, [r7, #0]
 8107574:	681b      	ldr	r3, [r3, #0]
 8107576:	697a      	ldr	r2, [r7, #20]
 8107578:	4313      	orrs	r3, r2
 810757a:	617b      	str	r3, [r7, #20]

  /* Select the Capture Compare 1 and the Capture Compare 2 as input */
  tmpccmr1 &= ~(TIM_CCMR1_CC1S | TIM_CCMR1_CC2S);
 810757c:	693b      	ldr	r3, [r7, #16]
 810757e:	f423 7340 	bic.w	r3, r3, #768	; 0x300
 8107582:	f023 0303 	bic.w	r3, r3, #3
 8107586:	613b      	str	r3, [r7, #16]
  tmpccmr1 |= (sConfig->IC1Selection | (sConfig->IC2Selection << 8U));
 8107588:	683b      	ldr	r3, [r7, #0]
 810758a:	689a      	ldr	r2, [r3, #8]
 810758c:	683b      	ldr	r3, [r7, #0]
 810758e:	699b      	ldr	r3, [r3, #24]
 8107590:	021b      	lsls	r3, r3, #8
 8107592:	4313      	orrs	r3, r2
 8107594:	693a      	ldr	r2, [r7, #16]
 8107596:	4313      	orrs	r3, r2
 8107598:	613b      	str	r3, [r7, #16]

  /* Set the Capture Compare 1 and the Capture Compare 2 prescalers and filters */
  tmpccmr1 &= ~(TIM_CCMR1_IC1PSC | TIM_CCMR1_IC2PSC);
 810759a:	693b      	ldr	r3, [r7, #16]
 810759c:	f423 6340 	bic.w	r3, r3, #3072	; 0xc00
 81075a0:	f023 030c 	bic.w	r3, r3, #12
 81075a4:	613b      	str	r3, [r7, #16]
  tmpccmr1 &= ~(TIM_CCMR1_IC1F | TIM_CCMR1_IC2F);
 81075a6:	693b      	ldr	r3, [r7, #16]
 81075a8:	f423 4370 	bic.w	r3, r3, #61440	; 0xf000
 81075ac:	f023 03f0 	bic.w	r3, r3, #240	; 0xf0
 81075b0:	613b      	str	r3, [r7, #16]
  tmpccmr1 |= sConfig->IC1Prescaler | (sConfig->IC2Prescaler << 8U);
 81075b2:	683b      	ldr	r3, [r7, #0]
 81075b4:	68da      	ldr	r2, [r3, #12]
 81075b6:	683b      	ldr	r3, [r7, #0]
 81075b8:	69db      	ldr	r3, [r3, #28]
 81075ba:	021b      	lsls	r3, r3, #8
 81075bc:	4313      	orrs	r3, r2
 81075be:	693a      	ldr	r2, [r7, #16]
 81075c0:	4313      	orrs	r3, r2
 81075c2:	613b      	str	r3, [r7, #16]
  tmpccmr1 |= (sConfig->IC1Filter << 4U) | (sConfig->IC2Filter << 12U);
 81075c4:	683b      	ldr	r3, [r7, #0]
 81075c6:	691b      	ldr	r3, [r3, #16]
 81075c8:	011a      	lsls	r2, r3, #4
 81075ca:	683b      	ldr	r3, [r7, #0]
 81075cc:	6a1b      	ldr	r3, [r3, #32]
 81075ce:	031b      	lsls	r3, r3, #12
 81075d0:	4313      	orrs	r3, r2
 81075d2:	693a      	ldr	r2, [r7, #16]
 81075d4:	4313      	orrs	r3, r2
 81075d6:	613b      	str	r3, [r7, #16]

  /* Set the TI1 and the TI2 Polarities */
  tmpccer &= ~(TIM_CCER_CC1P | TIM_CCER_CC2P);
 81075d8:	68fb      	ldr	r3, [r7, #12]
 81075da:	f023 0322 	bic.w	r3, r3, #34	; 0x22
 81075de:	60fb      	str	r3, [r7, #12]
  tmpccer &= ~(TIM_CCER_CC1NP | TIM_CCER_CC2NP);
 81075e0:	68fb      	ldr	r3, [r7, #12]
 81075e2:	f023 0388 	bic.w	r3, r3, #136	; 0x88
 81075e6:	60fb      	str	r3, [r7, #12]
  tmpccer |= sConfig->IC1Polarity | (sConfig->IC2Polarity << 4U);
 81075e8:	683b      	ldr	r3, [r7, #0]
 81075ea:	685a      	ldr	r2, [r3, #4]
 81075ec:	683b      	ldr	r3, [r7, #0]
 81075ee:	695b      	ldr	r3, [r3, #20]
 81075f0:	011b      	lsls	r3, r3, #4
 81075f2:	4313      	orrs	r3, r2
 81075f4:	68fa      	ldr	r2, [r7, #12]
 81075f6:	4313      	orrs	r3, r2
 81075f8:	60fb      	str	r3, [r7, #12]

  /* Write to TIMx SMCR */
  htim->Instance->SMCR = tmpsmcr;
 81075fa:	687b      	ldr	r3, [r7, #4]
 81075fc:	681b      	ldr	r3, [r3, #0]
 81075fe:	697a      	ldr	r2, [r7, #20]
 8107600:	609a      	str	r2, [r3, #8]

  /* Write to TIMx CCMR1 */
  htim->Instance->CCMR1 = tmpccmr1;
 8107602:	687b      	ldr	r3, [r7, #4]
 8107604:	681b      	ldr	r3, [r3, #0]
 8107606:	693a      	ldr	r2, [r7, #16]
 8107608:	619a      	str	r2, [r3, #24]

  /* Write to TIMx CCER */
  htim->Instance->CCER = tmpccer;
 810760a:	687b      	ldr	r3, [r7, #4]
 810760c:	681b      	ldr	r3, [r3, #0]
 810760e:	68fa      	ldr	r2, [r7, #12]
 8107610:	621a      	str	r2, [r3, #32]

  /* Initialize the DMA burst operation state */
  htim->DMABurstState = HAL_DMA_BURST_STATE_READY;
 8107612:	687b      	ldr	r3, [r7, #4]
 8107614:	2201      	movs	r2, #1
 8107616:	f883 2048 	strb.w	r2, [r3, #72]	; 0x48

  /* Set the TIM channels state */
  TIM_CHANNEL_STATE_SET(htim, TIM_CHANNEL_1, HAL_TIM_CHANNEL_STATE_READY);
 810761a:	687b      	ldr	r3, [r7, #4]
 810761c:	2201      	movs	r2, #1
 810761e:	f883 203e 	strb.w	r2, [r3, #62]	; 0x3e
  TIM_CHANNEL_STATE_SET(htim, TIM_CHANNEL_2, HAL_TIM_CHANNEL_STATE_READY);
 8107622:	687b      	ldr	r3, [r7, #4]
 8107624:	2201      	movs	r2, #1
 8107626:	f883 203f 	strb.w	r2, [r3, #63]	; 0x3f
  TIM_CHANNEL_N_STATE_SET(htim, TIM_CHANNEL_1, HAL_TIM_CHANNEL_STATE_READY);
 810762a:	687b      	ldr	r3, [r7, #4]
 810762c:	2201      	movs	r2, #1
 810762e:	f883 2044 	strb.w	r2, [r3, #68]	; 0x44
  TIM_CHANNEL_N_STATE_SET(htim, TIM_CHANNEL_2, HAL_TIM_CHANNEL_STATE_READY);
 8107632:	687b      	ldr	r3, [r7, #4]
 8107634:	2201      	movs	r2, #1
 8107636:	f883 2045 	strb.w	r2, [r3, #69]	; 0x45

  /* Initialize the TIM state*/
  htim->State = HAL_TIM_STATE_READY;
 810763a:	687b      	ldr	r3, [r7, #4]
 810763c:	2201      	movs	r2, #1
 810763e:	f883 203d 	strb.w	r2, [r3, #61]	; 0x3d

  return HAL_OK;
 8107642:	2300      	movs	r3, #0
}
 8107644:	4618      	mov	r0, r3
 8107646:	3718      	adds	r7, #24
 8107648:	46bd      	mov	sp, r7
 810764a:	bd80      	pop	{r7, pc}

0810764c <HAL_TIM_Encoder_Start_IT>:
  *            @arg TIM_CHANNEL_2: TIM Channel 2 selected
  *            @arg TIM_CHANNEL_ALL: TIM Channel 1 and TIM Channel 2 are selected
  * @retval HAL status
  */
HAL_StatusTypeDef HAL_TIM_Encoder_Start_IT(TIM_HandleTypeDef *htim, uint32_t Channel)
{
 810764c:	b580      	push	{r7, lr}
 810764e:	b084      	sub	sp, #16
 8107650:	af00      	add	r7, sp, #0
 8107652:	6078      	str	r0, [r7, #4]
 8107654:	6039      	str	r1, [r7, #0]
  HAL_TIM_ChannelStateTypeDef channel_1_state = TIM_CHANNEL_STATE_GET(htim, TIM_CHANNEL_1);
 8107656:	687b      	ldr	r3, [r7, #4]
 8107658:	f893 303e 	ldrb.w	r3, [r3, #62]	; 0x3e
 810765c:	73fb      	strb	r3, [r7, #15]
  HAL_TIM_ChannelStateTypeDef channel_2_state = TIM_CHANNEL_STATE_GET(htim, TIM_CHANNEL_2);
 810765e:	687b      	ldr	r3, [r7, #4]
 8107660:	f893 303f 	ldrb.w	r3, [r3, #63]	; 0x3f
 8107664:	73bb      	strb	r3, [r7, #14]
  HAL_TIM_ChannelStateTypeDef complementary_channel_1_state = TIM_CHANNEL_N_STATE_GET(htim, TIM_CHANNEL_1);
 8107666:	687b      	ldr	r3, [r7, #4]
 8107668:	f893 3044 	ldrb.w	r3, [r3, #68]	; 0x44
 810766c:	737b      	strb	r3, [r7, #13]
  HAL_TIM_ChannelStateTypeDef complementary_channel_2_state = TIM_CHANNEL_N_STATE_GET(htim, TIM_CHANNEL_2);
 810766e:	687b      	ldr	r3, [r7, #4]
 8107670:	f893 3045 	ldrb.w	r3, [r3, #69]	; 0x45
 8107674:	733b      	strb	r3, [r7, #12]

  /* Check the parameters */
  assert_param(IS_TIM_ENCODER_INTERFACE_INSTANCE(htim->Instance));

  /* Set the TIM channel(s) state */
  if (Channel == TIM_CHANNEL_1)
 8107676:	683b      	ldr	r3, [r7, #0]
 8107678:	2b00      	cmp	r3, #0
 810767a:	d110      	bne.n	810769e <HAL_TIM_Encoder_Start_IT+0x52>
  {
    if ((channel_1_state != HAL_TIM_CHANNEL_STATE_READY)
 810767c:	7bfb      	ldrb	r3, [r7, #15]
 810767e:	2b01      	cmp	r3, #1
 8107680:	d102      	bne.n	8107688 <HAL_TIM_Encoder_Start_IT+0x3c>
        || (complementary_channel_1_state != HAL_TIM_CHANNEL_STATE_READY))
 8107682:	7b7b      	ldrb	r3, [r7, #13]
 8107684:	2b01      	cmp	r3, #1
 8107686:	d001      	beq.n	810768c <HAL_TIM_Encoder_Start_IT+0x40>
    {
      return HAL_ERROR;
 8107688:	2301      	movs	r3, #1
 810768a:	e089      	b.n	81077a0 <HAL_TIM_Encoder_Start_IT+0x154>
    }
    else
    {
      TIM_CHANNEL_STATE_SET(htim, TIM_CHANNEL_1, HAL_TIM_CHANNEL_STATE_BUSY);
 810768c:	687b      	ldr	r3, [r7, #4]
 810768e:	2202      	movs	r2, #2
 8107690:	f883 203e 	strb.w	r2, [r3, #62]	; 0x3e
      TIM_CHANNEL_N_STATE_SET(htim, TIM_CHANNEL_1, HAL_TIM_CHANNEL_STATE_BUSY);
 8107694:	687b      	ldr	r3, [r7, #4]
 8107696:	2202      	movs	r2, #2
 8107698:	f883 2044 	strb.w	r2, [r3, #68]	; 0x44
 810769c:	e031      	b.n	8107702 <HAL_TIM_Encoder_Start_IT+0xb6>
    }
  }
  else if (Channel == TIM_CHANNEL_2)
 810769e:	683b      	ldr	r3, [r7, #0]
 81076a0:	2b04      	cmp	r3, #4
 81076a2:	d110      	bne.n	81076c6 <HAL_TIM_Encoder_Start_IT+0x7a>
  {
    if ((channel_2_state != HAL_TIM_CHANNEL_STATE_READY)
 81076a4:	7bbb      	ldrb	r3, [r7, #14]
 81076a6:	2b01      	cmp	r3, #1
 81076a8:	d102      	bne.n	81076b0 <HAL_TIM_Encoder_Start_IT+0x64>
        || (complementary_channel_2_state != HAL_TIM_CHANNEL_STATE_READY))
 81076aa:	7b3b      	ldrb	r3, [r7, #12]
 81076ac:	2b01      	cmp	r3, #1
 81076ae:	d001      	beq.n	81076b4 <HAL_TIM_Encoder_Start_IT+0x68>
    {
      return HAL_ERROR;
 81076b0:	2301      	movs	r3, #1
 81076b2:	e075      	b.n	81077a0 <HAL_TIM_Encoder_Start_IT+0x154>
    }
    else
    {
      TIM_CHANNEL_STATE_SET(htim, TIM_CHANNEL_2, HAL_TIM_CHANNEL_STATE_BUSY);
 81076b4:	687b      	ldr	r3, [r7, #4]
 81076b6:	2202      	movs	r2, #2
 81076b8:	f883 203f 	strb.w	r2, [r3, #63]	; 0x3f
      TIM_CHANNEL_N_STATE_SET(htim, TIM_CHANNEL_2, HAL_TIM_CHANNEL_STATE_BUSY);
 81076bc:	687b      	ldr	r3, [r7, #4]
 81076be:	2202      	movs	r2, #2
 81076c0:	f883 2045 	strb.w	r2, [r3, #69]	; 0x45
 81076c4:	e01d      	b.n	8107702 <HAL_TIM_Encoder_Start_IT+0xb6>
    }
  }
  else
  {
    if ((channel_1_state != HAL_TIM_CHANNEL_STATE_READY)
 81076c6:	7bfb      	ldrb	r3, [r7, #15]
 81076c8:	2b01      	cmp	r3, #1
 81076ca:	d108      	bne.n	81076de <HAL_TIM_Encoder_Start_IT+0x92>
        || (channel_2_state != HAL_TIM_CHANNEL_STATE_READY)
 81076cc:	7bbb      	ldrb	r3, [r7, #14]
 81076ce:	2b01      	cmp	r3, #1
 81076d0:	d105      	bne.n	81076de <HAL_TIM_Encoder_Start_IT+0x92>
        || (complementary_channel_1_state != HAL_TIM_CHANNEL_STATE_READY)
 81076d2:	7b7b      	ldrb	r3, [r7, #13]
 81076d4:	2b01      	cmp	r3, #1
 81076d6:	d102      	bne.n	81076de <HAL_TIM_Encoder_Start_IT+0x92>
        || (complementary_channel_2_state != HAL_TIM_CHANNEL_STATE_READY))
 81076d8:	7b3b      	ldrb	r3, [r7, #12]
 81076da:	2b01      	cmp	r3, #1
 81076dc:	d001      	beq.n	81076e2 <HAL_TIM_Encoder_Start_IT+0x96>
    {
      return HAL_ERROR;
 81076de:	2301      	movs	r3, #1
 81076e0:	e05e      	b.n	81077a0 <HAL_TIM_Encoder_Start_IT+0x154>
    }
    else
    {
      TIM_CHANNEL_STATE_SET(htim, TIM_CHANNEL_1, HAL_TIM_CHANNEL_STATE_BUSY);
 81076e2:	687b      	ldr	r3, [r7, #4]
 81076e4:	2202      	movs	r2, #2
 81076e6:	f883 203e 	strb.w	r2, [r3, #62]	; 0x3e
      TIM_CHANNEL_STATE_SET(htim, TIM_CHANNEL_2, HAL_TIM_CHANNEL_STATE_BUSY);
 81076ea:	687b      	ldr	r3, [r7, #4]
 81076ec:	2202      	movs	r2, #2
 81076ee:	f883 203f 	strb.w	r2, [r3, #63]	; 0x3f
      TIM_CHANNEL_N_STATE_SET(htim, TIM_CHANNEL_1, HAL_TIM_CHANNEL_STATE_BUSY);
 81076f2:	687b      	ldr	r3, [r7, #4]
 81076f4:	2202      	movs	r2, #2
 81076f6:	f883 2044 	strb.w	r2, [r3, #68]	; 0x44
      TIM_CHANNEL_N_STATE_SET(htim, TIM_CHANNEL_2, HAL_TIM_CHANNEL_STATE_BUSY);
 81076fa:	687b      	ldr	r3, [r7, #4]
 81076fc:	2202      	movs	r2, #2
 81076fe:	f883 2045 	strb.w	r2, [r3, #69]	; 0x45
    }
  }

  /* Enable the encoder interface channels */
  /* Enable the capture compare Interrupts 1 and/or 2 */
  switch (Channel)
 8107702:	683b      	ldr	r3, [r7, #0]
 8107704:	2b00      	cmp	r3, #0
 8107706:	d003      	beq.n	8107710 <HAL_TIM_Encoder_Start_IT+0xc4>
 8107708:	683b      	ldr	r3, [r7, #0]
 810770a:	2b04      	cmp	r3, #4
 810770c:	d010      	beq.n	8107730 <HAL_TIM_Encoder_Start_IT+0xe4>
 810770e:	e01f      	b.n	8107750 <HAL_TIM_Encoder_Start_IT+0x104>
  {
    case TIM_CHANNEL_1:
    {
      TIM_CCxChannelCmd(htim->Instance, TIM_CHANNEL_1, TIM_CCx_ENABLE);
 8107710:	687b      	ldr	r3, [r7, #4]
 8107712:	681b      	ldr	r3, [r3, #0]
 8107714:	2201      	movs	r2, #1
 8107716:	2100      	movs	r1, #0
 8107718:	4618      	mov	r0, r3
 810771a:	f000 fcc9 	bl	81080b0 <TIM_CCxChannelCmd>
      __HAL_TIM_ENABLE_IT(htim, TIM_IT_CC1);
 810771e:	687b      	ldr	r3, [r7, #4]
 8107720:	681b      	ldr	r3, [r3, #0]
 8107722:	68da      	ldr	r2, [r3, #12]
 8107724:	687b      	ldr	r3, [r7, #4]
 8107726:	681b      	ldr	r3, [r3, #0]
 8107728:	f042 0202 	orr.w	r2, r2, #2
 810772c:	60da      	str	r2, [r3, #12]
      break;
 810772e:	e02e      	b.n	810778e <HAL_TIM_Encoder_Start_IT+0x142>
    }

    case TIM_CHANNEL_2:
    {
      TIM_CCxChannelCmd(htim->Instance, TIM_CHANNEL_2, TIM_CCx_ENABLE);
 8107730:	687b      	ldr	r3, [r7, #4]
 8107732:	681b      	ldr	r3, [r3, #0]
 8107734:	2201      	movs	r2, #1
 8107736:	2104      	movs	r1, #4
 8107738:	4618      	mov	r0, r3
 810773a:	f000 fcb9 	bl	81080b0 <TIM_CCxChannelCmd>
      __HAL_TIM_ENABLE_IT(htim, TIM_IT_CC2);
 810773e:	687b      	ldr	r3, [r7, #4]
 8107740:	681b      	ldr	r3, [r3, #0]
 8107742:	68da      	ldr	r2, [r3, #12]
 8107744:	687b      	ldr	r3, [r7, #4]
 8107746:	681b      	ldr	r3, [r3, #0]
 8107748:	f042 0204 	orr.w	r2, r2, #4
 810774c:	60da      	str	r2, [r3, #12]
      break;
 810774e:	e01e      	b.n	810778e <HAL_TIM_Encoder_Start_IT+0x142>
    }

    default :
    {
      TIM_CCxChannelCmd(htim->Instance, TIM_CHANNEL_1, TIM_CCx_ENABLE);
 8107750:	687b      	ldr	r3, [r7, #4]
 8107752:	681b      	ldr	r3, [r3, #0]
 8107754:	2201      	movs	r2, #1
 8107756:	2100      	movs	r1, #0
 8107758:	4618      	mov	r0, r3
 810775a:	f000 fca9 	bl	81080b0 <TIM_CCxChannelCmd>
      TIM_CCxChannelCmd(htim->Instance, TIM_CHANNEL_2, TIM_CCx_ENABLE);
 810775e:	687b      	ldr	r3, [r7, #4]
 8107760:	681b      	ldr	r3, [r3, #0]
 8107762:	2201      	movs	r2, #1
 8107764:	2104      	movs	r1, #4
 8107766:	4618      	mov	r0, r3
 8107768:	f000 fca2 	bl	81080b0 <TIM_CCxChannelCmd>
      __HAL_TIM_ENABLE_IT(htim, TIM_IT_CC1);
 810776c:	687b      	ldr	r3, [r7, #4]
 810776e:	681b      	ldr	r3, [r3, #0]
 8107770:	68da      	ldr	r2, [r3, #12]
 8107772:	687b      	ldr	r3, [r7, #4]
 8107774:	681b      	ldr	r3, [r3, #0]
 8107776:	f042 0202 	orr.w	r2, r2, #2
 810777a:	60da      	str	r2, [r3, #12]
      __HAL_TIM_ENABLE_IT(htim, TIM_IT_CC2);
 810777c:	687b      	ldr	r3, [r7, #4]
 810777e:	681b      	ldr	r3, [r3, #0]
 8107780:	68da      	ldr	r2, [r3, #12]
 8107782:	687b      	ldr	r3, [r7, #4]
 8107784:	681b      	ldr	r3, [r3, #0]
 8107786:	f042 0204 	orr.w	r2, r2, #4
 810778a:	60da      	str	r2, [r3, #12]
      break;
 810778c:	bf00      	nop
    }
  }

  /* Enable the Peripheral */
  __HAL_TIM_ENABLE(htim);
 810778e:	687b      	ldr	r3, [r7, #4]
 8107790:	681b      	ldr	r3, [r3, #0]
 8107792:	681a      	ldr	r2, [r3, #0]
 8107794:	687b      	ldr	r3, [r7, #4]
 8107796:	681b      	ldr	r3, [r3, #0]
 8107798:	f042 0201 	orr.w	r2, r2, #1
 810779c:	601a      	str	r2, [r3, #0]

  /* Return function status */
  return HAL_OK;
 810779e:	2300      	movs	r3, #0
}
 81077a0:	4618      	mov	r0, r3
 81077a2:	3710      	adds	r7, #16
 81077a4:	46bd      	mov	sp, r7
 81077a6:	bd80      	pop	{r7, pc}

081077a8 <HAL_TIM_PWM_ConfigChannel>:
  * @retval HAL status
  */
HAL_StatusTypeDef HAL_TIM_PWM_ConfigChannel(TIM_HandleTypeDef *htim,
                                            TIM_OC_InitTypeDef *sConfig,
                                            uint32_t Channel)
{
 81077a8:	b580      	push	{r7, lr}
 81077aa:	b086      	sub	sp, #24
 81077ac:	af00      	add	r7, sp, #0
 81077ae:	60f8      	str	r0, [r7, #12]
 81077b0:	60b9      	str	r1, [r7, #8]
 81077b2:	607a      	str	r2, [r7, #4]
  HAL_StatusTypeDef status = HAL_OK;
 81077b4:	2300      	movs	r3, #0
 81077b6:	75fb      	strb	r3, [r7, #23]
  assert_param(IS_TIM_PWM_MODE(sConfig->OCMode));
  assert_param(IS_TIM_OC_POLARITY(sConfig->OCPolarity));
  assert_param(IS_TIM_FAST_STATE(sConfig->OCFastMode));

  /* Process Locked */
  __HAL_LOCK(htim);
 81077b8:	68fb      	ldr	r3, [r7, #12]
 81077ba:	f893 303c 	ldrb.w	r3, [r3, #60]	; 0x3c
 81077be:	2b01      	cmp	r3, #1
 81077c0:	d101      	bne.n	81077c6 <HAL_TIM_PWM_ConfigChannel+0x1e>
 81077c2:	2302      	movs	r3, #2
 81077c4:	e0ff      	b.n	81079c6 <HAL_TIM_PWM_ConfigChannel+0x21e>
 81077c6:	68fb      	ldr	r3, [r7, #12]
 81077c8:	2201      	movs	r2, #1
 81077ca:	f883 203c 	strb.w	r2, [r3, #60]	; 0x3c

  switch (Channel)
 81077ce:	687b      	ldr	r3, [r7, #4]
 81077d0:	2b14      	cmp	r3, #20
 81077d2:	f200 80f0 	bhi.w	81079b6 <HAL_TIM_PWM_ConfigChannel+0x20e>
 81077d6:	a201      	add	r2, pc, #4	; (adr r2, 81077dc <HAL_TIM_PWM_ConfigChannel+0x34>)
 81077d8:	f852 f023 	ldr.w	pc, [r2, r3, lsl #2]
 81077dc:	08107831 	.word	0x08107831
 81077e0:	081079b7 	.word	0x081079b7
 81077e4:	081079b7 	.word	0x081079b7
 81077e8:	081079b7 	.word	0x081079b7
 81077ec:	08107871 	.word	0x08107871
 81077f0:	081079b7 	.word	0x081079b7
 81077f4:	081079b7 	.word	0x081079b7
 81077f8:	081079b7 	.word	0x081079b7
 81077fc:	081078b3 	.word	0x081078b3
 8107800:	081079b7 	.word	0x081079b7
 8107804:	081079b7 	.word	0x081079b7
 8107808:	081079b7 	.word	0x081079b7
 810780c:	081078f3 	.word	0x081078f3
 8107810:	081079b7 	.word	0x081079b7
 8107814:	081079b7 	.word	0x081079b7
 8107818:	081079b7 	.word	0x081079b7
 810781c:	08107935 	.word	0x08107935
 8107820:	081079b7 	.word	0x081079b7
 8107824:	081079b7 	.word	0x081079b7
 8107828:	081079b7 	.word	0x081079b7
 810782c:	08107975 	.word	0x08107975
    {
      /* Check the parameters */
      assert_param(IS_TIM_CC1_INSTANCE(htim->Instance));

      /* Configure the Channel 1 in PWM mode */
      TIM_OC1_SetConfig(htim->Instance, sConfig);
 8107830:	68fb      	ldr	r3, [r7, #12]
 8107832:	681b      	ldr	r3, [r3, #0]
 8107834:	68b9      	ldr	r1, [r7, #8]
 8107836:	4618      	mov	r0, r3
 8107838:	f000 f964 	bl	8107b04 <TIM_OC1_SetConfig>

      /* Set the Preload enable bit for channel1 */
      htim->Instance->CCMR1 |= TIM_CCMR1_OC1PE;
 810783c:	68fb      	ldr	r3, [r7, #12]
 810783e:	681b      	ldr	r3, [r3, #0]
 8107840:	699a      	ldr	r2, [r3, #24]
 8107842:	68fb      	ldr	r3, [r7, #12]
 8107844:	681b      	ldr	r3, [r3, #0]
 8107846:	f042 0208 	orr.w	r2, r2, #8
 810784a:	619a      	str	r2, [r3, #24]

      /* Configure the Output Fast mode */
      htim->Instance->CCMR1 &= ~TIM_CCMR1_OC1FE;
 810784c:	68fb      	ldr	r3, [r7, #12]
 810784e:	681b      	ldr	r3, [r3, #0]
 8107850:	699a      	ldr	r2, [r3, #24]
 8107852:	68fb      	ldr	r3, [r7, #12]
 8107854:	681b      	ldr	r3, [r3, #0]
 8107856:	f022 0204 	bic.w	r2, r2, #4
 810785a:	619a      	str	r2, [r3, #24]
      htim->Instance->CCMR1 |= sConfig->OCFastMode;
 810785c:	68fb      	ldr	r3, [r7, #12]
 810785e:	681b      	ldr	r3, [r3, #0]
 8107860:	6999      	ldr	r1, [r3, #24]
 8107862:	68bb      	ldr	r3, [r7, #8]
 8107864:	691a      	ldr	r2, [r3, #16]
 8107866:	68fb      	ldr	r3, [r7, #12]
 8107868:	681b      	ldr	r3, [r3, #0]
 810786a:	430a      	orrs	r2, r1
 810786c:	619a      	str	r2, [r3, #24]
      break;
 810786e:	e0a5      	b.n	81079bc <HAL_TIM_PWM_ConfigChannel+0x214>
    {
      /* Check the parameters */
      assert_param(IS_TIM_CC2_INSTANCE(htim->Instance));

      /* Configure the Channel 2 in PWM mode */
      TIM_OC2_SetConfig(htim->Instance, sConfig);
 8107870:	68fb      	ldr	r3, [r7, #12]
 8107872:	681b      	ldr	r3, [r3, #0]
 8107874:	68b9      	ldr	r1, [r7, #8]
 8107876:	4618      	mov	r0, r3
 8107878:	f000 f9d4 	bl	8107c24 <TIM_OC2_SetConfig>

      /* Set the Preload enable bit for channel2 */
      htim->Instance->CCMR1 |= TIM_CCMR1_OC2PE;
 810787c:	68fb      	ldr	r3, [r7, #12]
 810787e:	681b      	ldr	r3, [r3, #0]
 8107880:	699a      	ldr	r2, [r3, #24]
 8107882:	68fb      	ldr	r3, [r7, #12]
 8107884:	681b      	ldr	r3, [r3, #0]
 8107886:	f442 6200 	orr.w	r2, r2, #2048	; 0x800
 810788a:	619a      	str	r2, [r3, #24]

      /* Configure the Output Fast mode */
      htim->Instance->CCMR1 &= ~TIM_CCMR1_OC2FE;
 810788c:	68fb      	ldr	r3, [r7, #12]
 810788e:	681b      	ldr	r3, [r3, #0]
 8107890:	699a      	ldr	r2, [r3, #24]
 8107892:	68fb      	ldr	r3, [r7, #12]
 8107894:	681b      	ldr	r3, [r3, #0]
 8107896:	f422 6280 	bic.w	r2, r2, #1024	; 0x400
 810789a:	619a      	str	r2, [r3, #24]
      htim->Instance->CCMR1 |= sConfig->OCFastMode << 8U;
 810789c:	68fb      	ldr	r3, [r7, #12]
 810789e:	681b      	ldr	r3, [r3, #0]
 81078a0:	6999      	ldr	r1, [r3, #24]
 81078a2:	68bb      	ldr	r3, [r7, #8]
 81078a4:	691b      	ldr	r3, [r3, #16]
 81078a6:	021a      	lsls	r2, r3, #8
 81078a8:	68fb      	ldr	r3, [r7, #12]
 81078aa:	681b      	ldr	r3, [r3, #0]
 81078ac:	430a      	orrs	r2, r1
 81078ae:	619a      	str	r2, [r3, #24]
      break;
 81078b0:	e084      	b.n	81079bc <HAL_TIM_PWM_ConfigChannel+0x214>
    {
      /* Check the parameters */
      assert_param(IS_TIM_CC3_INSTANCE(htim->Instance));

      /* Configure the Channel 3 in PWM mode */
      TIM_OC3_SetConfig(htim->Instance, sConfig);
 81078b2:	68fb      	ldr	r3, [r7, #12]
 81078b4:	681b      	ldr	r3, [r3, #0]
 81078b6:	68b9      	ldr	r1, [r7, #8]
 81078b8:	4618      	mov	r0, r3
 81078ba:	f000 fa3d 	bl	8107d38 <TIM_OC3_SetConfig>

      /* Set the Preload enable bit for channel3 */
      htim->Instance->CCMR2 |= TIM_CCMR2_OC3PE;
 81078be:	68fb      	ldr	r3, [r7, #12]
 81078c0:	681b      	ldr	r3, [r3, #0]
 81078c2:	69da      	ldr	r2, [r3, #28]
 81078c4:	68fb      	ldr	r3, [r7, #12]
 81078c6:	681b      	ldr	r3, [r3, #0]
 81078c8:	f042 0208 	orr.w	r2, r2, #8
 81078cc:	61da      	str	r2, [r3, #28]

      /* Configure the Output Fast mode */
      htim->Instance->CCMR2 &= ~TIM_CCMR2_OC3FE;
 81078ce:	68fb      	ldr	r3, [r7, #12]
 81078d0:	681b      	ldr	r3, [r3, #0]
 81078d2:	69da      	ldr	r2, [r3, #28]
 81078d4:	68fb      	ldr	r3, [r7, #12]
 81078d6:	681b      	ldr	r3, [r3, #0]
 81078d8:	f022 0204 	bic.w	r2, r2, #4
 81078dc:	61da      	str	r2, [r3, #28]
      htim->Instance->CCMR2 |= sConfig->OCFastMode;
 81078de:	68fb      	ldr	r3, [r7, #12]
 81078e0:	681b      	ldr	r3, [r3, #0]
 81078e2:	69d9      	ldr	r1, [r3, #28]
 81078e4:	68bb      	ldr	r3, [r7, #8]
 81078e6:	691a      	ldr	r2, [r3, #16]
 81078e8:	68fb      	ldr	r3, [r7, #12]
 81078ea:	681b      	ldr	r3, [r3, #0]
 81078ec:	430a      	orrs	r2, r1
 81078ee:	61da      	str	r2, [r3, #28]
      break;
 81078f0:	e064      	b.n	81079bc <HAL_TIM_PWM_ConfigChannel+0x214>
    {
      /* Check the parameters */
      assert_param(IS_TIM_CC4_INSTANCE(htim->Instance));

      /* Configure the Channel 4 in PWM mode */
      TIM_OC4_SetConfig(htim->Instance, sConfig);
 81078f2:	68fb      	ldr	r3, [r7, #12]
 81078f4:	681b      	ldr	r3, [r3, #0]
 81078f6:	68b9      	ldr	r1, [r7, #8]
 81078f8:	4618      	mov	r0, r3
 81078fa:	f000 faa5 	bl	8107e48 <TIM_OC4_SetConfig>

      /* Set the Preload enable bit for channel4 */
      htim->Instance->CCMR2 |= TIM_CCMR2_OC4PE;
 81078fe:	68fb      	ldr	r3, [r7, #12]
 8107900:	681b      	ldr	r3, [r3, #0]
 8107902:	69da      	ldr	r2, [r3, #28]
 8107904:	68fb      	ldr	r3, [r7, #12]
 8107906:	681b      	ldr	r3, [r3, #0]
 8107908:	f442 6200 	orr.w	r2, r2, #2048	; 0x800
 810790c:	61da      	str	r2, [r3, #28]

      /* Configure the Output Fast mode */
      htim->Instance->CCMR2 &= ~TIM_CCMR2_OC4FE;
 810790e:	68fb      	ldr	r3, [r7, #12]
 8107910:	681b      	ldr	r3, [r3, #0]
 8107912:	69da      	ldr	r2, [r3, #28]
 8107914:	68fb      	ldr	r3, [r7, #12]
 8107916:	681b      	ldr	r3, [r3, #0]
 8107918:	f422 6280 	bic.w	r2, r2, #1024	; 0x400
 810791c:	61da      	str	r2, [r3, #28]
      htim->Instance->CCMR2 |= sConfig->OCFastMode << 8U;
 810791e:	68fb      	ldr	r3, [r7, #12]
 8107920:	681b      	ldr	r3, [r3, #0]
 8107922:	69d9      	ldr	r1, [r3, #28]
 8107924:	68bb      	ldr	r3, [r7, #8]
 8107926:	691b      	ldr	r3, [r3, #16]
 8107928:	021a      	lsls	r2, r3, #8
 810792a:	68fb      	ldr	r3, [r7, #12]
 810792c:	681b      	ldr	r3, [r3, #0]
 810792e:	430a      	orrs	r2, r1
 8107930:	61da      	str	r2, [r3, #28]
      break;
 8107932:	e043      	b.n	81079bc <HAL_TIM_PWM_ConfigChannel+0x214>
    {
      /* Check the parameters */
      assert_param(IS_TIM_CC5_INSTANCE(htim->Instance));

      /* Configure the Channel 5 in PWM mode */
      TIM_OC5_SetConfig(htim->Instance, sConfig);
 8107934:	68fb      	ldr	r3, [r7, #12]
 8107936:	681b      	ldr	r3, [r3, #0]
 8107938:	68b9      	ldr	r1, [r7, #8]
 810793a:	4618      	mov	r0, r3
 810793c:	f000 faee 	bl	8107f1c <TIM_OC5_SetConfig>

      /* Set the Preload enable bit for channel5*/
      htim->Instance->CCMR3 |= TIM_CCMR3_OC5PE;
 8107940:	68fb      	ldr	r3, [r7, #12]
 8107942:	681b      	ldr	r3, [r3, #0]
 8107944:	6d5a      	ldr	r2, [r3, #84]	; 0x54
 8107946:	68fb      	ldr	r3, [r7, #12]
 8107948:	681b      	ldr	r3, [r3, #0]
 810794a:	f042 0208 	orr.w	r2, r2, #8
 810794e:	655a      	str	r2, [r3, #84]	; 0x54

      /* Configure the Output Fast mode */
      htim->Instance->CCMR3 &= ~TIM_CCMR3_OC5FE;
 8107950:	68fb      	ldr	r3, [r7, #12]
 8107952:	681b      	ldr	r3, [r3, #0]
 8107954:	6d5a      	ldr	r2, [r3, #84]	; 0x54
 8107956:	68fb      	ldr	r3, [r7, #12]
 8107958:	681b      	ldr	r3, [r3, #0]
 810795a:	f022 0204 	bic.w	r2, r2, #4
 810795e:	655a      	str	r2, [r3, #84]	; 0x54
      htim->Instance->CCMR3 |= sConfig->OCFastMode;
 8107960:	68fb      	ldr	r3, [r7, #12]
 8107962:	681b      	ldr	r3, [r3, #0]
 8107964:	6d59      	ldr	r1, [r3, #84]	; 0x54
 8107966:	68bb      	ldr	r3, [r7, #8]
 8107968:	691a      	ldr	r2, [r3, #16]
 810796a:	68fb      	ldr	r3, [r7, #12]
 810796c:	681b      	ldr	r3, [r3, #0]
 810796e:	430a      	orrs	r2, r1
 8107970:	655a      	str	r2, [r3, #84]	; 0x54
      break;
 8107972:	e023      	b.n	81079bc <HAL_TIM_PWM_ConfigChannel+0x214>
    {
      /* Check the parameters */
      assert_param(IS_TIM_CC6_INSTANCE(htim->Instance));

      /* Configure the Channel 6 in PWM mode */
      TIM_OC6_SetConfig(htim->Instance, sConfig);
 8107974:	68fb      	ldr	r3, [r7, #12]
 8107976:	681b      	ldr	r3, [r3, #0]
 8107978:	68b9      	ldr	r1, [r7, #8]
 810797a:	4618      	mov	r0, r3
 810797c:	f000 fb32 	bl	8107fe4 <TIM_OC6_SetConfig>

      /* Set the Preload enable bit for channel6 */
      htim->Instance->CCMR3 |= TIM_CCMR3_OC6PE;
 8107980:	68fb      	ldr	r3, [r7, #12]
 8107982:	681b      	ldr	r3, [r3, #0]
 8107984:	6d5a      	ldr	r2, [r3, #84]	; 0x54
 8107986:	68fb      	ldr	r3, [r7, #12]
 8107988:	681b      	ldr	r3, [r3, #0]
 810798a:	f442 6200 	orr.w	r2, r2, #2048	; 0x800
 810798e:	655a      	str	r2, [r3, #84]	; 0x54

      /* Configure the Output Fast mode */
      htim->Instance->CCMR3 &= ~TIM_CCMR3_OC6FE;
 8107990:	68fb      	ldr	r3, [r7, #12]
 8107992:	681b      	ldr	r3, [r3, #0]
 8107994:	6d5a      	ldr	r2, [r3, #84]	; 0x54
 8107996:	68fb      	ldr	r3, [r7, #12]
 8107998:	681b      	ldr	r3, [r3, #0]
 810799a:	f422 6280 	bic.w	r2, r2, #1024	; 0x400
 810799e:	655a      	str	r2, [r3, #84]	; 0x54
      htim->Instance->CCMR3 |= sConfig->OCFastMode << 8U;
 81079a0:	68fb      	ldr	r3, [r7, #12]
 81079a2:	681b      	ldr	r3, [r3, #0]
 81079a4:	6d59      	ldr	r1, [r3, #84]	; 0x54
 81079a6:	68bb      	ldr	r3, [r7, #8]
 81079a8:	691b      	ldr	r3, [r3, #16]
 81079aa:	021a      	lsls	r2, r3, #8
 81079ac:	68fb      	ldr	r3, [r7, #12]
 81079ae:	681b      	ldr	r3, [r3, #0]
 81079b0:	430a      	orrs	r2, r1
 81079b2:	655a      	str	r2, [r3, #84]	; 0x54
      break;
 81079b4:	e002      	b.n	81079bc <HAL_TIM_PWM_ConfigChannel+0x214>
    }

    default:
      status = HAL_ERROR;
 81079b6:	2301      	movs	r3, #1
 81079b8:	75fb      	strb	r3, [r7, #23]
      break;
 81079ba:	bf00      	nop
  }

  __HAL_UNLOCK(htim);
 81079bc:	68fb      	ldr	r3, [r7, #12]
 81079be:	2200      	movs	r2, #0
 81079c0:	f883 203c 	strb.w	r2, [r3, #60]	; 0x3c

  return status;
 81079c4:	7dfb      	ldrb	r3, [r7, #23]
}
 81079c6:	4618      	mov	r0, r3
 81079c8:	3718      	adds	r7, #24
 81079ca:	46bd      	mov	sp, r7
 81079cc:	bd80      	pop	{r7, pc}
 81079ce:	bf00      	nop

081079d0 <TIM_Base_SetConfig>:
  * @param  TIMx TIM peripheral
  * @param  Structure TIM Base configuration structure
  * @retval None
  */
void TIM_Base_SetConfig(TIM_TypeDef *TIMx, TIM_Base_InitTypeDef *Structure)
{
 81079d0:	b480      	push	{r7}
 81079d2:	b085      	sub	sp, #20
 81079d4:	af00      	add	r7, sp, #0
 81079d6:	6078      	str	r0, [r7, #4]
 81079d8:	6039      	str	r1, [r7, #0]
  uint32_t tmpcr1;
  tmpcr1 = TIMx->CR1;
 81079da:	687b      	ldr	r3, [r7, #4]
 81079dc:	681b      	ldr	r3, [r3, #0]
 81079de:	60fb      	str	r3, [r7, #12]

  /* Set TIM Time Base Unit parameters ---------------------------------------*/
  if (IS_TIM_COUNTER_MODE_SELECT_INSTANCE(TIMx))
 81079e0:	687b      	ldr	r3, [r7, #4]
 81079e2:	4a40      	ldr	r2, [pc, #256]	; (8107ae4 <TIM_Base_SetConfig+0x114>)
 81079e4:	4293      	cmp	r3, r2
 81079e6:	d013      	beq.n	8107a10 <TIM_Base_SetConfig+0x40>
 81079e8:	687b      	ldr	r3, [r7, #4]
 81079ea:	f1b3 4f80 	cmp.w	r3, #1073741824	; 0x40000000
 81079ee:	d00f      	beq.n	8107a10 <TIM_Base_SetConfig+0x40>
 81079f0:	687b      	ldr	r3, [r7, #4]
 81079f2:	4a3d      	ldr	r2, [pc, #244]	; (8107ae8 <TIM_Base_SetConfig+0x118>)
 81079f4:	4293      	cmp	r3, r2
 81079f6:	d00b      	beq.n	8107a10 <TIM_Base_SetConfig+0x40>
 81079f8:	687b      	ldr	r3, [r7, #4]
 81079fa:	4a3c      	ldr	r2, [pc, #240]	; (8107aec <TIM_Base_SetConfig+0x11c>)
 81079fc:	4293      	cmp	r3, r2
 81079fe:	d007      	beq.n	8107a10 <TIM_Base_SetConfig+0x40>
 8107a00:	687b      	ldr	r3, [r7, #4]
 8107a02:	4a3b      	ldr	r2, [pc, #236]	; (8107af0 <TIM_Base_SetConfig+0x120>)
 8107a04:	4293      	cmp	r3, r2
 8107a06:	d003      	beq.n	8107a10 <TIM_Base_SetConfig+0x40>
 8107a08:	687b      	ldr	r3, [r7, #4]
 8107a0a:	4a3a      	ldr	r2, [pc, #232]	; (8107af4 <TIM_Base_SetConfig+0x124>)
 8107a0c:	4293      	cmp	r3, r2
 8107a0e:	d108      	bne.n	8107a22 <TIM_Base_SetConfig+0x52>
  {
    /* Select the Counter Mode */
    tmpcr1 &= ~(TIM_CR1_DIR | TIM_CR1_CMS);
 8107a10:	68fb      	ldr	r3, [r7, #12]
 8107a12:	f023 0370 	bic.w	r3, r3, #112	; 0x70
 8107a16:	60fb      	str	r3, [r7, #12]
    tmpcr1 |= Structure->CounterMode;
 8107a18:	683b      	ldr	r3, [r7, #0]
 8107a1a:	685b      	ldr	r3, [r3, #4]
 8107a1c:	68fa      	ldr	r2, [r7, #12]
 8107a1e:	4313      	orrs	r3, r2
 8107a20:	60fb      	str	r3, [r7, #12]
  }

  if (IS_TIM_CLOCK_DIVISION_INSTANCE(TIMx))
 8107a22:	687b      	ldr	r3, [r7, #4]
 8107a24:	4a2f      	ldr	r2, [pc, #188]	; (8107ae4 <TIM_Base_SetConfig+0x114>)
 8107a26:	4293      	cmp	r3, r2
 8107a28:	d01f      	beq.n	8107a6a <TIM_Base_SetConfig+0x9a>
 8107a2a:	687b      	ldr	r3, [r7, #4]
 8107a2c:	f1b3 4f80 	cmp.w	r3, #1073741824	; 0x40000000
 8107a30:	d01b      	beq.n	8107a6a <TIM_Base_SetConfig+0x9a>
 8107a32:	687b      	ldr	r3, [r7, #4]
 8107a34:	4a2c      	ldr	r2, [pc, #176]	; (8107ae8 <TIM_Base_SetConfig+0x118>)
 8107a36:	4293      	cmp	r3, r2
 8107a38:	d017      	beq.n	8107a6a <TIM_Base_SetConfig+0x9a>
 8107a3a:	687b      	ldr	r3, [r7, #4]
 8107a3c:	4a2b      	ldr	r2, [pc, #172]	; (8107aec <TIM_Base_SetConfig+0x11c>)
 8107a3e:	4293      	cmp	r3, r2
 8107a40:	d013      	beq.n	8107a6a <TIM_Base_SetConfig+0x9a>
 8107a42:	687b      	ldr	r3, [r7, #4]
 8107a44:	4a2a      	ldr	r2, [pc, #168]	; (8107af0 <TIM_Base_SetConfig+0x120>)
 8107a46:	4293      	cmp	r3, r2
 8107a48:	d00f      	beq.n	8107a6a <TIM_Base_SetConfig+0x9a>
 8107a4a:	687b      	ldr	r3, [r7, #4]
 8107a4c:	4a29      	ldr	r2, [pc, #164]	; (8107af4 <TIM_Base_SetConfig+0x124>)
 8107a4e:	4293      	cmp	r3, r2
 8107a50:	d00b      	beq.n	8107a6a <TIM_Base_SetConfig+0x9a>
 8107a52:	687b      	ldr	r3, [r7, #4]
 8107a54:	4a28      	ldr	r2, [pc, #160]	; (8107af8 <TIM_Base_SetConfig+0x128>)
 8107a56:	4293      	cmp	r3, r2
 8107a58:	d007      	beq.n	8107a6a <TIM_Base_SetConfig+0x9a>
 8107a5a:	687b      	ldr	r3, [r7, #4]
 8107a5c:	4a27      	ldr	r2, [pc, #156]	; (8107afc <TIM_Base_SetConfig+0x12c>)
 8107a5e:	4293      	cmp	r3, r2
 8107a60:	d003      	beq.n	8107a6a <TIM_Base_SetConfig+0x9a>
 8107a62:	687b      	ldr	r3, [r7, #4]
 8107a64:	4a26      	ldr	r2, [pc, #152]	; (8107b00 <TIM_Base_SetConfig+0x130>)
 8107a66:	4293      	cmp	r3, r2
 8107a68:	d108      	bne.n	8107a7c <TIM_Base_SetConfig+0xac>
  {
    /* Set the clock division */
    tmpcr1 &= ~TIM_CR1_CKD;
 8107a6a:	68fb      	ldr	r3, [r7, #12]
 8107a6c:	f423 7340 	bic.w	r3, r3, #768	; 0x300
 8107a70:	60fb      	str	r3, [r7, #12]
    tmpcr1 |= (uint32_t)Structure->ClockDivision;
 8107a72:	683b      	ldr	r3, [r7, #0]
 8107a74:	68db      	ldr	r3, [r3, #12]
 8107a76:	68fa      	ldr	r2, [r7, #12]
 8107a78:	4313      	orrs	r3, r2
 8107a7a:	60fb      	str	r3, [r7, #12]
  }

  /* Set the auto-reload preload */
  MODIFY_REG(tmpcr1, TIM_CR1_ARPE, Structure->AutoReloadPreload);
 8107a7c:	68fb      	ldr	r3, [r7, #12]
 8107a7e:	f023 0280 	bic.w	r2, r3, #128	; 0x80
 8107a82:	683b      	ldr	r3, [r7, #0]
 8107a84:	695b      	ldr	r3, [r3, #20]
 8107a86:	4313      	orrs	r3, r2
 8107a88:	60fb      	str	r3, [r7, #12]

  TIMx->CR1 = tmpcr1;
 8107a8a:	687b      	ldr	r3, [r7, #4]
 8107a8c:	68fa      	ldr	r2, [r7, #12]
 8107a8e:	601a      	str	r2, [r3, #0]

  /* Set the Autoreload value */
  TIMx->ARR = (uint32_t)Structure->Period ;
 8107a90:	683b      	ldr	r3, [r7, #0]
 8107a92:	689a      	ldr	r2, [r3, #8]
 8107a94:	687b      	ldr	r3, [r7, #4]
 8107a96:	62da      	str	r2, [r3, #44]	; 0x2c

  /* Set the Prescaler value */
  TIMx->PSC = Structure->Prescaler;
 8107a98:	683b      	ldr	r3, [r7, #0]
 8107a9a:	681a      	ldr	r2, [r3, #0]
 8107a9c:	687b      	ldr	r3, [r7, #4]
 8107a9e:	629a      	str	r2, [r3, #40]	; 0x28

  if (IS_TIM_REPETITION_COUNTER_INSTANCE(TIMx))
 8107aa0:	687b      	ldr	r3, [r7, #4]
 8107aa2:	4a10      	ldr	r2, [pc, #64]	; (8107ae4 <TIM_Base_SetConfig+0x114>)
 8107aa4:	4293      	cmp	r3, r2
 8107aa6:	d00f      	beq.n	8107ac8 <TIM_Base_SetConfig+0xf8>
 8107aa8:	687b      	ldr	r3, [r7, #4]
 8107aaa:	4a12      	ldr	r2, [pc, #72]	; (8107af4 <TIM_Base_SetConfig+0x124>)
 8107aac:	4293      	cmp	r3, r2
 8107aae:	d00b      	beq.n	8107ac8 <TIM_Base_SetConfig+0xf8>
 8107ab0:	687b      	ldr	r3, [r7, #4]
 8107ab2:	4a11      	ldr	r2, [pc, #68]	; (8107af8 <TIM_Base_SetConfig+0x128>)
 8107ab4:	4293      	cmp	r3, r2
 8107ab6:	d007      	beq.n	8107ac8 <TIM_Base_SetConfig+0xf8>
 8107ab8:	687b      	ldr	r3, [r7, #4]
 8107aba:	4a10      	ldr	r2, [pc, #64]	; (8107afc <TIM_Base_SetConfig+0x12c>)
 8107abc:	4293      	cmp	r3, r2
 8107abe:	d003      	beq.n	8107ac8 <TIM_Base_SetConfig+0xf8>
 8107ac0:	687b      	ldr	r3, [r7, #4]
 8107ac2:	4a0f      	ldr	r2, [pc, #60]	; (8107b00 <TIM_Base_SetConfig+0x130>)
 8107ac4:	4293      	cmp	r3, r2
 8107ac6:	d103      	bne.n	8107ad0 <TIM_Base_SetConfig+0x100>
  {
    /* Set the Repetition Counter value */
    TIMx->RCR = Structure->RepetitionCounter;
 8107ac8:	683b      	ldr	r3, [r7, #0]
 8107aca:	691a      	ldr	r2, [r3, #16]
 8107acc:	687b      	ldr	r3, [r7, #4]
 8107ace:	631a      	str	r2, [r3, #48]	; 0x30
  }

  /* Generate an update event to reload the Prescaler
     and the repetition counter (only for advanced timer) value immediately */
  TIMx->EGR = TIM_EGR_UG;
 8107ad0:	687b      	ldr	r3, [r7, #4]
 8107ad2:	2201      	movs	r2, #1
 8107ad4:	615a      	str	r2, [r3, #20]
}
 8107ad6:	bf00      	nop
 8107ad8:	3714      	adds	r7, #20
 8107ada:	46bd      	mov	sp, r7
 8107adc:	f85d 7b04 	ldr.w	r7, [sp], #4
 8107ae0:	4770      	bx	lr
 8107ae2:	bf00      	nop
 8107ae4:	40010000 	.word	0x40010000
 8107ae8:	40000400 	.word	0x40000400
 8107aec:	40000800 	.word	0x40000800
 8107af0:	40000c00 	.word	0x40000c00
 8107af4:	40010400 	.word	0x40010400
 8107af8:	40014000 	.word	0x40014000
 8107afc:	40014400 	.word	0x40014400
 8107b00:	40014800 	.word	0x40014800

08107b04 <TIM_OC1_SetConfig>:
  * @param  TIMx to select the TIM peripheral
  * @param  OC_Config The output configuration structure
  * @retval None
  */
static void TIM_OC1_SetConfig(TIM_TypeDef *TIMx, TIM_OC_InitTypeDef *OC_Config)
{
 8107b04:	b480      	push	{r7}
 8107b06:	b087      	sub	sp, #28
 8107b08:	af00      	add	r7, sp, #0
 8107b0a:	6078      	str	r0, [r7, #4]
 8107b0c:	6039      	str	r1, [r7, #0]
  uint32_t tmpccmrx;
  uint32_t tmpccer;
  uint32_t tmpcr2;

  /* Disable the Channel 1: Reset the CC1E Bit */
  TIMx->CCER &= ~TIM_CCER_CC1E;
 8107b0e:	687b      	ldr	r3, [r7, #4]
 8107b10:	6a1b      	ldr	r3, [r3, #32]
 8107b12:	f023 0201 	bic.w	r2, r3, #1
 8107b16:	687b      	ldr	r3, [r7, #4]
 8107b18:	621a      	str	r2, [r3, #32]

  /* Get the TIMx CCER register value */
  tmpccer = TIMx->CCER;
 8107b1a:	687b      	ldr	r3, [r7, #4]
 8107b1c:	6a1b      	ldr	r3, [r3, #32]
 8107b1e:	617b      	str	r3, [r7, #20]
  /* Get the TIMx CR2 register value */
  tmpcr2 =  TIMx->CR2;
 8107b20:	687b      	ldr	r3, [r7, #4]
 8107b22:	685b      	ldr	r3, [r3, #4]
 8107b24:	613b      	str	r3, [r7, #16]

  /* Get the TIMx CCMR1 register value */
  tmpccmrx = TIMx->CCMR1;
 8107b26:	687b      	ldr	r3, [r7, #4]
 8107b28:	699b      	ldr	r3, [r3, #24]
 8107b2a:	60fb      	str	r3, [r7, #12]

  /* Reset the Output Compare Mode Bits */
  tmpccmrx &= ~TIM_CCMR1_OC1M;
 8107b2c:	68fb      	ldr	r3, [r7, #12]
 8107b2e:	f423 3380 	bic.w	r3, r3, #65536	; 0x10000
 8107b32:	f023 0370 	bic.w	r3, r3, #112	; 0x70
 8107b36:	60fb      	str	r3, [r7, #12]
  tmpccmrx &= ~TIM_CCMR1_CC1S;
 8107b38:	68fb      	ldr	r3, [r7, #12]
 8107b3a:	f023 0303 	bic.w	r3, r3, #3
 8107b3e:	60fb      	str	r3, [r7, #12]
  /* Select the Output Compare Mode */
  tmpccmrx |= OC_Config->OCMode;
 8107b40:	683b      	ldr	r3, [r7, #0]
 8107b42:	681b      	ldr	r3, [r3, #0]
 8107b44:	68fa      	ldr	r2, [r7, #12]
 8107b46:	4313      	orrs	r3, r2
 8107b48:	60fb      	str	r3, [r7, #12]

  /* Reset the Output Polarity level */
  tmpccer &= ~TIM_CCER_CC1P;
 8107b4a:	697b      	ldr	r3, [r7, #20]
 8107b4c:	f023 0302 	bic.w	r3, r3, #2
 8107b50:	617b      	str	r3, [r7, #20]
  /* Set the Output Compare Polarity */
  tmpccer |= OC_Config->OCPolarity;
 8107b52:	683b      	ldr	r3, [r7, #0]
 8107b54:	689b      	ldr	r3, [r3, #8]
 8107b56:	697a      	ldr	r2, [r7, #20]
 8107b58:	4313      	orrs	r3, r2
 8107b5a:	617b      	str	r3, [r7, #20]

  if (IS_TIM_CCXN_INSTANCE(TIMx, TIM_CHANNEL_1))
 8107b5c:	687b      	ldr	r3, [r7, #4]
 8107b5e:	4a2c      	ldr	r2, [pc, #176]	; (8107c10 <TIM_OC1_SetConfig+0x10c>)
 8107b60:	4293      	cmp	r3, r2
 8107b62:	d00f      	beq.n	8107b84 <TIM_OC1_SetConfig+0x80>
 8107b64:	687b      	ldr	r3, [r7, #4]
 8107b66:	4a2b      	ldr	r2, [pc, #172]	; (8107c14 <TIM_OC1_SetConfig+0x110>)
 8107b68:	4293      	cmp	r3, r2
 8107b6a:	d00b      	beq.n	8107b84 <TIM_OC1_SetConfig+0x80>
 8107b6c:	687b      	ldr	r3, [r7, #4]
 8107b6e:	4a2a      	ldr	r2, [pc, #168]	; (8107c18 <TIM_OC1_SetConfig+0x114>)
 8107b70:	4293      	cmp	r3, r2
 8107b72:	d007      	beq.n	8107b84 <TIM_OC1_SetConfig+0x80>
 8107b74:	687b      	ldr	r3, [r7, #4]
 8107b76:	4a29      	ldr	r2, [pc, #164]	; (8107c1c <TIM_OC1_SetConfig+0x118>)
 8107b78:	4293      	cmp	r3, r2
 8107b7a:	d003      	beq.n	8107b84 <TIM_OC1_SetConfig+0x80>
 8107b7c:	687b      	ldr	r3, [r7, #4]
 8107b7e:	4a28      	ldr	r2, [pc, #160]	; (8107c20 <TIM_OC1_SetConfig+0x11c>)
 8107b80:	4293      	cmp	r3, r2
 8107b82:	d10c      	bne.n	8107b9e <TIM_OC1_SetConfig+0x9a>
  {
    /* Check parameters */
    assert_param(IS_TIM_OCN_POLARITY(OC_Config->OCNPolarity));

    /* Reset the Output N Polarity level */
    tmpccer &= ~TIM_CCER_CC1NP;
 8107b84:	697b      	ldr	r3, [r7, #20]
 8107b86:	f023 0308 	bic.w	r3, r3, #8
 8107b8a:	617b      	str	r3, [r7, #20]
    /* Set the Output N Polarity */
    tmpccer |= OC_Config->OCNPolarity;
 8107b8c:	683b      	ldr	r3, [r7, #0]
 8107b8e:	68db      	ldr	r3, [r3, #12]
 8107b90:	697a      	ldr	r2, [r7, #20]
 8107b92:	4313      	orrs	r3, r2
 8107b94:	617b      	str	r3, [r7, #20]
    /* Reset the Output N State */
    tmpccer &= ~TIM_CCER_CC1NE;
 8107b96:	697b      	ldr	r3, [r7, #20]
 8107b98:	f023 0304 	bic.w	r3, r3, #4
 8107b9c:	617b      	str	r3, [r7, #20]
  }

  if (IS_TIM_BREAK_INSTANCE(TIMx))
 8107b9e:	687b      	ldr	r3, [r7, #4]
 8107ba0:	4a1b      	ldr	r2, [pc, #108]	; (8107c10 <TIM_OC1_SetConfig+0x10c>)
 8107ba2:	4293      	cmp	r3, r2
 8107ba4:	d00f      	beq.n	8107bc6 <TIM_OC1_SetConfig+0xc2>
 8107ba6:	687b      	ldr	r3, [r7, #4]
 8107ba8:	4a1a      	ldr	r2, [pc, #104]	; (8107c14 <TIM_OC1_SetConfig+0x110>)
 8107baa:	4293      	cmp	r3, r2
 8107bac:	d00b      	beq.n	8107bc6 <TIM_OC1_SetConfig+0xc2>
 8107bae:	687b      	ldr	r3, [r7, #4]
 8107bb0:	4a19      	ldr	r2, [pc, #100]	; (8107c18 <TIM_OC1_SetConfig+0x114>)
 8107bb2:	4293      	cmp	r3, r2
 8107bb4:	d007      	beq.n	8107bc6 <TIM_OC1_SetConfig+0xc2>
 8107bb6:	687b      	ldr	r3, [r7, #4]
 8107bb8:	4a18      	ldr	r2, [pc, #96]	; (8107c1c <TIM_OC1_SetConfig+0x118>)
 8107bba:	4293      	cmp	r3, r2
 8107bbc:	d003      	beq.n	8107bc6 <TIM_OC1_SetConfig+0xc2>
 8107bbe:	687b      	ldr	r3, [r7, #4]
 8107bc0:	4a17      	ldr	r2, [pc, #92]	; (8107c20 <TIM_OC1_SetConfig+0x11c>)
 8107bc2:	4293      	cmp	r3, r2
 8107bc4:	d111      	bne.n	8107bea <TIM_OC1_SetConfig+0xe6>
    /* Check parameters */
    assert_param(IS_TIM_OCNIDLE_STATE(OC_Config->OCNIdleState));
    assert_param(IS_TIM_OCIDLE_STATE(OC_Config->OCIdleState));

    /* Reset the Output Compare and Output Compare N IDLE State */
    tmpcr2 &= ~TIM_CR2_OIS1;
 8107bc6:	693b      	ldr	r3, [r7, #16]
 8107bc8:	f423 7380 	bic.w	r3, r3, #256	; 0x100
 8107bcc:	613b      	str	r3, [r7, #16]
    tmpcr2 &= ~TIM_CR2_OIS1N;
 8107bce:	693b      	ldr	r3, [r7, #16]
 8107bd0:	f423 7300 	bic.w	r3, r3, #512	; 0x200
 8107bd4:	613b      	str	r3, [r7, #16]
    /* Set the Output Idle state */
    tmpcr2 |= OC_Config->OCIdleState;
 8107bd6:	683b      	ldr	r3, [r7, #0]
 8107bd8:	695b      	ldr	r3, [r3, #20]
 8107bda:	693a      	ldr	r2, [r7, #16]
 8107bdc:	4313      	orrs	r3, r2
 8107bde:	613b      	str	r3, [r7, #16]
    /* Set the Output N Idle state */
    tmpcr2 |= OC_Config->OCNIdleState;
 8107be0:	683b      	ldr	r3, [r7, #0]
 8107be2:	699b      	ldr	r3, [r3, #24]
 8107be4:	693a      	ldr	r2, [r7, #16]
 8107be6:	4313      	orrs	r3, r2
 8107be8:	613b      	str	r3, [r7, #16]
  }

  /* Write to TIMx CR2 */
  TIMx->CR2 = tmpcr2;
 8107bea:	687b      	ldr	r3, [r7, #4]
 8107bec:	693a      	ldr	r2, [r7, #16]
 8107bee:	605a      	str	r2, [r3, #4]

  /* Write to TIMx CCMR1 */
  TIMx->CCMR1 = tmpccmrx;
 8107bf0:	687b      	ldr	r3, [r7, #4]
 8107bf2:	68fa      	ldr	r2, [r7, #12]
 8107bf4:	619a      	str	r2, [r3, #24]

  /* Set the Capture Compare Register value */
  TIMx->CCR1 = OC_Config->Pulse;
 8107bf6:	683b      	ldr	r3, [r7, #0]
 8107bf8:	685a      	ldr	r2, [r3, #4]
 8107bfa:	687b      	ldr	r3, [r7, #4]
 8107bfc:	635a      	str	r2, [r3, #52]	; 0x34

  /* Write to TIMx CCER */
  TIMx->CCER = tmpccer;
 8107bfe:	687b      	ldr	r3, [r7, #4]
 8107c00:	697a      	ldr	r2, [r7, #20]
 8107c02:	621a      	str	r2, [r3, #32]
}
 8107c04:	bf00      	nop
 8107c06:	371c      	adds	r7, #28
 8107c08:	46bd      	mov	sp, r7
 8107c0a:	f85d 7b04 	ldr.w	r7, [sp], #4
 8107c0e:	4770      	bx	lr
 8107c10:	40010000 	.word	0x40010000
 8107c14:	40010400 	.word	0x40010400
 8107c18:	40014000 	.word	0x40014000
 8107c1c:	40014400 	.word	0x40014400
 8107c20:	40014800 	.word	0x40014800

08107c24 <TIM_OC2_SetConfig>:
  * @param  TIMx to select the TIM peripheral
  * @param  OC_Config The output configuration structure
  * @retval None
  */
void TIM_OC2_SetConfig(TIM_TypeDef *TIMx, TIM_OC_InitTypeDef *OC_Config)
{
 8107c24:	b480      	push	{r7}
 8107c26:	b087      	sub	sp, #28
 8107c28:	af00      	add	r7, sp, #0
 8107c2a:	6078      	str	r0, [r7, #4]
 8107c2c:	6039      	str	r1, [r7, #0]
  uint32_t tmpccmrx;
  uint32_t tmpccer;
  uint32_t tmpcr2;

  /* Disable the Channel 2: Reset the CC2E Bit */
  TIMx->CCER &= ~TIM_CCER_CC2E;
 8107c2e:	687b      	ldr	r3, [r7, #4]
 8107c30:	6a1b      	ldr	r3, [r3, #32]
 8107c32:	f023 0210 	bic.w	r2, r3, #16
 8107c36:	687b      	ldr	r3, [r7, #4]
 8107c38:	621a      	str	r2, [r3, #32]

  /* Get the TIMx CCER register value */
  tmpccer = TIMx->CCER;
 8107c3a:	687b      	ldr	r3, [r7, #4]
 8107c3c:	6a1b      	ldr	r3, [r3, #32]
 8107c3e:	617b      	str	r3, [r7, #20]
  /* Get the TIMx CR2 register value */
  tmpcr2 =  TIMx->CR2;
 8107c40:	687b      	ldr	r3, [r7, #4]
 8107c42:	685b      	ldr	r3, [r3, #4]
 8107c44:	613b      	str	r3, [r7, #16]

  /* Get the TIMx CCMR1 register value */
  tmpccmrx = TIMx->CCMR1;
 8107c46:	687b      	ldr	r3, [r7, #4]
 8107c48:	699b      	ldr	r3, [r3, #24]
 8107c4a:	60fb      	str	r3, [r7, #12]

  /* Reset the Output Compare mode and Capture/Compare selection Bits */
  tmpccmrx &= ~TIM_CCMR1_OC2M;
 8107c4c:	68fb      	ldr	r3, [r7, #12]
 8107c4e:	f023 7380 	bic.w	r3, r3, #16777216	; 0x1000000
 8107c52:	f423 43e0 	bic.w	r3, r3, #28672	; 0x7000
 8107c56:	60fb      	str	r3, [r7, #12]
  tmpccmrx &= ~TIM_CCMR1_CC2S;
 8107c58:	68fb      	ldr	r3, [r7, #12]
 8107c5a:	f423 7340 	bic.w	r3, r3, #768	; 0x300
 8107c5e:	60fb      	str	r3, [r7, #12]

  /* Select the Output Compare Mode */
  tmpccmrx |= (OC_Config->OCMode << 8U);
 8107c60:	683b      	ldr	r3, [r7, #0]
 8107c62:	681b      	ldr	r3, [r3, #0]
 8107c64:	021b      	lsls	r3, r3, #8
 8107c66:	68fa      	ldr	r2, [r7, #12]
 8107c68:	4313      	orrs	r3, r2
 8107c6a:	60fb      	str	r3, [r7, #12]

  /* Reset the Output Polarity level */
  tmpccer &= ~TIM_CCER_CC2P;
 8107c6c:	697b      	ldr	r3, [r7, #20]
 8107c6e:	f023 0320 	bic.w	r3, r3, #32
 8107c72:	617b      	str	r3, [r7, #20]
  /* Set the Output Compare Polarity */
  tmpccer |= (OC_Config->OCPolarity << 4U);
 8107c74:	683b      	ldr	r3, [r7, #0]
 8107c76:	689b      	ldr	r3, [r3, #8]
 8107c78:	011b      	lsls	r3, r3, #4
 8107c7a:	697a      	ldr	r2, [r7, #20]
 8107c7c:	4313      	orrs	r3, r2
 8107c7e:	617b      	str	r3, [r7, #20]

  if (IS_TIM_CCXN_INSTANCE(TIMx, TIM_CHANNEL_2))
 8107c80:	687b      	ldr	r3, [r7, #4]
 8107c82:	4a28      	ldr	r2, [pc, #160]	; (8107d24 <TIM_OC2_SetConfig+0x100>)
 8107c84:	4293      	cmp	r3, r2
 8107c86:	d003      	beq.n	8107c90 <TIM_OC2_SetConfig+0x6c>
 8107c88:	687b      	ldr	r3, [r7, #4]
 8107c8a:	4a27      	ldr	r2, [pc, #156]	; (8107d28 <TIM_OC2_SetConfig+0x104>)
 8107c8c:	4293      	cmp	r3, r2
 8107c8e:	d10d      	bne.n	8107cac <TIM_OC2_SetConfig+0x88>
  {
    assert_param(IS_TIM_OCN_POLARITY(OC_Config->OCNPolarity));

    /* Reset the Output N Polarity level */
    tmpccer &= ~TIM_CCER_CC2NP;
 8107c90:	697b      	ldr	r3, [r7, #20]
 8107c92:	f023 0380 	bic.w	r3, r3, #128	; 0x80
 8107c96:	617b      	str	r3, [r7, #20]
    /* Set the Output N Polarity */
    tmpccer |= (OC_Config->OCNPolarity << 4U);
 8107c98:	683b      	ldr	r3, [r7, #0]
 8107c9a:	68db      	ldr	r3, [r3, #12]
 8107c9c:	011b      	lsls	r3, r3, #4
 8107c9e:	697a      	ldr	r2, [r7, #20]
 8107ca0:	4313      	orrs	r3, r2
 8107ca2:	617b      	str	r3, [r7, #20]
    /* Reset the Output N State */
    tmpccer &= ~TIM_CCER_CC2NE;
 8107ca4:	697b      	ldr	r3, [r7, #20]
 8107ca6:	f023 0340 	bic.w	r3, r3, #64	; 0x40
 8107caa:	617b      	str	r3, [r7, #20]

  }

  if (IS_TIM_BREAK_INSTANCE(TIMx))
 8107cac:	687b      	ldr	r3, [r7, #4]
 8107cae:	4a1d      	ldr	r2, [pc, #116]	; (8107d24 <TIM_OC2_SetConfig+0x100>)
 8107cb0:	4293      	cmp	r3, r2
 8107cb2:	d00f      	beq.n	8107cd4 <TIM_OC2_SetConfig+0xb0>
 8107cb4:	687b      	ldr	r3, [r7, #4]
 8107cb6:	4a1c      	ldr	r2, [pc, #112]	; (8107d28 <TIM_OC2_SetConfig+0x104>)
 8107cb8:	4293      	cmp	r3, r2
 8107cba:	d00b      	beq.n	8107cd4 <TIM_OC2_SetConfig+0xb0>
 8107cbc:	687b      	ldr	r3, [r7, #4]
 8107cbe:	4a1b      	ldr	r2, [pc, #108]	; (8107d2c <TIM_OC2_SetConfig+0x108>)
 8107cc0:	4293      	cmp	r3, r2
 8107cc2:	d007      	beq.n	8107cd4 <TIM_OC2_SetConfig+0xb0>
 8107cc4:	687b      	ldr	r3, [r7, #4]
 8107cc6:	4a1a      	ldr	r2, [pc, #104]	; (8107d30 <TIM_OC2_SetConfig+0x10c>)
 8107cc8:	4293      	cmp	r3, r2
 8107cca:	d003      	beq.n	8107cd4 <TIM_OC2_SetConfig+0xb0>
 8107ccc:	687b      	ldr	r3, [r7, #4]
 8107cce:	4a19      	ldr	r2, [pc, #100]	; (8107d34 <TIM_OC2_SetConfig+0x110>)
 8107cd0:	4293      	cmp	r3, r2
 8107cd2:	d113      	bne.n	8107cfc <TIM_OC2_SetConfig+0xd8>
    /* Check parameters */
    assert_param(IS_TIM_OCNIDLE_STATE(OC_Config->OCNIdleState));
    assert_param(IS_TIM_OCIDLE_STATE(OC_Config->OCIdleState));

    /* Reset the Output Compare and Output Compare N IDLE State */
    tmpcr2 &= ~TIM_CR2_OIS2;
 8107cd4:	693b      	ldr	r3, [r7, #16]
 8107cd6:	f423 6380 	bic.w	r3, r3, #1024	; 0x400
 8107cda:	613b      	str	r3, [r7, #16]
    tmpcr2 &= ~TIM_CR2_OIS2N;
 8107cdc:	693b      	ldr	r3, [r7, #16]
 8107cde:	f423 6300 	bic.w	r3, r3, #2048	; 0x800
 8107ce2:	613b      	str	r3, [r7, #16]
    /* Set the Output Idle state */
    tmpcr2 |= (OC_Config->OCIdleState << 2U);
 8107ce4:	683b      	ldr	r3, [r7, #0]
 8107ce6:	695b      	ldr	r3, [r3, #20]
 8107ce8:	009b      	lsls	r3, r3, #2
 8107cea:	693a      	ldr	r2, [r7, #16]
 8107cec:	4313      	orrs	r3, r2
 8107cee:	613b      	str	r3, [r7, #16]
    /* Set the Output N Idle state */
    tmpcr2 |= (OC_Config->OCNIdleState << 2U);
 8107cf0:	683b      	ldr	r3, [r7, #0]
 8107cf2:	699b      	ldr	r3, [r3, #24]
 8107cf4:	009b      	lsls	r3, r3, #2
 8107cf6:	693a      	ldr	r2, [r7, #16]
 8107cf8:	4313      	orrs	r3, r2
 8107cfa:	613b      	str	r3, [r7, #16]
  }

  /* Write to TIMx CR2 */
  TIMx->CR2 = tmpcr2;
 8107cfc:	687b      	ldr	r3, [r7, #4]
 8107cfe:	693a      	ldr	r2, [r7, #16]
 8107d00:	605a      	str	r2, [r3, #4]

  /* Write to TIMx CCMR1 */
  TIMx->CCMR1 = tmpccmrx;
 8107d02:	687b      	ldr	r3, [r7, #4]
 8107d04:	68fa      	ldr	r2, [r7, #12]
 8107d06:	619a      	str	r2, [r3, #24]

  /* Set the Capture Compare Register value */
  TIMx->CCR2 = OC_Config->Pulse;
 8107d08:	683b      	ldr	r3, [r7, #0]
 8107d0a:	685a      	ldr	r2, [r3, #4]
 8107d0c:	687b      	ldr	r3, [r7, #4]
 8107d0e:	639a      	str	r2, [r3, #56]	; 0x38

  /* Write to TIMx CCER */
  TIMx->CCER = tmpccer;
 8107d10:	687b      	ldr	r3, [r7, #4]
 8107d12:	697a      	ldr	r2, [r7, #20]
 8107d14:	621a      	str	r2, [r3, #32]
}
 8107d16:	bf00      	nop
 8107d18:	371c      	adds	r7, #28
 8107d1a:	46bd      	mov	sp, r7
 8107d1c:	f85d 7b04 	ldr.w	r7, [sp], #4
 8107d20:	4770      	bx	lr
 8107d22:	bf00      	nop
 8107d24:	40010000 	.word	0x40010000
 8107d28:	40010400 	.word	0x40010400
 8107d2c:	40014000 	.word	0x40014000
 8107d30:	40014400 	.word	0x40014400
 8107d34:	40014800 	.word	0x40014800

08107d38 <TIM_OC3_SetConfig>:
  * @param  TIMx to select the TIM peripheral
  * @param  OC_Config The output configuration structure
  * @retval None
  */
static void TIM_OC3_SetConfig(TIM_TypeDef *TIMx, TIM_OC_InitTypeDef *OC_Config)
{
 8107d38:	b480      	push	{r7}
 8107d3a:	b087      	sub	sp, #28
 8107d3c:	af00      	add	r7, sp, #0
 8107d3e:	6078      	str	r0, [r7, #4]
 8107d40:	6039      	str	r1, [r7, #0]
  uint32_t tmpccmrx;
  uint32_t tmpccer;
  uint32_t tmpcr2;

  /* Disable the Channel 3: Reset the CC2E Bit */
  TIMx->CCER &= ~TIM_CCER_CC3E;
 8107d42:	687b      	ldr	r3, [r7, #4]
 8107d44:	6a1b      	ldr	r3, [r3, #32]
 8107d46:	f423 7280 	bic.w	r2, r3, #256	; 0x100
 8107d4a:	687b      	ldr	r3, [r7, #4]
 8107d4c:	621a      	str	r2, [r3, #32]

  /* Get the TIMx CCER register value */
  tmpccer = TIMx->CCER;
 8107d4e:	687b      	ldr	r3, [r7, #4]
 8107d50:	6a1b      	ldr	r3, [r3, #32]
 8107d52:	617b      	str	r3, [r7, #20]
  /* Get the TIMx CR2 register value */
  tmpcr2 =  TIMx->CR2;
 8107d54:	687b      	ldr	r3, [r7, #4]
 8107d56:	685b      	ldr	r3, [r3, #4]
 8107d58:	613b      	str	r3, [r7, #16]

  /* Get the TIMx CCMR2 register value */
  tmpccmrx = TIMx->CCMR2;
 8107d5a:	687b      	ldr	r3, [r7, #4]
 8107d5c:	69db      	ldr	r3, [r3, #28]
 8107d5e:	60fb      	str	r3, [r7, #12]

  /* Reset the Output Compare mode and Capture/Compare selection Bits */
  tmpccmrx &= ~TIM_CCMR2_OC3M;
 8107d60:	68fb      	ldr	r3, [r7, #12]
 8107d62:	f423 3380 	bic.w	r3, r3, #65536	; 0x10000
 8107d66:	f023 0370 	bic.w	r3, r3, #112	; 0x70
 8107d6a:	60fb      	str	r3, [r7, #12]
  tmpccmrx &= ~TIM_CCMR2_CC3S;
 8107d6c:	68fb      	ldr	r3, [r7, #12]
 8107d6e:	f023 0303 	bic.w	r3, r3, #3
 8107d72:	60fb      	str	r3, [r7, #12]
  /* Select the Output Compare Mode */
  tmpccmrx |= OC_Config->OCMode;
 8107d74:	683b      	ldr	r3, [r7, #0]
 8107d76:	681b      	ldr	r3, [r3, #0]
 8107d78:	68fa      	ldr	r2, [r7, #12]
 8107d7a:	4313      	orrs	r3, r2
 8107d7c:	60fb      	str	r3, [r7, #12]

  /* Reset the Output Polarity level */
  tmpccer &= ~TIM_CCER_CC3P;
 8107d7e:	697b      	ldr	r3, [r7, #20]
 8107d80:	f423 7300 	bic.w	r3, r3, #512	; 0x200
 8107d84:	617b      	str	r3, [r7, #20]
  /* Set the Output Compare Polarity */
  tmpccer |= (OC_Config->OCPolarity << 8U);
 8107d86:	683b      	ldr	r3, [r7, #0]
 8107d88:	689b      	ldr	r3, [r3, #8]
 8107d8a:	021b      	lsls	r3, r3, #8
 8107d8c:	697a      	ldr	r2, [r7, #20]
 8107d8e:	4313      	orrs	r3, r2
 8107d90:	617b      	str	r3, [r7, #20]

  if (IS_TIM_CCXN_INSTANCE(TIMx, TIM_CHANNEL_3))
 8107d92:	687b      	ldr	r3, [r7, #4]
 8107d94:	4a27      	ldr	r2, [pc, #156]	; (8107e34 <TIM_OC3_SetConfig+0xfc>)
 8107d96:	4293      	cmp	r3, r2
 8107d98:	d003      	beq.n	8107da2 <TIM_OC3_SetConfig+0x6a>
 8107d9a:	687b      	ldr	r3, [r7, #4]
 8107d9c:	4a26      	ldr	r2, [pc, #152]	; (8107e38 <TIM_OC3_SetConfig+0x100>)
 8107d9e:	4293      	cmp	r3, r2
 8107da0:	d10d      	bne.n	8107dbe <TIM_OC3_SetConfig+0x86>
  {
    assert_param(IS_TIM_OCN_POLARITY(OC_Config->OCNPolarity));

    /* Reset the Output N Polarity level */
    tmpccer &= ~TIM_CCER_CC3NP;
 8107da2:	697b      	ldr	r3, [r7, #20]
 8107da4:	f423 6300 	bic.w	r3, r3, #2048	; 0x800
 8107da8:	617b      	str	r3, [r7, #20]
    /* Set the Output N Polarity */
    tmpccer |= (OC_Config->OCNPolarity << 8U);
 8107daa:	683b      	ldr	r3, [r7, #0]
 8107dac:	68db      	ldr	r3, [r3, #12]
 8107dae:	021b      	lsls	r3, r3, #8
 8107db0:	697a      	ldr	r2, [r7, #20]
 8107db2:	4313      	orrs	r3, r2
 8107db4:	617b      	str	r3, [r7, #20]
    /* Reset the Output N State */
    tmpccer &= ~TIM_CCER_CC3NE;
 8107db6:	697b      	ldr	r3, [r7, #20]
 8107db8:	f423 6380 	bic.w	r3, r3, #1024	; 0x400
 8107dbc:	617b      	str	r3, [r7, #20]
  }

  if (IS_TIM_BREAK_INSTANCE(TIMx))
 8107dbe:	687b      	ldr	r3, [r7, #4]
 8107dc0:	4a1c      	ldr	r2, [pc, #112]	; (8107e34 <TIM_OC3_SetConfig+0xfc>)
 8107dc2:	4293      	cmp	r3, r2
 8107dc4:	d00f      	beq.n	8107de6 <TIM_OC3_SetConfig+0xae>
 8107dc6:	687b      	ldr	r3, [r7, #4]
 8107dc8:	4a1b      	ldr	r2, [pc, #108]	; (8107e38 <TIM_OC3_SetConfig+0x100>)
 8107dca:	4293      	cmp	r3, r2
 8107dcc:	d00b      	beq.n	8107de6 <TIM_OC3_SetConfig+0xae>
 8107dce:	687b      	ldr	r3, [r7, #4]
 8107dd0:	4a1a      	ldr	r2, [pc, #104]	; (8107e3c <TIM_OC3_SetConfig+0x104>)
 8107dd2:	4293      	cmp	r3, r2
 8107dd4:	d007      	beq.n	8107de6 <TIM_OC3_SetConfig+0xae>
 8107dd6:	687b      	ldr	r3, [r7, #4]
 8107dd8:	4a19      	ldr	r2, [pc, #100]	; (8107e40 <TIM_OC3_SetConfig+0x108>)
 8107dda:	4293      	cmp	r3, r2
 8107ddc:	d003      	beq.n	8107de6 <TIM_OC3_SetConfig+0xae>
 8107dde:	687b      	ldr	r3, [r7, #4]
 8107de0:	4a18      	ldr	r2, [pc, #96]	; (8107e44 <TIM_OC3_SetConfig+0x10c>)
 8107de2:	4293      	cmp	r3, r2
 8107de4:	d113      	bne.n	8107e0e <TIM_OC3_SetConfig+0xd6>
    /* Check parameters */
    assert_param(IS_TIM_OCNIDLE_STATE(OC_Config->OCNIdleState));
    assert_param(IS_TIM_OCIDLE_STATE(OC_Config->OCIdleState));

    /* Reset the Output Compare and Output Compare N IDLE State */
    tmpcr2 &= ~TIM_CR2_OIS3;
 8107de6:	693b      	ldr	r3, [r7, #16]
 8107de8:	f423 5380 	bic.w	r3, r3, #4096	; 0x1000
 8107dec:	613b      	str	r3, [r7, #16]
    tmpcr2 &= ~TIM_CR2_OIS3N;
 8107dee:	693b      	ldr	r3, [r7, #16]
 8107df0:	f423 5300 	bic.w	r3, r3, #8192	; 0x2000
 8107df4:	613b      	str	r3, [r7, #16]
    /* Set the Output Idle state */
    tmpcr2 |= (OC_Config->OCIdleState << 4U);
 8107df6:	683b      	ldr	r3, [r7, #0]
 8107df8:	695b      	ldr	r3, [r3, #20]
 8107dfa:	011b      	lsls	r3, r3, #4
 8107dfc:	693a      	ldr	r2, [r7, #16]
 8107dfe:	4313      	orrs	r3, r2
 8107e00:	613b      	str	r3, [r7, #16]
    /* Set the Output N Idle state */
    tmpcr2 |= (OC_Config->OCNIdleState << 4U);
 8107e02:	683b      	ldr	r3, [r7, #0]
 8107e04:	699b      	ldr	r3, [r3, #24]
 8107e06:	011b      	lsls	r3, r3, #4
 8107e08:	693a      	ldr	r2, [r7, #16]
 8107e0a:	4313      	orrs	r3, r2
 8107e0c:	613b      	str	r3, [r7, #16]
  }

  /* Write to TIMx CR2 */
  TIMx->CR2 = tmpcr2;
 8107e0e:	687b      	ldr	r3, [r7, #4]
 8107e10:	693a      	ldr	r2, [r7, #16]
 8107e12:	605a      	str	r2, [r3, #4]

  /* Write to TIMx CCMR2 */
  TIMx->CCMR2 = tmpccmrx;
 8107e14:	687b      	ldr	r3, [r7, #4]
 8107e16:	68fa      	ldr	r2, [r7, #12]
 8107e18:	61da      	str	r2, [r3, #28]

  /* Set the Capture Compare Register value */
  TIMx->CCR3 = OC_Config->Pulse;
 8107e1a:	683b      	ldr	r3, [r7, #0]
 8107e1c:	685a      	ldr	r2, [r3, #4]
 8107e1e:	687b      	ldr	r3, [r7, #4]
 8107e20:	63da      	str	r2, [r3, #60]	; 0x3c

  /* Write to TIMx CCER */
  TIMx->CCER = tmpccer;
 8107e22:	687b      	ldr	r3, [r7, #4]
 8107e24:	697a      	ldr	r2, [r7, #20]
 8107e26:	621a      	str	r2, [r3, #32]
}
 8107e28:	bf00      	nop
 8107e2a:	371c      	adds	r7, #28
 8107e2c:	46bd      	mov	sp, r7
 8107e2e:	f85d 7b04 	ldr.w	r7, [sp], #4
 8107e32:	4770      	bx	lr
 8107e34:	40010000 	.word	0x40010000
 8107e38:	40010400 	.word	0x40010400
 8107e3c:	40014000 	.word	0x40014000
 8107e40:	40014400 	.word	0x40014400
 8107e44:	40014800 	.word	0x40014800

08107e48 <TIM_OC4_SetConfig>:
  * @param  TIMx to select the TIM peripheral
  * @param  OC_Config The output configuration structure
  * @retval None
  */
static void TIM_OC4_SetConfig(TIM_TypeDef *TIMx, TIM_OC_InitTypeDef *OC_Config)
{
 8107e48:	b480      	push	{r7}
 8107e4a:	b087      	sub	sp, #28
 8107e4c:	af00      	add	r7, sp, #0
 8107e4e:	6078      	str	r0, [r7, #4]
 8107e50:	6039      	str	r1, [r7, #0]
  uint32_t tmpccmrx;
  uint32_t tmpccer;
  uint32_t tmpcr2;

  /* Disable the Channel 4: Reset the CC4E Bit */
  TIMx->CCER &= ~TIM_CCER_CC4E;
 8107e52:	687b      	ldr	r3, [r7, #4]
 8107e54:	6a1b      	ldr	r3, [r3, #32]
 8107e56:	f423 5280 	bic.w	r2, r3, #4096	; 0x1000
 8107e5a:	687b      	ldr	r3, [r7, #4]
 8107e5c:	621a      	str	r2, [r3, #32]

  /* Get the TIMx CCER register value */
  tmpccer = TIMx->CCER;
 8107e5e:	687b      	ldr	r3, [r7, #4]
 8107e60:	6a1b      	ldr	r3, [r3, #32]
 8107e62:	613b      	str	r3, [r7, #16]
  /* Get the TIMx CR2 register value */
  tmpcr2 =  TIMx->CR2;
 8107e64:	687b      	ldr	r3, [r7, #4]
 8107e66:	685b      	ldr	r3, [r3, #4]
 8107e68:	617b      	str	r3, [r7, #20]

  /* Get the TIMx CCMR2 register value */
  tmpccmrx = TIMx->CCMR2;
 8107e6a:	687b      	ldr	r3, [r7, #4]
 8107e6c:	69db      	ldr	r3, [r3, #28]
 8107e6e:	60fb      	str	r3, [r7, #12]

  /* Reset the Output Compare mode and Capture/Compare selection Bits */
  tmpccmrx &= ~TIM_CCMR2_OC4M;
 8107e70:	68fb      	ldr	r3, [r7, #12]
 8107e72:	f023 7380 	bic.w	r3, r3, #16777216	; 0x1000000
 8107e76:	f423 43e0 	bic.w	r3, r3, #28672	; 0x7000
 8107e7a:	60fb      	str	r3, [r7, #12]
  tmpccmrx &= ~TIM_CCMR2_CC4S;
 8107e7c:	68fb      	ldr	r3, [r7, #12]
 8107e7e:	f423 7340 	bic.w	r3, r3, #768	; 0x300
 8107e82:	60fb      	str	r3, [r7, #12]

  /* Select the Output Compare Mode */
  tmpccmrx |= (OC_Config->OCMode << 8U);
 8107e84:	683b      	ldr	r3, [r7, #0]
 8107e86:	681b      	ldr	r3, [r3, #0]
 8107e88:	021b      	lsls	r3, r3, #8
 8107e8a:	68fa      	ldr	r2, [r7, #12]
 8107e8c:	4313      	orrs	r3, r2
 8107e8e:	60fb      	str	r3, [r7, #12]

  /* Reset the Output Polarity level */
  tmpccer &= ~TIM_CCER_CC4P;
 8107e90:	693b      	ldr	r3, [r7, #16]
 8107e92:	f423 5300 	bic.w	r3, r3, #8192	; 0x2000
 8107e96:	613b      	str	r3, [r7, #16]
  /* Set the Output Compare Polarity */
  tmpccer |= (OC_Config->OCPolarity << 12U);
 8107e98:	683b      	ldr	r3, [r7, #0]
 8107e9a:	689b      	ldr	r3, [r3, #8]
 8107e9c:	031b      	lsls	r3, r3, #12
 8107e9e:	693a      	ldr	r2, [r7, #16]
 8107ea0:	4313      	orrs	r3, r2
 8107ea2:	613b      	str	r3, [r7, #16]

  if (IS_TIM_BREAK_INSTANCE(TIMx))
 8107ea4:	687b      	ldr	r3, [r7, #4]
 8107ea6:	4a18      	ldr	r2, [pc, #96]	; (8107f08 <TIM_OC4_SetConfig+0xc0>)
 8107ea8:	4293      	cmp	r3, r2
 8107eaa:	d00f      	beq.n	8107ecc <TIM_OC4_SetConfig+0x84>
 8107eac:	687b      	ldr	r3, [r7, #4]
 8107eae:	4a17      	ldr	r2, [pc, #92]	; (8107f0c <TIM_OC4_SetConfig+0xc4>)
 8107eb0:	4293      	cmp	r3, r2
 8107eb2:	d00b      	beq.n	8107ecc <TIM_OC4_SetConfig+0x84>
 8107eb4:	687b      	ldr	r3, [r7, #4]
 8107eb6:	4a16      	ldr	r2, [pc, #88]	; (8107f10 <TIM_OC4_SetConfig+0xc8>)
 8107eb8:	4293      	cmp	r3, r2
 8107eba:	d007      	beq.n	8107ecc <TIM_OC4_SetConfig+0x84>
 8107ebc:	687b      	ldr	r3, [r7, #4]
 8107ebe:	4a15      	ldr	r2, [pc, #84]	; (8107f14 <TIM_OC4_SetConfig+0xcc>)
 8107ec0:	4293      	cmp	r3, r2
 8107ec2:	d003      	beq.n	8107ecc <TIM_OC4_SetConfig+0x84>
 8107ec4:	687b      	ldr	r3, [r7, #4]
 8107ec6:	4a14      	ldr	r2, [pc, #80]	; (8107f18 <TIM_OC4_SetConfig+0xd0>)
 8107ec8:	4293      	cmp	r3, r2
 8107eca:	d109      	bne.n	8107ee0 <TIM_OC4_SetConfig+0x98>
  {
    /* Check parameters */
    assert_param(IS_TIM_OCIDLE_STATE(OC_Config->OCIdleState));

    /* Reset the Output Compare IDLE State */
    tmpcr2 &= ~TIM_CR2_OIS4;
 8107ecc:	697b      	ldr	r3, [r7, #20]
 8107ece:	f423 4380 	bic.w	r3, r3, #16384	; 0x4000
 8107ed2:	617b      	str	r3, [r7, #20]

    /* Set the Output Idle state */
    tmpcr2 |= (OC_Config->OCIdleState << 6U);
 8107ed4:	683b      	ldr	r3, [r7, #0]
 8107ed6:	695b      	ldr	r3, [r3, #20]
 8107ed8:	019b      	lsls	r3, r3, #6
 8107eda:	697a      	ldr	r2, [r7, #20]
 8107edc:	4313      	orrs	r3, r2
 8107ede:	617b      	str	r3, [r7, #20]
  }

  /* Write to TIMx CR2 */
  TIMx->CR2 = tmpcr2;
 8107ee0:	687b      	ldr	r3, [r7, #4]
 8107ee2:	697a      	ldr	r2, [r7, #20]
 8107ee4:	605a      	str	r2, [r3, #4]

  /* Write to TIMx CCMR2 */
  TIMx->CCMR2 = tmpccmrx;
 8107ee6:	687b      	ldr	r3, [r7, #4]
 8107ee8:	68fa      	ldr	r2, [r7, #12]
 8107eea:	61da      	str	r2, [r3, #28]

  /* Set the Capture Compare Register value */
  TIMx->CCR4 = OC_Config->Pulse;
 8107eec:	683b      	ldr	r3, [r7, #0]
 8107eee:	685a      	ldr	r2, [r3, #4]
 8107ef0:	687b      	ldr	r3, [r7, #4]
 8107ef2:	641a      	str	r2, [r3, #64]	; 0x40

  /* Write to TIMx CCER */
  TIMx->CCER = tmpccer;
 8107ef4:	687b      	ldr	r3, [r7, #4]
 8107ef6:	693a      	ldr	r2, [r7, #16]
 8107ef8:	621a      	str	r2, [r3, #32]
}
 8107efa:	bf00      	nop
 8107efc:	371c      	adds	r7, #28
 8107efe:	46bd      	mov	sp, r7
 8107f00:	f85d 7b04 	ldr.w	r7, [sp], #4
 8107f04:	4770      	bx	lr
 8107f06:	bf00      	nop
 8107f08:	40010000 	.word	0x40010000
 8107f0c:	40010400 	.word	0x40010400
 8107f10:	40014000 	.word	0x40014000
 8107f14:	40014400 	.word	0x40014400
 8107f18:	40014800 	.word	0x40014800

08107f1c <TIM_OC5_SetConfig>:
  * @param  OC_Config The output configuration structure
  * @retval None
  */
static void TIM_OC5_SetConfig(TIM_TypeDef *TIMx,
                              TIM_OC_InitTypeDef *OC_Config)
{
 8107f1c:	b480      	push	{r7}
 8107f1e:	b087      	sub	sp, #28
 8107f20:	af00      	add	r7, sp, #0
 8107f22:	6078      	str	r0, [r7, #4]
 8107f24:	6039      	str	r1, [r7, #0]
  uint32_t tmpccmrx;
  uint32_t tmpccer;
  uint32_t tmpcr2;

  /* Disable the output: Reset the CCxE Bit */
  TIMx->CCER &= ~TIM_CCER_CC5E;
 8107f26:	687b      	ldr	r3, [r7, #4]
 8107f28:	6a1b      	ldr	r3, [r3, #32]
 8107f2a:	f423 3280 	bic.w	r2, r3, #65536	; 0x10000
 8107f2e:	687b      	ldr	r3, [r7, #4]
 8107f30:	621a      	str	r2, [r3, #32]

  /* Get the TIMx CCER register value */
  tmpccer = TIMx->CCER;
 8107f32:	687b      	ldr	r3, [r7, #4]
 8107f34:	6a1b      	ldr	r3, [r3, #32]
 8107f36:	613b      	str	r3, [r7, #16]
  /* Get the TIMx CR2 register value */
  tmpcr2 =  TIMx->CR2;
 8107f38:	687b      	ldr	r3, [r7, #4]
 8107f3a:	685b      	ldr	r3, [r3, #4]
 8107f3c:	617b      	str	r3, [r7, #20]
  /* Get the TIMx CCMR1 register value */
  tmpccmrx = TIMx->CCMR3;
 8107f3e:	687b      	ldr	r3, [r7, #4]
 8107f40:	6d5b      	ldr	r3, [r3, #84]	; 0x54
 8107f42:	60fb      	str	r3, [r7, #12]

  /* Reset the Output Compare Mode Bits */
  tmpccmrx &= ~(TIM_CCMR3_OC5M);
 8107f44:	68fb      	ldr	r3, [r7, #12]
 8107f46:	f423 3380 	bic.w	r3, r3, #65536	; 0x10000
 8107f4a:	f023 0370 	bic.w	r3, r3, #112	; 0x70
 8107f4e:	60fb      	str	r3, [r7, #12]
  /* Select the Output Compare Mode */
  tmpccmrx |= OC_Config->OCMode;
 8107f50:	683b      	ldr	r3, [r7, #0]
 8107f52:	681b      	ldr	r3, [r3, #0]
 8107f54:	68fa      	ldr	r2, [r7, #12]
 8107f56:	4313      	orrs	r3, r2
 8107f58:	60fb      	str	r3, [r7, #12]

  /* Reset the Output Polarity level */
  tmpccer &= ~TIM_CCER_CC5P;
 8107f5a:	693b      	ldr	r3, [r7, #16]
 8107f5c:	f423 3300 	bic.w	r3, r3, #131072	; 0x20000
 8107f60:	613b      	str	r3, [r7, #16]
  /* Set the Output Compare Polarity */
  tmpccer |= (OC_Config->OCPolarity << 16U);
 8107f62:	683b      	ldr	r3, [r7, #0]
 8107f64:	689b      	ldr	r3, [r3, #8]
 8107f66:	041b      	lsls	r3, r3, #16
 8107f68:	693a      	ldr	r2, [r7, #16]
 8107f6a:	4313      	orrs	r3, r2
 8107f6c:	613b      	str	r3, [r7, #16]

  if (IS_TIM_BREAK_INSTANCE(TIMx))
 8107f6e:	687b      	ldr	r3, [r7, #4]
 8107f70:	4a17      	ldr	r2, [pc, #92]	; (8107fd0 <TIM_OC5_SetConfig+0xb4>)
 8107f72:	4293      	cmp	r3, r2
 8107f74:	d00f      	beq.n	8107f96 <TIM_OC5_SetConfig+0x7a>
 8107f76:	687b      	ldr	r3, [r7, #4]
 8107f78:	4a16      	ldr	r2, [pc, #88]	; (8107fd4 <TIM_OC5_SetConfig+0xb8>)
 8107f7a:	4293      	cmp	r3, r2
 8107f7c:	d00b      	beq.n	8107f96 <TIM_OC5_SetConfig+0x7a>
 8107f7e:	687b      	ldr	r3, [r7, #4]
 8107f80:	4a15      	ldr	r2, [pc, #84]	; (8107fd8 <TIM_OC5_SetConfig+0xbc>)
 8107f82:	4293      	cmp	r3, r2
 8107f84:	d007      	beq.n	8107f96 <TIM_OC5_SetConfig+0x7a>
 8107f86:	687b      	ldr	r3, [r7, #4]
 8107f88:	4a14      	ldr	r2, [pc, #80]	; (8107fdc <TIM_OC5_SetConfig+0xc0>)
 8107f8a:	4293      	cmp	r3, r2
 8107f8c:	d003      	beq.n	8107f96 <TIM_OC5_SetConfig+0x7a>
 8107f8e:	687b      	ldr	r3, [r7, #4]
 8107f90:	4a13      	ldr	r2, [pc, #76]	; (8107fe0 <TIM_OC5_SetConfig+0xc4>)
 8107f92:	4293      	cmp	r3, r2
 8107f94:	d109      	bne.n	8107faa <TIM_OC5_SetConfig+0x8e>
  {
    /* Reset the Output Compare IDLE State */
    tmpcr2 &= ~TIM_CR2_OIS5;
 8107f96:	697b      	ldr	r3, [r7, #20]
 8107f98:	f423 3380 	bic.w	r3, r3, #65536	; 0x10000
 8107f9c:	617b      	str	r3, [r7, #20]
    /* Set the Output Idle state */
    tmpcr2 |= (OC_Config->OCIdleState << 8U);
 8107f9e:	683b      	ldr	r3, [r7, #0]
 8107fa0:	695b      	ldr	r3, [r3, #20]
 8107fa2:	021b      	lsls	r3, r3, #8
 8107fa4:	697a      	ldr	r2, [r7, #20]
 8107fa6:	4313      	orrs	r3, r2
 8107fa8:	617b      	str	r3, [r7, #20]
  }
  /* Write to TIMx CR2 */
  TIMx->CR2 = tmpcr2;
 8107faa:	687b      	ldr	r3, [r7, #4]
 8107fac:	697a      	ldr	r2, [r7, #20]
 8107fae:	605a      	str	r2, [r3, #4]

  /* Write to TIMx CCMR3 */
  TIMx->CCMR3 = tmpccmrx;
 8107fb0:	687b      	ldr	r3, [r7, #4]
 8107fb2:	68fa      	ldr	r2, [r7, #12]
 8107fb4:	655a      	str	r2, [r3, #84]	; 0x54

  /* Set the Capture Compare Register value */
  TIMx->CCR5 = OC_Config->Pulse;
 8107fb6:	683b      	ldr	r3, [r7, #0]
 8107fb8:	685a      	ldr	r2, [r3, #4]
 8107fba:	687b      	ldr	r3, [r7, #4]
 8107fbc:	659a      	str	r2, [r3, #88]	; 0x58

  /* Write to TIMx CCER */
  TIMx->CCER = tmpccer;
 8107fbe:	687b      	ldr	r3, [r7, #4]
 8107fc0:	693a      	ldr	r2, [r7, #16]
 8107fc2:	621a      	str	r2, [r3, #32]
}
 8107fc4:	bf00      	nop
 8107fc6:	371c      	adds	r7, #28
 8107fc8:	46bd      	mov	sp, r7
 8107fca:	f85d 7b04 	ldr.w	r7, [sp], #4
 8107fce:	4770      	bx	lr
 8107fd0:	40010000 	.word	0x40010000
 8107fd4:	40010400 	.word	0x40010400
 8107fd8:	40014000 	.word	0x40014000
 8107fdc:	40014400 	.word	0x40014400
 8107fe0:	40014800 	.word	0x40014800

08107fe4 <TIM_OC6_SetConfig>:
  * @param  OC_Config The output configuration structure
  * @retval None
  */
static void TIM_OC6_SetConfig(TIM_TypeDef *TIMx,
                              TIM_OC_InitTypeDef *OC_Config)
{
 8107fe4:	b480      	push	{r7}
 8107fe6:	b087      	sub	sp, #28
 8107fe8:	af00      	add	r7, sp, #0
 8107fea:	6078      	str	r0, [r7, #4]
 8107fec:	6039      	str	r1, [r7, #0]
  uint32_t tmpccmrx;
  uint32_t tmpccer;
  uint32_t tmpcr2;

  /* Disable the output: Reset the CCxE Bit */
  TIMx->CCER &= ~TIM_CCER_CC6E;
 8107fee:	687b      	ldr	r3, [r7, #4]
 8107ff0:	6a1b      	ldr	r3, [r3, #32]
 8107ff2:	f423 1280 	bic.w	r2, r3, #1048576	; 0x100000
 8107ff6:	687b      	ldr	r3, [r7, #4]
 8107ff8:	621a      	str	r2, [r3, #32]

  /* Get the TIMx CCER register value */
  tmpccer = TIMx->CCER;
 8107ffa:	687b      	ldr	r3, [r7, #4]
 8107ffc:	6a1b      	ldr	r3, [r3, #32]
 8107ffe:	613b      	str	r3, [r7, #16]
  /* Get the TIMx CR2 register value */
  tmpcr2 =  TIMx->CR2;
 8108000:	687b      	ldr	r3, [r7, #4]
 8108002:	685b      	ldr	r3, [r3, #4]
 8108004:	617b      	str	r3, [r7, #20]
  /* Get the TIMx CCMR1 register value */
  tmpccmrx = TIMx->CCMR3;
 8108006:	687b      	ldr	r3, [r7, #4]
 8108008:	6d5b      	ldr	r3, [r3, #84]	; 0x54
 810800a:	60fb      	str	r3, [r7, #12]

  /* Reset the Output Compare Mode Bits */
  tmpccmrx &= ~(TIM_CCMR3_OC6M);
 810800c:	68fb      	ldr	r3, [r7, #12]
 810800e:	f023 7380 	bic.w	r3, r3, #16777216	; 0x1000000
 8108012:	f423 43e0 	bic.w	r3, r3, #28672	; 0x7000
 8108016:	60fb      	str	r3, [r7, #12]
  /* Select the Output Compare Mode */
  tmpccmrx |= (OC_Config->OCMode << 8U);
 8108018:	683b      	ldr	r3, [r7, #0]
 810801a:	681b      	ldr	r3, [r3, #0]
 810801c:	021b      	lsls	r3, r3, #8
 810801e:	68fa      	ldr	r2, [r7, #12]
 8108020:	4313      	orrs	r3, r2
 8108022:	60fb      	str	r3, [r7, #12]

  /* Reset the Output Polarity level */
  tmpccer &= (uint32_t)~TIM_CCER_CC6P;
 8108024:	693b      	ldr	r3, [r7, #16]
 8108026:	f423 1300 	bic.w	r3, r3, #2097152	; 0x200000
 810802a:	613b      	str	r3, [r7, #16]
  /* Set the Output Compare Polarity */
  tmpccer |= (OC_Config->OCPolarity << 20U);
 810802c:	683b      	ldr	r3, [r7, #0]
 810802e:	689b      	ldr	r3, [r3, #8]
 8108030:	051b      	lsls	r3, r3, #20
 8108032:	693a      	ldr	r2, [r7, #16]
 8108034:	4313      	orrs	r3, r2
 8108036:	613b      	str	r3, [r7, #16]

  if (IS_TIM_BREAK_INSTANCE(TIMx))
 8108038:	687b      	ldr	r3, [r7, #4]
 810803a:	4a18      	ldr	r2, [pc, #96]	; (810809c <TIM_OC6_SetConfig+0xb8>)
 810803c:	4293      	cmp	r3, r2
 810803e:	d00f      	beq.n	8108060 <TIM_OC6_SetConfig+0x7c>
 8108040:	687b      	ldr	r3, [r7, #4]
 8108042:	4a17      	ldr	r2, [pc, #92]	; (81080a0 <TIM_OC6_SetConfig+0xbc>)
 8108044:	4293      	cmp	r3, r2
 8108046:	d00b      	beq.n	8108060 <TIM_OC6_SetConfig+0x7c>
 8108048:	687b      	ldr	r3, [r7, #4]
 810804a:	4a16      	ldr	r2, [pc, #88]	; (81080a4 <TIM_OC6_SetConfig+0xc0>)
 810804c:	4293      	cmp	r3, r2
 810804e:	d007      	beq.n	8108060 <TIM_OC6_SetConfig+0x7c>
 8108050:	687b      	ldr	r3, [r7, #4]
 8108052:	4a15      	ldr	r2, [pc, #84]	; (81080a8 <TIM_OC6_SetConfig+0xc4>)
 8108054:	4293      	cmp	r3, r2
 8108056:	d003      	beq.n	8108060 <TIM_OC6_SetConfig+0x7c>
 8108058:	687b      	ldr	r3, [r7, #4]
 810805a:	4a14      	ldr	r2, [pc, #80]	; (81080ac <TIM_OC6_SetConfig+0xc8>)
 810805c:	4293      	cmp	r3, r2
 810805e:	d109      	bne.n	8108074 <TIM_OC6_SetConfig+0x90>
  {
    /* Reset the Output Compare IDLE State */
    tmpcr2 &= ~TIM_CR2_OIS6;
 8108060:	697b      	ldr	r3, [r7, #20]
 8108062:	f423 2380 	bic.w	r3, r3, #262144	; 0x40000
 8108066:	617b      	str	r3, [r7, #20]
    /* Set the Output Idle state */
    tmpcr2 |= (OC_Config->OCIdleState << 10U);
 8108068:	683b      	ldr	r3, [r7, #0]
 810806a:	695b      	ldr	r3, [r3, #20]
 810806c:	029b      	lsls	r3, r3, #10
 810806e:	697a      	ldr	r2, [r7, #20]
 8108070:	4313      	orrs	r3, r2
 8108072:	617b      	str	r3, [r7, #20]
  }

  /* Write to TIMx CR2 */
  TIMx->CR2 = tmpcr2;
 8108074:	687b      	ldr	r3, [r7, #4]
 8108076:	697a      	ldr	r2, [r7, #20]
 8108078:	605a      	str	r2, [r3, #4]

  /* Write to TIMx CCMR3 */
  TIMx->CCMR3 = tmpccmrx;
 810807a:	687b      	ldr	r3, [r7, #4]
 810807c:	68fa      	ldr	r2, [r7, #12]
 810807e:	655a      	str	r2, [r3, #84]	; 0x54

  /* Set the Capture Compare Register value */
  TIMx->CCR6 = OC_Config->Pulse;
 8108080:	683b      	ldr	r3, [r7, #0]
 8108082:	685a      	ldr	r2, [r3, #4]
 8108084:	687b      	ldr	r3, [r7, #4]
 8108086:	65da      	str	r2, [r3, #92]	; 0x5c

  /* Write to TIMx CCER */
  TIMx->CCER = tmpccer;
 8108088:	687b      	ldr	r3, [r7, #4]
 810808a:	693a      	ldr	r2, [r7, #16]
 810808c:	621a      	str	r2, [r3, #32]
}
 810808e:	bf00      	nop
 8108090:	371c      	adds	r7, #28
 8108092:	46bd      	mov	sp, r7
 8108094:	f85d 7b04 	ldr.w	r7, [sp], #4
 8108098:	4770      	bx	lr
 810809a:	bf00      	nop
 810809c:	40010000 	.word	0x40010000
 81080a0:	40010400 	.word	0x40010400
 81080a4:	40014000 	.word	0x40014000
 81080a8:	40014400 	.word	0x40014400
 81080ac:	40014800 	.word	0x40014800

081080b0 <TIM_CCxChannelCmd>:
  * @param  ChannelState specifies the TIM Channel CCxE bit new state.
  *          This parameter can be: TIM_CCx_ENABLE or TIM_CCx_DISABLE.
  * @retval None
  */
void TIM_CCxChannelCmd(TIM_TypeDef *TIMx, uint32_t Channel, uint32_t ChannelState)
{
 81080b0:	b480      	push	{r7}
 81080b2:	b087      	sub	sp, #28
 81080b4:	af00      	add	r7, sp, #0
 81080b6:	60f8      	str	r0, [r7, #12]
 81080b8:	60b9      	str	r1, [r7, #8]
 81080ba:	607a      	str	r2, [r7, #4]

  /* Check the parameters */
  assert_param(IS_TIM_CC1_INSTANCE(TIMx));
  assert_param(IS_TIM_CHANNELS(Channel));

  tmp = TIM_CCER_CC1E << (Channel & 0x1FU); /* 0x1FU = 31 bits max shift */
 81080bc:	68bb      	ldr	r3, [r7, #8]
 81080be:	f003 031f 	and.w	r3, r3, #31
 81080c2:	2201      	movs	r2, #1
 81080c4:	fa02 f303 	lsl.w	r3, r2, r3
 81080c8:	617b      	str	r3, [r7, #20]

  /* Reset the CCxE Bit */
  TIMx->CCER &= ~tmp;
 81080ca:	68fb      	ldr	r3, [r7, #12]
 81080cc:	6a1a      	ldr	r2, [r3, #32]
 81080ce:	697b      	ldr	r3, [r7, #20]
 81080d0:	43db      	mvns	r3, r3
 81080d2:	401a      	ands	r2, r3
 81080d4:	68fb      	ldr	r3, [r7, #12]
 81080d6:	621a      	str	r2, [r3, #32]

  /* Set or reset the CCxE Bit */
  TIMx->CCER |= (uint32_t)(ChannelState << (Channel & 0x1FU)); /* 0x1FU = 31 bits max shift */
 81080d8:	68fb      	ldr	r3, [r7, #12]
 81080da:	6a1a      	ldr	r2, [r3, #32]
 81080dc:	68bb      	ldr	r3, [r7, #8]
 81080de:	f003 031f 	and.w	r3, r3, #31
 81080e2:	6879      	ldr	r1, [r7, #4]
 81080e4:	fa01 f303 	lsl.w	r3, r1, r3
 81080e8:	431a      	orrs	r2, r3
 81080ea:	68fb      	ldr	r3, [r7, #12]
 81080ec:	621a      	str	r2, [r3, #32]
}
 81080ee:	bf00      	nop
 81080f0:	371c      	adds	r7, #28
 81080f2:	46bd      	mov	sp, r7
 81080f4:	f85d 7b04 	ldr.w	r7, [sp], #4
 81080f8:	4770      	bx	lr
	...

081080fc <HAL_TIMEx_MasterConfigSynchronization>:
  *         mode.
  * @retval HAL status
  */
HAL_StatusTypeDef HAL_TIMEx_MasterConfigSynchronization(TIM_HandleTypeDef *htim,
                                                        TIM_MasterConfigTypeDef *sMasterConfig)
{
 81080fc:	b480      	push	{r7}
 81080fe:	b085      	sub	sp, #20
 8108100:	af00      	add	r7, sp, #0
 8108102:	6078      	str	r0, [r7, #4]
 8108104:	6039      	str	r1, [r7, #0]
  assert_param(IS_TIM_MASTER_INSTANCE(htim->Instance));
  assert_param(IS_TIM_TRGO_SOURCE(sMasterConfig->MasterOutputTrigger));
  assert_param(IS_TIM_MSM_STATE(sMasterConfig->MasterSlaveMode));

  /* Check input state */
  __HAL_LOCK(htim);
 8108106:	687b      	ldr	r3, [r7, #4]
 8108108:	f893 303c 	ldrb.w	r3, [r3, #60]	; 0x3c
 810810c:	2b01      	cmp	r3, #1
 810810e:	d101      	bne.n	8108114 <HAL_TIMEx_MasterConfigSynchronization+0x18>
 8108110:	2302      	movs	r3, #2
 8108112:	e06d      	b.n	81081f0 <HAL_TIMEx_MasterConfigSynchronization+0xf4>
 8108114:	687b      	ldr	r3, [r7, #4]
 8108116:	2201      	movs	r2, #1
 8108118:	f883 203c 	strb.w	r2, [r3, #60]	; 0x3c

  /* Change the handler state */
  htim->State = HAL_TIM_STATE_BUSY;
 810811c:	687b      	ldr	r3, [r7, #4]
 810811e:	2202      	movs	r2, #2
 8108120:	f883 203d 	strb.w	r2, [r3, #61]	; 0x3d

  /* Get the TIMx CR2 register value */
  tmpcr2 = htim->Instance->CR2;
 8108124:	687b      	ldr	r3, [r7, #4]
 8108126:	681b      	ldr	r3, [r3, #0]
 8108128:	685b      	ldr	r3, [r3, #4]
 810812a:	60fb      	str	r3, [r7, #12]

  /* Get the TIMx SMCR register value */
  tmpsmcr = htim->Instance->SMCR;
 810812c:	687b      	ldr	r3, [r7, #4]
 810812e:	681b      	ldr	r3, [r3, #0]
 8108130:	689b      	ldr	r3, [r3, #8]
 8108132:	60bb      	str	r3, [r7, #8]

  /* If the timer supports ADC synchronization through TRGO2, set the master mode selection 2 */
  if (IS_TIM_TRGO2_INSTANCE(htim->Instance))
 8108134:	687b      	ldr	r3, [r7, #4]
 8108136:	681b      	ldr	r3, [r3, #0]
 8108138:	4a30      	ldr	r2, [pc, #192]	; (81081fc <HAL_TIMEx_MasterConfigSynchronization+0x100>)
 810813a:	4293      	cmp	r3, r2
 810813c:	d004      	beq.n	8108148 <HAL_TIMEx_MasterConfigSynchronization+0x4c>
 810813e:	687b      	ldr	r3, [r7, #4]
 8108140:	681b      	ldr	r3, [r3, #0]
 8108142:	4a2f      	ldr	r2, [pc, #188]	; (8108200 <HAL_TIMEx_MasterConfigSynchronization+0x104>)
 8108144:	4293      	cmp	r3, r2
 8108146:	d108      	bne.n	810815a <HAL_TIMEx_MasterConfigSynchronization+0x5e>
  {
    /* Check the parameters */
    assert_param(IS_TIM_TRGO2_SOURCE(sMasterConfig->MasterOutputTrigger2));

    /* Clear the MMS2 bits */
    tmpcr2 &= ~TIM_CR2_MMS2;
 8108148:	68fb      	ldr	r3, [r7, #12]
 810814a:	f423 0370 	bic.w	r3, r3, #15728640	; 0xf00000
 810814e:	60fb      	str	r3, [r7, #12]
    /* Select the TRGO2 source*/
    tmpcr2 |= sMasterConfig->MasterOutputTrigger2;
 8108150:	683b      	ldr	r3, [r7, #0]
 8108152:	685b      	ldr	r3, [r3, #4]
 8108154:	68fa      	ldr	r2, [r7, #12]
 8108156:	4313      	orrs	r3, r2
 8108158:	60fb      	str	r3, [r7, #12]
  }

  /* Reset the MMS Bits */
  tmpcr2 &= ~TIM_CR2_MMS;
 810815a:	68fb      	ldr	r3, [r7, #12]
 810815c:	f023 0370 	bic.w	r3, r3, #112	; 0x70
 8108160:	60fb      	str	r3, [r7, #12]
  /* Select the TRGO source */
  tmpcr2 |=  sMasterConfig->MasterOutputTrigger;
 8108162:	683b      	ldr	r3, [r7, #0]
 8108164:	681b      	ldr	r3, [r3, #0]
 8108166:	68fa      	ldr	r2, [r7, #12]
 8108168:	4313      	orrs	r3, r2
 810816a:	60fb      	str	r3, [r7, #12]

  /* Update TIMx CR2 */
  htim->Instance->CR2 = tmpcr2;
 810816c:	687b      	ldr	r3, [r7, #4]
 810816e:	681b      	ldr	r3, [r3, #0]
 8108170:	68fa      	ldr	r2, [r7, #12]
 8108172:	605a      	str	r2, [r3, #4]

  if (IS_TIM_SLAVE_INSTANCE(htim->Instance))
 8108174:	687b      	ldr	r3, [r7, #4]
 8108176:	681b      	ldr	r3, [r3, #0]
 8108178:	4a20      	ldr	r2, [pc, #128]	; (81081fc <HAL_TIMEx_MasterConfigSynchronization+0x100>)
 810817a:	4293      	cmp	r3, r2
 810817c:	d022      	beq.n	81081c4 <HAL_TIMEx_MasterConfigSynchronization+0xc8>
 810817e:	687b      	ldr	r3, [r7, #4]
 8108180:	681b      	ldr	r3, [r3, #0]
 8108182:	f1b3 4f80 	cmp.w	r3, #1073741824	; 0x40000000
 8108186:	d01d      	beq.n	81081c4 <HAL_TIMEx_MasterConfigSynchronization+0xc8>
 8108188:	687b      	ldr	r3, [r7, #4]
 810818a:	681b      	ldr	r3, [r3, #0]
 810818c:	4a1d      	ldr	r2, [pc, #116]	; (8108204 <HAL_TIMEx_MasterConfigSynchronization+0x108>)
 810818e:	4293      	cmp	r3, r2
 8108190:	d018      	beq.n	81081c4 <HAL_TIMEx_MasterConfigSynchronization+0xc8>
 8108192:	687b      	ldr	r3, [r7, #4]
 8108194:	681b      	ldr	r3, [r3, #0]
 8108196:	4a1c      	ldr	r2, [pc, #112]	; (8108208 <HAL_TIMEx_MasterConfigSynchronization+0x10c>)
 8108198:	4293      	cmp	r3, r2
 810819a:	d013      	beq.n	81081c4 <HAL_TIMEx_MasterConfigSynchronization+0xc8>
 810819c:	687b      	ldr	r3, [r7, #4]
 810819e:	681b      	ldr	r3, [r3, #0]
 81081a0:	4a1a      	ldr	r2, [pc, #104]	; (810820c <HAL_TIMEx_MasterConfigSynchronization+0x110>)
 81081a2:	4293      	cmp	r3, r2
 81081a4:	d00e      	beq.n	81081c4 <HAL_TIMEx_MasterConfigSynchronization+0xc8>
 81081a6:	687b      	ldr	r3, [r7, #4]
 81081a8:	681b      	ldr	r3, [r3, #0]
 81081aa:	4a15      	ldr	r2, [pc, #84]	; (8108200 <HAL_TIMEx_MasterConfigSynchronization+0x104>)
 81081ac:	4293      	cmp	r3, r2
 81081ae:	d009      	beq.n	81081c4 <HAL_TIMEx_MasterConfigSynchronization+0xc8>
 81081b0:	687b      	ldr	r3, [r7, #4]
 81081b2:	681b      	ldr	r3, [r3, #0]
 81081b4:	4a16      	ldr	r2, [pc, #88]	; (8108210 <HAL_TIMEx_MasterConfigSynchronization+0x114>)
 81081b6:	4293      	cmp	r3, r2
 81081b8:	d004      	beq.n	81081c4 <HAL_TIMEx_MasterConfigSynchronization+0xc8>
 81081ba:	687b      	ldr	r3, [r7, #4]
 81081bc:	681b      	ldr	r3, [r3, #0]
 81081be:	4a15      	ldr	r2, [pc, #84]	; (8108214 <HAL_TIMEx_MasterConfigSynchronization+0x118>)
 81081c0:	4293      	cmp	r3, r2
 81081c2:	d10c      	bne.n	81081de <HAL_TIMEx_MasterConfigSynchronization+0xe2>
  {
    /* Reset the MSM Bit */
    tmpsmcr &= ~TIM_SMCR_MSM;
 81081c4:	68bb      	ldr	r3, [r7, #8]
 81081c6:	f023 0380 	bic.w	r3, r3, #128	; 0x80
 81081ca:	60bb      	str	r3, [r7, #8]
    /* Set master mode */
    tmpsmcr |= sMasterConfig->MasterSlaveMode;
 81081cc:	683b      	ldr	r3, [r7, #0]
 81081ce:	689b      	ldr	r3, [r3, #8]
 81081d0:	68ba      	ldr	r2, [r7, #8]
 81081d2:	4313      	orrs	r3, r2
 81081d4:	60bb      	str	r3, [r7, #8]

    /* Update TIMx SMCR */
    htim->Instance->SMCR = tmpsmcr;
 81081d6:	687b      	ldr	r3, [r7, #4]
 81081d8:	681b      	ldr	r3, [r3, #0]
 81081da:	68ba      	ldr	r2, [r7, #8]
 81081dc:	609a      	str	r2, [r3, #8]
  }

  /* Change the htim state */
  htim->State = HAL_TIM_STATE_READY;
 81081de:	687b      	ldr	r3, [r7, #4]
 81081e0:	2201      	movs	r2, #1
 81081e2:	f883 203d 	strb.w	r2, [r3, #61]	; 0x3d

  __HAL_UNLOCK(htim);
 81081e6:	687b      	ldr	r3, [r7, #4]
 81081e8:	2200      	movs	r2, #0
 81081ea:	f883 203c 	strb.w	r2, [r3, #60]	; 0x3c

  return HAL_OK;
 81081ee:	2300      	movs	r3, #0
}
 81081f0:	4618      	mov	r0, r3
 81081f2:	3714      	adds	r7, #20
 81081f4:	46bd      	mov	sp, r7
 81081f6:	f85d 7b04 	ldr.w	r7, [sp], #4
 81081fa:	4770      	bx	lr
 81081fc:	40010000 	.word	0x40010000
 8108200:	40010400 	.word	0x40010400
 8108204:	40000400 	.word	0x40000400
 8108208:	40000800 	.word	0x40000800
 810820c:	40000c00 	.word	0x40000c00
 8108210:	40001800 	.word	0x40001800
 8108214:	40014000 	.word	0x40014000

08108218 <HAL_UART_Init>:
  *        parameters in the UART_InitTypeDef and initialize the associated handle.
  * @param huart UART handle.
  * @retval HAL status
  */
HAL_StatusTypeDef HAL_UART_Init(UART_HandleTypeDef *huart)
{
 8108218:	b580      	push	{r7, lr}
 810821a:	b082      	sub	sp, #8
 810821c:	af00      	add	r7, sp, #0
 810821e:	6078      	str	r0, [r7, #4]
  /* Check the UART handle allocation */
  if (huart == NULL)
 8108220:	687b      	ldr	r3, [r7, #4]
 8108222:	2b00      	cmp	r3, #0
 8108224:	d101      	bne.n	810822a <HAL_UART_Init+0x12>
  {
    return HAL_ERROR;
 8108226:	2301      	movs	r3, #1
 8108228:	e042      	b.n	81082b0 <HAL_UART_Init+0x98>
  {
    /* Check the parameters */
    assert_param((IS_UART_INSTANCE(huart->Instance)) || (IS_LPUART_INSTANCE(huart->Instance)));
  }

  if (huart->gState == HAL_UART_STATE_RESET)
 810822a:	687b      	ldr	r3, [r7, #4]
 810822c:	f8d3 3084 	ldr.w	r3, [r3, #132]	; 0x84
 8108230:	2b00      	cmp	r3, #0
 8108232:	d106      	bne.n	8108242 <HAL_UART_Init+0x2a>
  {
    /* Allocate lock resource and initialize it */
    huart->Lock = HAL_UNLOCKED;
 8108234:	687b      	ldr	r3, [r7, #4]
 8108236:	2200      	movs	r2, #0
 8108238:	f883 2080 	strb.w	r2, [r3, #128]	; 0x80

    /* Init the low level hardware */
    huart->MspInitCallback(huart);
#else
    /* Init the low level hardware : GPIO, CLOCK */
    HAL_UART_MspInit(huart);
 810823c:	6878      	ldr	r0, [r7, #4]
 810823e:	f7fa f9a5 	bl	810258c <HAL_UART_MspInit>
#endif /* (USE_HAL_UART_REGISTER_CALLBACKS) */
  }

  huart->gState = HAL_UART_STATE_BUSY;
 8108242:	687b      	ldr	r3, [r7, #4]
 8108244:	2224      	movs	r2, #36	; 0x24
 8108246:	f8c3 2084 	str.w	r2, [r3, #132]	; 0x84

  __HAL_UART_DISABLE(huart);
 810824a:	687b      	ldr	r3, [r7, #4]
 810824c:	681b      	ldr	r3, [r3, #0]
 810824e:	681a      	ldr	r2, [r3, #0]
 8108250:	687b      	ldr	r3, [r7, #4]
 8108252:	681b      	ldr	r3, [r3, #0]
 8108254:	f022 0201 	bic.w	r2, r2, #1
 8108258:	601a      	str	r2, [r3, #0]

  /* Set the UART Communication parameters */
  if (UART_SetConfig(huart) == HAL_ERROR)
 810825a:	6878      	ldr	r0, [r7, #4]
 810825c:	f000 f8c2 	bl	81083e4 <UART_SetConfig>
 8108260:	4603      	mov	r3, r0
 8108262:	2b01      	cmp	r3, #1
 8108264:	d101      	bne.n	810826a <HAL_UART_Init+0x52>
  {
    return HAL_ERROR;
 8108266:	2301      	movs	r3, #1
 8108268:	e022      	b.n	81082b0 <HAL_UART_Init+0x98>
  }

  if (huart->AdvancedInit.AdvFeatureInit != UART_ADVFEATURE_NO_INIT)
 810826a:	687b      	ldr	r3, [r7, #4]
 810826c:	6a9b      	ldr	r3, [r3, #40]	; 0x28
 810826e:	2b00      	cmp	r3, #0
 8108270:	d002      	beq.n	8108278 <HAL_UART_Init+0x60>
  {
    UART_AdvFeatureConfig(huart);
 8108272:	6878      	ldr	r0, [r7, #4]
 8108274:	f000 fe1e 	bl	8108eb4 <UART_AdvFeatureConfig>
  }

  /* In asynchronous mode, the following bits must be kept cleared:
  - LINEN and CLKEN bits in the USART_CR2 register,
  - SCEN, HDSEL and IREN  bits in the USART_CR3 register.*/
  CLEAR_BIT(huart->Instance->CR2, (USART_CR2_LINEN | USART_CR2_CLKEN));
 8108278:	687b      	ldr	r3, [r7, #4]
 810827a:	681b      	ldr	r3, [r3, #0]
 810827c:	685a      	ldr	r2, [r3, #4]
 810827e:	687b      	ldr	r3, [r7, #4]
 8108280:	681b      	ldr	r3, [r3, #0]
 8108282:	f422 4290 	bic.w	r2, r2, #18432	; 0x4800
 8108286:	605a      	str	r2, [r3, #4]
  CLEAR_BIT(huart->Instance->CR3, (USART_CR3_SCEN | USART_CR3_HDSEL | USART_CR3_IREN));
 8108288:	687b      	ldr	r3, [r7, #4]
 810828a:	681b      	ldr	r3, [r3, #0]
 810828c:	689a      	ldr	r2, [r3, #8]
 810828e:	687b      	ldr	r3, [r7, #4]
 8108290:	681b      	ldr	r3, [r3, #0]
 8108292:	f022 022a 	bic.w	r2, r2, #42	; 0x2a
 8108296:	609a      	str	r2, [r3, #8]

  __HAL_UART_ENABLE(huart);
 8108298:	687b      	ldr	r3, [r7, #4]
 810829a:	681b      	ldr	r3, [r3, #0]
 810829c:	681a      	ldr	r2, [r3, #0]
 810829e:	687b      	ldr	r3, [r7, #4]
 81082a0:	681b      	ldr	r3, [r3, #0]
 81082a2:	f042 0201 	orr.w	r2, r2, #1
 81082a6:	601a      	str	r2, [r3, #0]

  /* TEACK and/or REACK to check before moving huart->gState and huart->RxState to Ready */
  return (UART_CheckIdleState(huart));
 81082a8:	6878      	ldr	r0, [r7, #4]
 81082aa:	f000 fea5 	bl	8108ff8 <UART_CheckIdleState>
 81082ae:	4603      	mov	r3, r0
}
 81082b0:	4618      	mov	r0, r3
 81082b2:	3708      	adds	r7, #8
 81082b4:	46bd      	mov	sp, r7
 81082b6:	bd80      	pop	{r7, pc}

081082b8 <HAL_UART_Transmit>:
  * @param Size    Amount of data elements (u8 or u16) to be sent.
  * @param Timeout Timeout duration.
  * @retval HAL status
  */
HAL_StatusTypeDef HAL_UART_Transmit(UART_HandleTypeDef *huart, const uint8_t *pData, uint16_t Size, uint32_t Timeout)
{
 81082b8:	b580      	push	{r7, lr}
 81082ba:	b08a      	sub	sp, #40	; 0x28
 81082bc:	af02      	add	r7, sp, #8
 81082be:	60f8      	str	r0, [r7, #12]
 81082c0:	60b9      	str	r1, [r7, #8]
 81082c2:	603b      	str	r3, [r7, #0]
 81082c4:	4613      	mov	r3, r2
 81082c6:	80fb      	strh	r3, [r7, #6]
  const uint8_t  *pdata8bits;
  const uint16_t *pdata16bits;
  uint32_t tickstart;

  /* Check that a Tx process is not already ongoing */
  if (huart->gState == HAL_UART_STATE_READY)
 81082c8:	68fb      	ldr	r3, [r7, #12]
 81082ca:	f8d3 3084 	ldr.w	r3, [r3, #132]	; 0x84
 81082ce:	2b20      	cmp	r3, #32
 81082d0:	f040 8083 	bne.w	81083da <HAL_UART_Transmit+0x122>
  {
    if ((pData == NULL) || (Size == 0U))
 81082d4:	68bb      	ldr	r3, [r7, #8]
 81082d6:	2b00      	cmp	r3, #0
 81082d8:	d002      	beq.n	81082e0 <HAL_UART_Transmit+0x28>
 81082da:	88fb      	ldrh	r3, [r7, #6]
 81082dc:	2b00      	cmp	r3, #0
 81082de:	d101      	bne.n	81082e4 <HAL_UART_Transmit+0x2c>
    {
      return  HAL_ERROR;
 81082e0:	2301      	movs	r3, #1
 81082e2:	e07b      	b.n	81083dc <HAL_UART_Transmit+0x124>
    }

    __HAL_LOCK(huart);
 81082e4:	68fb      	ldr	r3, [r7, #12]
 81082e6:	f893 3080 	ldrb.w	r3, [r3, #128]	; 0x80
 81082ea:	2b01      	cmp	r3, #1
 81082ec:	d101      	bne.n	81082f2 <HAL_UART_Transmit+0x3a>
 81082ee:	2302      	movs	r3, #2
 81082f0:	e074      	b.n	81083dc <HAL_UART_Transmit+0x124>
 81082f2:	68fb      	ldr	r3, [r7, #12]
 81082f4:	2201      	movs	r2, #1
 81082f6:	f883 2080 	strb.w	r2, [r3, #128]	; 0x80

    huart->ErrorCode = HAL_UART_ERROR_NONE;
 81082fa:	68fb      	ldr	r3, [r7, #12]
 81082fc:	2200      	movs	r2, #0
 81082fe:	f8c3 208c 	str.w	r2, [r3, #140]	; 0x8c
    huart->gState = HAL_UART_STATE_BUSY_TX;
 8108302:	68fb      	ldr	r3, [r7, #12]
 8108304:	2221      	movs	r2, #33	; 0x21
 8108306:	f8c3 2084 	str.w	r2, [r3, #132]	; 0x84

    /* Init tickstart for timeout management */
    tickstart = HAL_GetTick();
 810830a:	f7fa faff 	bl	810290c <HAL_GetTick>
 810830e:	6178      	str	r0, [r7, #20]

    huart->TxXferSize  = Size;
 8108310:	68fb      	ldr	r3, [r7, #12]
 8108312:	88fa      	ldrh	r2, [r7, #6]
 8108314:	f8a3 2054 	strh.w	r2, [r3, #84]	; 0x54
    huart->TxXferCount = Size;
 8108318:	68fb      	ldr	r3, [r7, #12]
 810831a:	88fa      	ldrh	r2, [r7, #6]
 810831c:	f8a3 2056 	strh.w	r2, [r3, #86]	; 0x56

    /* In case of 9bits/No Parity transfer, pData needs to be handled as a uint16_t pointer */
    if ((huart->Init.WordLength == UART_WORDLENGTH_9B) && (huart->Init.Parity == UART_PARITY_NONE))
 8108320:	68fb      	ldr	r3, [r7, #12]
 8108322:	689b      	ldr	r3, [r3, #8]
 8108324:	f5b3 5f80 	cmp.w	r3, #4096	; 0x1000
 8108328:	d108      	bne.n	810833c <HAL_UART_Transmit+0x84>
 810832a:	68fb      	ldr	r3, [r7, #12]
 810832c:	691b      	ldr	r3, [r3, #16]
 810832e:	2b00      	cmp	r3, #0
 8108330:	d104      	bne.n	810833c <HAL_UART_Transmit+0x84>
    {
      pdata8bits  = NULL;
 8108332:	2300      	movs	r3, #0
 8108334:	61fb      	str	r3, [r7, #28]
      pdata16bits = (const uint16_t *) pData;
 8108336:	68bb      	ldr	r3, [r7, #8]
 8108338:	61bb      	str	r3, [r7, #24]
 810833a:	e003      	b.n	8108344 <HAL_UART_Transmit+0x8c>
    }
    else
    {
      pdata8bits  = pData;
 810833c:	68bb      	ldr	r3, [r7, #8]
 810833e:	61fb      	str	r3, [r7, #28]
      pdata16bits = NULL;
 8108340:	2300      	movs	r3, #0
 8108342:	61bb      	str	r3, [r7, #24]
    }

    __HAL_UNLOCK(huart);
 8108344:	68fb      	ldr	r3, [r7, #12]
 8108346:	2200      	movs	r2, #0
 8108348:	f883 2080 	strb.w	r2, [r3, #128]	; 0x80

    while (huart->TxXferCount > 0U)
 810834c:	e02c      	b.n	81083a8 <HAL_UART_Transmit+0xf0>
    {
      if (UART_WaitOnFlagUntilTimeout(huart, UART_FLAG_TXE, RESET, tickstart, Timeout) != HAL_OK)
 810834e:	683b      	ldr	r3, [r7, #0]
 8108350:	9300      	str	r3, [sp, #0]
 8108352:	697b      	ldr	r3, [r7, #20]
 8108354:	2200      	movs	r2, #0
 8108356:	2180      	movs	r1, #128	; 0x80
 8108358:	68f8      	ldr	r0, [r7, #12]
 810835a:	f000 fe98 	bl	810908e <UART_WaitOnFlagUntilTimeout>
 810835e:	4603      	mov	r3, r0
 8108360:	2b00      	cmp	r3, #0
 8108362:	d001      	beq.n	8108368 <HAL_UART_Transmit+0xb0>
      {
        return HAL_TIMEOUT;
 8108364:	2303      	movs	r3, #3
 8108366:	e039      	b.n	81083dc <HAL_UART_Transmit+0x124>
      }
      if (pdata8bits == NULL)
 8108368:	69fb      	ldr	r3, [r7, #28]
 810836a:	2b00      	cmp	r3, #0
 810836c:	d10b      	bne.n	8108386 <HAL_UART_Transmit+0xce>
      {
        huart->Instance->TDR = (uint16_t)(*pdata16bits & 0x01FFU);
 810836e:	69bb      	ldr	r3, [r7, #24]
 8108370:	881b      	ldrh	r3, [r3, #0]
 8108372:	461a      	mov	r2, r3
 8108374:	68fb      	ldr	r3, [r7, #12]
 8108376:	681b      	ldr	r3, [r3, #0]
 8108378:	f3c2 0208 	ubfx	r2, r2, #0, #9
 810837c:	629a      	str	r2, [r3, #40]	; 0x28
        pdata16bits++;
 810837e:	69bb      	ldr	r3, [r7, #24]
 8108380:	3302      	adds	r3, #2
 8108382:	61bb      	str	r3, [r7, #24]
 8108384:	e007      	b.n	8108396 <HAL_UART_Transmit+0xde>
      }
      else
      {
        huart->Instance->TDR = (uint8_t)(*pdata8bits & 0xFFU);
 8108386:	69fb      	ldr	r3, [r7, #28]
 8108388:	781a      	ldrb	r2, [r3, #0]
 810838a:	68fb      	ldr	r3, [r7, #12]
 810838c:	681b      	ldr	r3, [r3, #0]
 810838e:	629a      	str	r2, [r3, #40]	; 0x28
        pdata8bits++;
 8108390:	69fb      	ldr	r3, [r7, #28]
 8108392:	3301      	adds	r3, #1
 8108394:	61fb      	str	r3, [r7, #28]
      }
      huart->TxXferCount--;
 8108396:	68fb      	ldr	r3, [r7, #12]
 8108398:	f8b3 3056 	ldrh.w	r3, [r3, #86]	; 0x56
 810839c:	b29b      	uxth	r3, r3
 810839e:	3b01      	subs	r3, #1
 81083a0:	b29a      	uxth	r2, r3
 81083a2:	68fb      	ldr	r3, [r7, #12]
 81083a4:	f8a3 2056 	strh.w	r2, [r3, #86]	; 0x56
    while (huart->TxXferCount > 0U)
 81083a8:	68fb      	ldr	r3, [r7, #12]
 81083aa:	f8b3 3056 	ldrh.w	r3, [r3, #86]	; 0x56
 81083ae:	b29b      	uxth	r3, r3
 81083b0:	2b00      	cmp	r3, #0
 81083b2:	d1cc      	bne.n	810834e <HAL_UART_Transmit+0x96>
    }

    if (UART_WaitOnFlagUntilTimeout(huart, UART_FLAG_TC, RESET, tickstart, Timeout) != HAL_OK)
 81083b4:	683b      	ldr	r3, [r7, #0]
 81083b6:	9300      	str	r3, [sp, #0]
 81083b8:	697b      	ldr	r3, [r7, #20]
 81083ba:	2200      	movs	r2, #0
 81083bc:	2140      	movs	r1, #64	; 0x40
 81083be:	68f8      	ldr	r0, [r7, #12]
 81083c0:	f000 fe65 	bl	810908e <UART_WaitOnFlagUntilTimeout>
 81083c4:	4603      	mov	r3, r0
 81083c6:	2b00      	cmp	r3, #0
 81083c8:	d001      	beq.n	81083ce <HAL_UART_Transmit+0x116>
    {
      return HAL_TIMEOUT;
 81083ca:	2303      	movs	r3, #3
 81083cc:	e006      	b.n	81083dc <HAL_UART_Transmit+0x124>
    }

    /* At end of Tx process, restore huart->gState to Ready */
    huart->gState = HAL_UART_STATE_READY;
 81083ce:	68fb      	ldr	r3, [r7, #12]
 81083d0:	2220      	movs	r2, #32
 81083d2:	f8c3 2084 	str.w	r2, [r3, #132]	; 0x84

    return HAL_OK;
 81083d6:	2300      	movs	r3, #0
 81083d8:	e000      	b.n	81083dc <HAL_UART_Transmit+0x124>
  }
  else
  {
    return HAL_BUSY;
 81083da:	2302      	movs	r3, #2
  }
}
 81083dc:	4618      	mov	r0, r3
 81083de:	3720      	adds	r7, #32
 81083e0:	46bd      	mov	sp, r7
 81083e2:	bd80      	pop	{r7, pc}

081083e4 <UART_SetConfig>:
  * @brief Configure the UART peripheral.
  * @param huart UART handle.
  * @retval HAL status
  */
HAL_StatusTypeDef UART_SetConfig(UART_HandleTypeDef *huart)
{
 81083e4:	e92d 4fb0 	stmdb	sp!, {r4, r5, r7, r8, r9, sl, fp, lr}
 81083e8:	b092      	sub	sp, #72	; 0x48
 81083ea:	af00      	add	r7, sp, #0
 81083ec:	6178      	str	r0, [r7, #20]
  uint32_t tmpreg;
  uint16_t brrtemp;
  UART_ClockSourceTypeDef clocksource;
  uint32_t usartdiv;
  HAL_StatusTypeDef ret               = HAL_OK;
 81083ee:	2300      	movs	r3, #0
 81083f0:	f887 3042 	strb.w	r3, [r7, #66]	; 0x42
  *  the UART Word Length, Parity, Mode and oversampling:
  *  set the M bits according to huart->Init.WordLength value
  *  set PCE and PS bits according to huart->Init.Parity value
  *  set TE and RE bits according to huart->Init.Mode value
  *  set OVER8 bit according to huart->Init.OverSampling value */
  tmpreg = (uint32_t)huart->Init.WordLength | huart->Init.Parity | huart->Init.Mode | huart->Init.OverSampling ;
 81083f4:	697b      	ldr	r3, [r7, #20]
 81083f6:	689a      	ldr	r2, [r3, #8]
 81083f8:	697b      	ldr	r3, [r7, #20]
 81083fa:	691b      	ldr	r3, [r3, #16]
 81083fc:	431a      	orrs	r2, r3
 81083fe:	697b      	ldr	r3, [r7, #20]
 8108400:	695b      	ldr	r3, [r3, #20]
 8108402:	431a      	orrs	r2, r3
 8108404:	697b      	ldr	r3, [r7, #20]
 8108406:	69db      	ldr	r3, [r3, #28]
 8108408:	4313      	orrs	r3, r2
 810840a:	647b      	str	r3, [r7, #68]	; 0x44
  MODIFY_REG(huart->Instance->CR1, USART_CR1_FIELDS, tmpreg);
 810840c:	697b      	ldr	r3, [r7, #20]
 810840e:	681b      	ldr	r3, [r3, #0]
 8108410:	681a      	ldr	r2, [r3, #0]
 8108412:	4bbd      	ldr	r3, [pc, #756]	; (8108708 <UART_SetConfig+0x324>)
 8108414:	4013      	ands	r3, r2
 8108416:	697a      	ldr	r2, [r7, #20]
 8108418:	6812      	ldr	r2, [r2, #0]
 810841a:	6c79      	ldr	r1, [r7, #68]	; 0x44
 810841c:	430b      	orrs	r3, r1
 810841e:	6013      	str	r3, [r2, #0]

  /*-------------------------- USART CR2 Configuration -----------------------*/
  /* Configure the UART Stop Bits: Set STOP[13:12] bits according
  * to huart->Init.StopBits value */
  MODIFY_REG(huart->Instance->CR2, USART_CR2_STOP, huart->Init.StopBits);
 8108420:	697b      	ldr	r3, [r7, #20]
 8108422:	681b      	ldr	r3, [r3, #0]
 8108424:	685b      	ldr	r3, [r3, #4]
 8108426:	f423 5140 	bic.w	r1, r3, #12288	; 0x3000
 810842a:	697b      	ldr	r3, [r7, #20]
 810842c:	68da      	ldr	r2, [r3, #12]
 810842e:	697b      	ldr	r3, [r7, #20]
 8108430:	681b      	ldr	r3, [r3, #0]
 8108432:	430a      	orrs	r2, r1
 8108434:	605a      	str	r2, [r3, #4]
  /* Configure
  * - UART HardWare Flow Control: set CTSE and RTSE bits according
  *   to huart->Init.HwFlowCtl value
  * - one-bit sampling method versus three samples' majority rule according
  *   to huart->Init.OneBitSampling (not applicable to LPUART) */
  tmpreg = (uint32_t)huart->Init.HwFlowCtl;
 8108436:	697b      	ldr	r3, [r7, #20]
 8108438:	699b      	ldr	r3, [r3, #24]
 810843a:	647b      	str	r3, [r7, #68]	; 0x44

  if (!(UART_INSTANCE_LOWPOWER(huart)))
 810843c:	697b      	ldr	r3, [r7, #20]
 810843e:	681b      	ldr	r3, [r3, #0]
 8108440:	4ab2      	ldr	r2, [pc, #712]	; (810870c <UART_SetConfig+0x328>)
 8108442:	4293      	cmp	r3, r2
 8108444:	d004      	beq.n	8108450 <UART_SetConfig+0x6c>
  {
    tmpreg |= huart->Init.OneBitSampling;
 8108446:	697b      	ldr	r3, [r7, #20]
 8108448:	6a1b      	ldr	r3, [r3, #32]
 810844a:	6c7a      	ldr	r2, [r7, #68]	; 0x44
 810844c:	4313      	orrs	r3, r2
 810844e:	647b      	str	r3, [r7, #68]	; 0x44
  }
  MODIFY_REG(huart->Instance->CR3, USART_CR3_FIELDS, tmpreg);
 8108450:	697b      	ldr	r3, [r7, #20]
 8108452:	681b      	ldr	r3, [r3, #0]
 8108454:	689b      	ldr	r3, [r3, #8]
 8108456:	f023 436e 	bic.w	r3, r3, #3992977408	; 0xee000000
 810845a:	f423 6330 	bic.w	r3, r3, #2816	; 0xb00
 810845e:	697a      	ldr	r2, [r7, #20]
 8108460:	6812      	ldr	r2, [r2, #0]
 8108462:	6c79      	ldr	r1, [r7, #68]	; 0x44
 8108464:	430b      	orrs	r3, r1
 8108466:	6093      	str	r3, [r2, #8]

  /*-------------------------- USART PRESC Configuration -----------------------*/
  /* Configure
  * - UART Clock Prescaler : set PRESCALER according to huart->Init.ClockPrescaler value */
  MODIFY_REG(huart->Instance->PRESC, USART_PRESC_PRESCALER, huart->Init.ClockPrescaler);
 8108468:	697b      	ldr	r3, [r7, #20]
 810846a:	681b      	ldr	r3, [r3, #0]
 810846c:	6adb      	ldr	r3, [r3, #44]	; 0x2c
 810846e:	f023 010f 	bic.w	r1, r3, #15
 8108472:	697b      	ldr	r3, [r7, #20]
 8108474:	6a5a      	ldr	r2, [r3, #36]	; 0x24
 8108476:	697b      	ldr	r3, [r7, #20]
 8108478:	681b      	ldr	r3, [r3, #0]
 810847a:	430a      	orrs	r2, r1
 810847c:	62da      	str	r2, [r3, #44]	; 0x2c

  /*-------------------------- USART BRR Configuration -----------------------*/
  UART_GETCLOCKSOURCE(huart, clocksource);
 810847e:	697b      	ldr	r3, [r7, #20]
 8108480:	681b      	ldr	r3, [r3, #0]
 8108482:	4aa3      	ldr	r2, [pc, #652]	; (8108710 <UART_SetConfig+0x32c>)
 8108484:	4293      	cmp	r3, r2
 8108486:	d177      	bne.n	8108578 <UART_SetConfig+0x194>
 8108488:	4ba2      	ldr	r3, [pc, #648]	; (8108714 <UART_SetConfig+0x330>)
 810848a:	6d5b      	ldr	r3, [r3, #84]	; 0x54
 810848c:	f003 0338 	and.w	r3, r3, #56	; 0x38
 8108490:	2b28      	cmp	r3, #40	; 0x28
 8108492:	d86d      	bhi.n	8108570 <UART_SetConfig+0x18c>
 8108494:	a201      	add	r2, pc, #4	; (adr r2, 810849c <UART_SetConfig+0xb8>)
 8108496:	f852 f023 	ldr.w	pc, [r2, r3, lsl #2]
 810849a:	bf00      	nop
 810849c:	08108541 	.word	0x08108541
 81084a0:	08108571 	.word	0x08108571
 81084a4:	08108571 	.word	0x08108571
 81084a8:	08108571 	.word	0x08108571
 81084ac:	08108571 	.word	0x08108571
 81084b0:	08108571 	.word	0x08108571
 81084b4:	08108571 	.word	0x08108571
 81084b8:	08108571 	.word	0x08108571
 81084bc:	08108549 	.word	0x08108549
 81084c0:	08108571 	.word	0x08108571
 81084c4:	08108571 	.word	0x08108571
 81084c8:	08108571 	.word	0x08108571
 81084cc:	08108571 	.word	0x08108571
 81084d0:	08108571 	.word	0x08108571
 81084d4:	08108571 	.word	0x08108571
 81084d8:	08108571 	.word	0x08108571
 81084dc:	08108551 	.word	0x08108551
 81084e0:	08108571 	.word	0x08108571
 81084e4:	08108571 	.word	0x08108571
 81084e8:	08108571 	.word	0x08108571
 81084ec:	08108571 	.word	0x08108571
 81084f0:	08108571 	.word	0x08108571
 81084f4:	08108571 	.word	0x08108571
 81084f8:	08108571 	.word	0x08108571
 81084fc:	08108559 	.word	0x08108559
 8108500:	08108571 	.word	0x08108571
 8108504:	08108571 	.word	0x08108571
 8108508:	08108571 	.word	0x08108571
 810850c:	08108571 	.word	0x08108571
 8108510:	08108571 	.word	0x08108571
 8108514:	08108571 	.word	0x08108571
 8108518:	08108571 	.word	0x08108571
 810851c:	08108561 	.word	0x08108561
 8108520:	08108571 	.word	0x08108571
 8108524:	08108571 	.word	0x08108571
 8108528:	08108571 	.word	0x08108571
 810852c:	08108571 	.word	0x08108571
 8108530:	08108571 	.word	0x08108571
 8108534:	08108571 	.word	0x08108571
 8108538:	08108571 	.word	0x08108571
 810853c:	08108569 	.word	0x08108569
 8108540:	2301      	movs	r3, #1
 8108542:	f887 3043 	strb.w	r3, [r7, #67]	; 0x43
 8108546:	e220      	b.n	810898a <UART_SetConfig+0x5a6>
 8108548:	2304      	movs	r3, #4
 810854a:	f887 3043 	strb.w	r3, [r7, #67]	; 0x43
 810854e:	e21c      	b.n	810898a <UART_SetConfig+0x5a6>
 8108550:	2308      	movs	r3, #8
 8108552:	f887 3043 	strb.w	r3, [r7, #67]	; 0x43
 8108556:	e218      	b.n	810898a <UART_SetConfig+0x5a6>
 8108558:	2310      	movs	r3, #16
 810855a:	f887 3043 	strb.w	r3, [r7, #67]	; 0x43
 810855e:	e214      	b.n	810898a <UART_SetConfig+0x5a6>
 8108560:	2320      	movs	r3, #32
 8108562:	f887 3043 	strb.w	r3, [r7, #67]	; 0x43
 8108566:	e210      	b.n	810898a <UART_SetConfig+0x5a6>
 8108568:	2340      	movs	r3, #64	; 0x40
 810856a:	f887 3043 	strb.w	r3, [r7, #67]	; 0x43
 810856e:	e20c      	b.n	810898a <UART_SetConfig+0x5a6>
 8108570:	2380      	movs	r3, #128	; 0x80
 8108572:	f887 3043 	strb.w	r3, [r7, #67]	; 0x43
 8108576:	e208      	b.n	810898a <UART_SetConfig+0x5a6>
 8108578:	697b      	ldr	r3, [r7, #20]
 810857a:	681b      	ldr	r3, [r3, #0]
 810857c:	4a66      	ldr	r2, [pc, #408]	; (8108718 <UART_SetConfig+0x334>)
 810857e:	4293      	cmp	r3, r2
 8108580:	d130      	bne.n	81085e4 <UART_SetConfig+0x200>
 8108582:	4b64      	ldr	r3, [pc, #400]	; (8108714 <UART_SetConfig+0x330>)
 8108584:	6d5b      	ldr	r3, [r3, #84]	; 0x54
 8108586:	f003 0307 	and.w	r3, r3, #7
 810858a:	2b05      	cmp	r3, #5
 810858c:	d826      	bhi.n	81085dc <UART_SetConfig+0x1f8>
 810858e:	a201      	add	r2, pc, #4	; (adr r2, 8108594 <UART_SetConfig+0x1b0>)
 8108590:	f852 f023 	ldr.w	pc, [r2, r3, lsl #2]
 8108594:	081085ad 	.word	0x081085ad
 8108598:	081085b5 	.word	0x081085b5
 810859c:	081085bd 	.word	0x081085bd
 81085a0:	081085c5 	.word	0x081085c5
 81085a4:	081085cd 	.word	0x081085cd
 81085a8:	081085d5 	.word	0x081085d5
 81085ac:	2300      	movs	r3, #0
 81085ae:	f887 3043 	strb.w	r3, [r7, #67]	; 0x43
 81085b2:	e1ea      	b.n	810898a <UART_SetConfig+0x5a6>
 81085b4:	2304      	movs	r3, #4
 81085b6:	f887 3043 	strb.w	r3, [r7, #67]	; 0x43
 81085ba:	e1e6      	b.n	810898a <UART_SetConfig+0x5a6>
 81085bc:	2308      	movs	r3, #8
 81085be:	f887 3043 	strb.w	r3, [r7, #67]	; 0x43
 81085c2:	e1e2      	b.n	810898a <UART_SetConfig+0x5a6>
 81085c4:	2310      	movs	r3, #16
 81085c6:	f887 3043 	strb.w	r3, [r7, #67]	; 0x43
 81085ca:	e1de      	b.n	810898a <UART_SetConfig+0x5a6>
 81085cc:	2320      	movs	r3, #32
 81085ce:	f887 3043 	strb.w	r3, [r7, #67]	; 0x43
 81085d2:	e1da      	b.n	810898a <UART_SetConfig+0x5a6>
 81085d4:	2340      	movs	r3, #64	; 0x40
 81085d6:	f887 3043 	strb.w	r3, [r7, #67]	; 0x43
 81085da:	e1d6      	b.n	810898a <UART_SetConfig+0x5a6>
 81085dc:	2380      	movs	r3, #128	; 0x80
 81085de:	f887 3043 	strb.w	r3, [r7, #67]	; 0x43
 81085e2:	e1d2      	b.n	810898a <UART_SetConfig+0x5a6>
 81085e4:	697b      	ldr	r3, [r7, #20]
 81085e6:	681b      	ldr	r3, [r3, #0]
 81085e8:	4a4c      	ldr	r2, [pc, #304]	; (810871c <UART_SetConfig+0x338>)
 81085ea:	4293      	cmp	r3, r2
 81085ec:	d130      	bne.n	8108650 <UART_SetConfig+0x26c>
 81085ee:	4b49      	ldr	r3, [pc, #292]	; (8108714 <UART_SetConfig+0x330>)
 81085f0:	6d5b      	ldr	r3, [r3, #84]	; 0x54
 81085f2:	f003 0307 	and.w	r3, r3, #7
 81085f6:	2b05      	cmp	r3, #5
 81085f8:	d826      	bhi.n	8108648 <UART_SetConfig+0x264>
 81085fa:	a201      	add	r2, pc, #4	; (adr r2, 8108600 <UART_SetConfig+0x21c>)
 81085fc:	f852 f023 	ldr.w	pc, [r2, r3, lsl #2]
 8108600:	08108619 	.word	0x08108619
 8108604:	08108621 	.word	0x08108621
 8108608:	08108629 	.word	0x08108629
 810860c:	08108631 	.word	0x08108631
 8108610:	08108639 	.word	0x08108639
 8108614:	08108641 	.word	0x08108641
 8108618:	2300      	movs	r3, #0
 810861a:	f887 3043 	strb.w	r3, [r7, #67]	; 0x43
 810861e:	e1b4      	b.n	810898a <UART_SetConfig+0x5a6>
 8108620:	2304      	movs	r3, #4
 8108622:	f887 3043 	strb.w	r3, [r7, #67]	; 0x43
 8108626:	e1b0      	b.n	810898a <UART_SetConfig+0x5a6>
 8108628:	2308      	movs	r3, #8
 810862a:	f887 3043 	strb.w	r3, [r7, #67]	; 0x43
 810862e:	e1ac      	b.n	810898a <UART_SetConfig+0x5a6>
 8108630:	2310      	movs	r3, #16
 8108632:	f887 3043 	strb.w	r3, [r7, #67]	; 0x43
 8108636:	e1a8      	b.n	810898a <UART_SetConfig+0x5a6>
 8108638:	2320      	movs	r3, #32
 810863a:	f887 3043 	strb.w	r3, [r7, #67]	; 0x43
 810863e:	e1a4      	b.n	810898a <UART_SetConfig+0x5a6>
 8108640:	2340      	movs	r3, #64	; 0x40
 8108642:	f887 3043 	strb.w	r3, [r7, #67]	; 0x43
 8108646:	e1a0      	b.n	810898a <UART_SetConfig+0x5a6>
 8108648:	2380      	movs	r3, #128	; 0x80
 810864a:	f887 3043 	strb.w	r3, [r7, #67]	; 0x43
 810864e:	e19c      	b.n	810898a <UART_SetConfig+0x5a6>
 8108650:	697b      	ldr	r3, [r7, #20]
 8108652:	681b      	ldr	r3, [r3, #0]
 8108654:	4a32      	ldr	r2, [pc, #200]	; (8108720 <UART_SetConfig+0x33c>)
 8108656:	4293      	cmp	r3, r2
 8108658:	d130      	bne.n	81086bc <UART_SetConfig+0x2d8>
 810865a:	4b2e      	ldr	r3, [pc, #184]	; (8108714 <UART_SetConfig+0x330>)
 810865c:	6d5b      	ldr	r3, [r3, #84]	; 0x54
 810865e:	f003 0307 	and.w	r3, r3, #7
 8108662:	2b05      	cmp	r3, #5
 8108664:	d826      	bhi.n	81086b4 <UART_SetConfig+0x2d0>
 8108666:	a201      	add	r2, pc, #4	; (adr r2, 810866c <UART_SetConfig+0x288>)
 8108668:	f852 f023 	ldr.w	pc, [r2, r3, lsl #2]
 810866c:	08108685 	.word	0x08108685
 8108670:	0810868d 	.word	0x0810868d
 8108674:	08108695 	.word	0x08108695
 8108678:	0810869d 	.word	0x0810869d
 810867c:	081086a5 	.word	0x081086a5
 8108680:	081086ad 	.word	0x081086ad
 8108684:	2300      	movs	r3, #0
 8108686:	f887 3043 	strb.w	r3, [r7, #67]	; 0x43
 810868a:	e17e      	b.n	810898a <UART_SetConfig+0x5a6>
 810868c:	2304      	movs	r3, #4
 810868e:	f887 3043 	strb.w	r3, [r7, #67]	; 0x43
 8108692:	e17a      	b.n	810898a <UART_SetConfig+0x5a6>
 8108694:	2308      	movs	r3, #8
 8108696:	f887 3043 	strb.w	r3, [r7, #67]	; 0x43
 810869a:	e176      	b.n	810898a <UART_SetConfig+0x5a6>
 810869c:	2310      	movs	r3, #16
 810869e:	f887 3043 	strb.w	r3, [r7, #67]	; 0x43
 81086a2:	e172      	b.n	810898a <UART_SetConfig+0x5a6>
 81086a4:	2320      	movs	r3, #32
 81086a6:	f887 3043 	strb.w	r3, [r7, #67]	; 0x43
 81086aa:	e16e      	b.n	810898a <UART_SetConfig+0x5a6>
 81086ac:	2340      	movs	r3, #64	; 0x40
 81086ae:	f887 3043 	strb.w	r3, [r7, #67]	; 0x43
 81086b2:	e16a      	b.n	810898a <UART_SetConfig+0x5a6>
 81086b4:	2380      	movs	r3, #128	; 0x80
 81086b6:	f887 3043 	strb.w	r3, [r7, #67]	; 0x43
 81086ba:	e166      	b.n	810898a <UART_SetConfig+0x5a6>
 81086bc:	697b      	ldr	r3, [r7, #20]
 81086be:	681b      	ldr	r3, [r3, #0]
 81086c0:	4a18      	ldr	r2, [pc, #96]	; (8108724 <UART_SetConfig+0x340>)
 81086c2:	4293      	cmp	r3, r2
 81086c4:	d140      	bne.n	8108748 <UART_SetConfig+0x364>
 81086c6:	4b13      	ldr	r3, [pc, #76]	; (8108714 <UART_SetConfig+0x330>)
 81086c8:	6d5b      	ldr	r3, [r3, #84]	; 0x54
 81086ca:	f003 0307 	and.w	r3, r3, #7
 81086ce:	2b05      	cmp	r3, #5
 81086d0:	d836      	bhi.n	8108740 <UART_SetConfig+0x35c>
 81086d2:	a201      	add	r2, pc, #4	; (adr r2, 81086d8 <UART_SetConfig+0x2f4>)
 81086d4:	f852 f023 	ldr.w	pc, [r2, r3, lsl #2]
 81086d8:	081086f1 	.word	0x081086f1
 81086dc:	081086f9 	.word	0x081086f9
 81086e0:	08108701 	.word	0x08108701
 81086e4:	08108729 	.word	0x08108729
 81086e8:	08108731 	.word	0x08108731
 81086ec:	08108739 	.word	0x08108739
 81086f0:	2300      	movs	r3, #0
 81086f2:	f887 3043 	strb.w	r3, [r7, #67]	; 0x43
 81086f6:	e148      	b.n	810898a <UART_SetConfig+0x5a6>
 81086f8:	2304      	movs	r3, #4
 81086fa:	f887 3043 	strb.w	r3, [r7, #67]	; 0x43
 81086fe:	e144      	b.n	810898a <UART_SetConfig+0x5a6>
 8108700:	2308      	movs	r3, #8
 8108702:	f887 3043 	strb.w	r3, [r7, #67]	; 0x43
 8108706:	e140      	b.n	810898a <UART_SetConfig+0x5a6>
 8108708:	cfff69f3 	.word	0xcfff69f3
 810870c:	58000c00 	.word	0x58000c00
 8108710:	40011000 	.word	0x40011000
 8108714:	58024400 	.word	0x58024400
 8108718:	40004400 	.word	0x40004400
 810871c:	40004800 	.word	0x40004800
 8108720:	40004c00 	.word	0x40004c00
 8108724:	40005000 	.word	0x40005000
 8108728:	2310      	movs	r3, #16
 810872a:	f887 3043 	strb.w	r3, [r7, #67]	; 0x43
 810872e:	e12c      	b.n	810898a <UART_SetConfig+0x5a6>
 8108730:	2320      	movs	r3, #32
 8108732:	f887 3043 	strb.w	r3, [r7, #67]	; 0x43
 8108736:	e128      	b.n	810898a <UART_SetConfig+0x5a6>
 8108738:	2340      	movs	r3, #64	; 0x40
 810873a:	f887 3043 	strb.w	r3, [r7, #67]	; 0x43
 810873e:	e124      	b.n	810898a <UART_SetConfig+0x5a6>
 8108740:	2380      	movs	r3, #128	; 0x80
 8108742:	f887 3043 	strb.w	r3, [r7, #67]	; 0x43
 8108746:	e120      	b.n	810898a <UART_SetConfig+0x5a6>
 8108748:	697b      	ldr	r3, [r7, #20]
 810874a:	681b      	ldr	r3, [r3, #0]
 810874c:	4acb      	ldr	r2, [pc, #812]	; (8108a7c <UART_SetConfig+0x698>)
 810874e:	4293      	cmp	r3, r2
 8108750:	d176      	bne.n	8108840 <UART_SetConfig+0x45c>
 8108752:	4bcb      	ldr	r3, [pc, #812]	; (8108a80 <UART_SetConfig+0x69c>)
 8108754:	6d5b      	ldr	r3, [r3, #84]	; 0x54
 8108756:	f003 0338 	and.w	r3, r3, #56	; 0x38
 810875a:	2b28      	cmp	r3, #40	; 0x28
 810875c:	d86c      	bhi.n	8108838 <UART_SetConfig+0x454>
 810875e:	a201      	add	r2, pc, #4	; (adr r2, 8108764 <UART_SetConfig+0x380>)
 8108760:	f852 f023 	ldr.w	pc, [r2, r3, lsl #2]
 8108764:	08108809 	.word	0x08108809
 8108768:	08108839 	.word	0x08108839
 810876c:	08108839 	.word	0x08108839
 8108770:	08108839 	.word	0x08108839
 8108774:	08108839 	.word	0x08108839
 8108778:	08108839 	.word	0x08108839
 810877c:	08108839 	.word	0x08108839
 8108780:	08108839 	.word	0x08108839
 8108784:	08108811 	.word	0x08108811
 8108788:	08108839 	.word	0x08108839
 810878c:	08108839 	.word	0x08108839
 8108790:	08108839 	.word	0x08108839
 8108794:	08108839 	.word	0x08108839
 8108798:	08108839 	.word	0x08108839
 810879c:	08108839 	.word	0x08108839
 81087a0:	08108839 	.word	0x08108839
 81087a4:	08108819 	.word	0x08108819
 81087a8:	08108839 	.word	0x08108839
 81087ac:	08108839 	.word	0x08108839
 81087b0:	08108839 	.word	0x08108839
 81087b4:	08108839 	.word	0x08108839
 81087b8:	08108839 	.word	0x08108839
 81087bc:	08108839 	.word	0x08108839
 81087c0:	08108839 	.word	0x08108839
 81087c4:	08108821 	.word	0x08108821
 81087c8:	08108839 	.word	0x08108839
 81087cc:	08108839 	.word	0x08108839
 81087d0:	08108839 	.word	0x08108839
 81087d4:	08108839 	.word	0x08108839
 81087d8:	08108839 	.word	0x08108839
 81087dc:	08108839 	.word	0x08108839
 81087e0:	08108839 	.word	0x08108839
 81087e4:	08108829 	.word	0x08108829
 81087e8:	08108839 	.word	0x08108839
 81087ec:	08108839 	.word	0x08108839
 81087f0:	08108839 	.word	0x08108839
 81087f4:	08108839 	.word	0x08108839
 81087f8:	08108839 	.word	0x08108839
 81087fc:	08108839 	.word	0x08108839
 8108800:	08108839 	.word	0x08108839
 8108804:	08108831 	.word	0x08108831
 8108808:	2301      	movs	r3, #1
 810880a:	f887 3043 	strb.w	r3, [r7, #67]	; 0x43
 810880e:	e0bc      	b.n	810898a <UART_SetConfig+0x5a6>
 8108810:	2304      	movs	r3, #4
 8108812:	f887 3043 	strb.w	r3, [r7, #67]	; 0x43
 8108816:	e0b8      	b.n	810898a <UART_SetConfig+0x5a6>
 8108818:	2308      	movs	r3, #8
 810881a:	f887 3043 	strb.w	r3, [r7, #67]	; 0x43
 810881e:	e0b4      	b.n	810898a <UART_SetConfig+0x5a6>
 8108820:	2310      	movs	r3, #16
 8108822:	f887 3043 	strb.w	r3, [r7, #67]	; 0x43
 8108826:	e0b0      	b.n	810898a <UART_SetConfig+0x5a6>
 8108828:	2320      	movs	r3, #32
 810882a:	f887 3043 	strb.w	r3, [r7, #67]	; 0x43
 810882e:	e0ac      	b.n	810898a <UART_SetConfig+0x5a6>
 8108830:	2340      	movs	r3, #64	; 0x40
 8108832:	f887 3043 	strb.w	r3, [r7, #67]	; 0x43
 8108836:	e0a8      	b.n	810898a <UART_SetConfig+0x5a6>
 8108838:	2380      	movs	r3, #128	; 0x80
 810883a:	f887 3043 	strb.w	r3, [r7, #67]	; 0x43
 810883e:	e0a4      	b.n	810898a <UART_SetConfig+0x5a6>
 8108840:	697b      	ldr	r3, [r7, #20]
 8108842:	681b      	ldr	r3, [r3, #0]
 8108844:	4a8f      	ldr	r2, [pc, #572]	; (8108a84 <UART_SetConfig+0x6a0>)
 8108846:	4293      	cmp	r3, r2
 8108848:	d130      	bne.n	81088ac <UART_SetConfig+0x4c8>
 810884a:	4b8d      	ldr	r3, [pc, #564]	; (8108a80 <UART_SetConfig+0x69c>)
 810884c:	6d5b      	ldr	r3, [r3, #84]	; 0x54
 810884e:	f003 0307 	and.w	r3, r3, #7
 8108852:	2b05      	cmp	r3, #5
 8108854:	d826      	bhi.n	81088a4 <UART_SetConfig+0x4c0>
 8108856:	a201      	add	r2, pc, #4	; (adr r2, 810885c <UART_SetConfig+0x478>)
 8108858:	f852 f023 	ldr.w	pc, [r2, r3, lsl #2]
 810885c:	08108875 	.word	0x08108875
 8108860:	0810887d 	.word	0x0810887d
 8108864:	08108885 	.word	0x08108885
 8108868:	0810888d 	.word	0x0810888d
 810886c:	08108895 	.word	0x08108895
 8108870:	0810889d 	.word	0x0810889d
 8108874:	2300      	movs	r3, #0
 8108876:	f887 3043 	strb.w	r3, [r7, #67]	; 0x43
 810887a:	e086      	b.n	810898a <UART_SetConfig+0x5a6>
 810887c:	2304      	movs	r3, #4
 810887e:	f887 3043 	strb.w	r3, [r7, #67]	; 0x43
 8108882:	e082      	b.n	810898a <UART_SetConfig+0x5a6>
 8108884:	2308      	movs	r3, #8
 8108886:	f887 3043 	strb.w	r3, [r7, #67]	; 0x43
 810888a:	e07e      	b.n	810898a <UART_SetConfig+0x5a6>
 810888c:	2310      	movs	r3, #16
 810888e:	f887 3043 	strb.w	r3, [r7, #67]	; 0x43
 8108892:	e07a      	b.n	810898a <UART_SetConfig+0x5a6>
 8108894:	2320      	movs	r3, #32
 8108896:	f887 3043 	strb.w	r3, [r7, #67]	; 0x43
 810889a:	e076      	b.n	810898a <UART_SetConfig+0x5a6>
 810889c:	2340      	movs	r3, #64	; 0x40
 810889e:	f887 3043 	strb.w	r3, [r7, #67]	; 0x43
 81088a2:	e072      	b.n	810898a <UART_SetConfig+0x5a6>
 81088a4:	2380      	movs	r3, #128	; 0x80
 81088a6:	f887 3043 	strb.w	r3, [r7, #67]	; 0x43
 81088aa:	e06e      	b.n	810898a <UART_SetConfig+0x5a6>
 81088ac:	697b      	ldr	r3, [r7, #20]
 81088ae:	681b      	ldr	r3, [r3, #0]
 81088b0:	4a75      	ldr	r2, [pc, #468]	; (8108a88 <UART_SetConfig+0x6a4>)
 81088b2:	4293      	cmp	r3, r2
 81088b4:	d130      	bne.n	8108918 <UART_SetConfig+0x534>
 81088b6:	4b72      	ldr	r3, [pc, #456]	; (8108a80 <UART_SetConfig+0x69c>)
 81088b8:	6d5b      	ldr	r3, [r3, #84]	; 0x54
 81088ba:	f003 0307 	and.w	r3, r3, #7
 81088be:	2b05      	cmp	r3, #5
 81088c0:	d826      	bhi.n	8108910 <UART_SetConfig+0x52c>
 81088c2:	a201      	add	r2, pc, #4	; (adr r2, 81088c8 <UART_SetConfig+0x4e4>)
 81088c4:	f852 f023 	ldr.w	pc, [r2, r3, lsl #2]
 81088c8:	081088e1 	.word	0x081088e1
 81088cc:	081088e9 	.word	0x081088e9
 81088d0:	081088f1 	.word	0x081088f1
 81088d4:	081088f9 	.word	0x081088f9
 81088d8:	08108901 	.word	0x08108901
 81088dc:	08108909 	.word	0x08108909
 81088e0:	2300      	movs	r3, #0
 81088e2:	f887 3043 	strb.w	r3, [r7, #67]	; 0x43
 81088e6:	e050      	b.n	810898a <UART_SetConfig+0x5a6>
 81088e8:	2304      	movs	r3, #4
 81088ea:	f887 3043 	strb.w	r3, [r7, #67]	; 0x43
 81088ee:	e04c      	b.n	810898a <UART_SetConfig+0x5a6>
 81088f0:	2308      	movs	r3, #8
 81088f2:	f887 3043 	strb.w	r3, [r7, #67]	; 0x43
 81088f6:	e048      	b.n	810898a <UART_SetConfig+0x5a6>
 81088f8:	2310      	movs	r3, #16
 81088fa:	f887 3043 	strb.w	r3, [r7, #67]	; 0x43
 81088fe:	e044      	b.n	810898a <UART_SetConfig+0x5a6>
 8108900:	2320      	movs	r3, #32
 8108902:	f887 3043 	strb.w	r3, [r7, #67]	; 0x43
 8108906:	e040      	b.n	810898a <UART_SetConfig+0x5a6>
 8108908:	2340      	movs	r3, #64	; 0x40
 810890a:	f887 3043 	strb.w	r3, [r7, #67]	; 0x43
 810890e:	e03c      	b.n	810898a <UART_SetConfig+0x5a6>
 8108910:	2380      	movs	r3, #128	; 0x80
 8108912:	f887 3043 	strb.w	r3, [r7, #67]	; 0x43
 8108916:	e038      	b.n	810898a <UART_SetConfig+0x5a6>
 8108918:	697b      	ldr	r3, [r7, #20]
 810891a:	681b      	ldr	r3, [r3, #0]
 810891c:	4a5b      	ldr	r2, [pc, #364]	; (8108a8c <UART_SetConfig+0x6a8>)
 810891e:	4293      	cmp	r3, r2
 8108920:	d130      	bne.n	8108984 <UART_SetConfig+0x5a0>
 8108922:	4b57      	ldr	r3, [pc, #348]	; (8108a80 <UART_SetConfig+0x69c>)
 8108924:	6d9b      	ldr	r3, [r3, #88]	; 0x58
 8108926:	f003 0307 	and.w	r3, r3, #7
 810892a:	2b05      	cmp	r3, #5
 810892c:	d826      	bhi.n	810897c <UART_SetConfig+0x598>
 810892e:	a201      	add	r2, pc, #4	; (adr r2, 8108934 <UART_SetConfig+0x550>)
 8108930:	f852 f023 	ldr.w	pc, [r2, r3, lsl #2]
 8108934:	0810894d 	.word	0x0810894d
 8108938:	08108955 	.word	0x08108955
 810893c:	0810895d 	.word	0x0810895d
 8108940:	08108965 	.word	0x08108965
 8108944:	0810896d 	.word	0x0810896d
 8108948:	08108975 	.word	0x08108975
 810894c:	2302      	movs	r3, #2
 810894e:	f887 3043 	strb.w	r3, [r7, #67]	; 0x43
 8108952:	e01a      	b.n	810898a <UART_SetConfig+0x5a6>
 8108954:	2304      	movs	r3, #4
 8108956:	f887 3043 	strb.w	r3, [r7, #67]	; 0x43
 810895a:	e016      	b.n	810898a <UART_SetConfig+0x5a6>
 810895c:	2308      	movs	r3, #8
 810895e:	f887 3043 	strb.w	r3, [r7, #67]	; 0x43
 8108962:	e012      	b.n	810898a <UART_SetConfig+0x5a6>
 8108964:	2310      	movs	r3, #16
 8108966:	f887 3043 	strb.w	r3, [r7, #67]	; 0x43
 810896a:	e00e      	b.n	810898a <UART_SetConfig+0x5a6>
 810896c:	2320      	movs	r3, #32
 810896e:	f887 3043 	strb.w	r3, [r7, #67]	; 0x43
 8108972:	e00a      	b.n	810898a <UART_SetConfig+0x5a6>
 8108974:	2340      	movs	r3, #64	; 0x40
 8108976:	f887 3043 	strb.w	r3, [r7, #67]	; 0x43
 810897a:	e006      	b.n	810898a <UART_SetConfig+0x5a6>
 810897c:	2380      	movs	r3, #128	; 0x80
 810897e:	f887 3043 	strb.w	r3, [r7, #67]	; 0x43
 8108982:	e002      	b.n	810898a <UART_SetConfig+0x5a6>
 8108984:	2380      	movs	r3, #128	; 0x80
 8108986:	f887 3043 	strb.w	r3, [r7, #67]	; 0x43

  /* Check LPUART instance */
  if (UART_INSTANCE_LOWPOWER(huart))
 810898a:	697b      	ldr	r3, [r7, #20]
 810898c:	681b      	ldr	r3, [r3, #0]
 810898e:	4a3f      	ldr	r2, [pc, #252]	; (8108a8c <UART_SetConfig+0x6a8>)
 8108990:	4293      	cmp	r3, r2
 8108992:	f040 80f8 	bne.w	8108b86 <UART_SetConfig+0x7a2>
  {
    /* Retrieve frequency clock */
    switch (clocksource)
 8108996:	f897 3043 	ldrb.w	r3, [r7, #67]	; 0x43
 810899a:	2b20      	cmp	r3, #32
 810899c:	dc46      	bgt.n	8108a2c <UART_SetConfig+0x648>
 810899e:	2b02      	cmp	r3, #2
 81089a0:	f2c0 8082 	blt.w	8108aa8 <UART_SetConfig+0x6c4>
 81089a4:	3b02      	subs	r3, #2
 81089a6:	2b1e      	cmp	r3, #30
 81089a8:	d87e      	bhi.n	8108aa8 <UART_SetConfig+0x6c4>
 81089aa:	a201      	add	r2, pc, #4	; (adr r2, 81089b0 <UART_SetConfig+0x5cc>)
 81089ac:	f852 f023 	ldr.w	pc, [r2, r3, lsl #2]
 81089b0:	08108a33 	.word	0x08108a33
 81089b4:	08108aa9 	.word	0x08108aa9
 81089b8:	08108a3b 	.word	0x08108a3b
 81089bc:	08108aa9 	.word	0x08108aa9
 81089c0:	08108aa9 	.word	0x08108aa9
 81089c4:	08108aa9 	.word	0x08108aa9
 81089c8:	08108a4b 	.word	0x08108a4b
 81089cc:	08108aa9 	.word	0x08108aa9
 81089d0:	08108aa9 	.word	0x08108aa9
 81089d4:	08108aa9 	.word	0x08108aa9
 81089d8:	08108aa9 	.word	0x08108aa9
 81089dc:	08108aa9 	.word	0x08108aa9
 81089e0:	08108aa9 	.word	0x08108aa9
 81089e4:	08108aa9 	.word	0x08108aa9
 81089e8:	08108a5b 	.word	0x08108a5b
 81089ec:	08108aa9 	.word	0x08108aa9
 81089f0:	08108aa9 	.word	0x08108aa9
 81089f4:	08108aa9 	.word	0x08108aa9
 81089f8:	08108aa9 	.word	0x08108aa9
 81089fc:	08108aa9 	.word	0x08108aa9
 8108a00:	08108aa9 	.word	0x08108aa9
 8108a04:	08108aa9 	.word	0x08108aa9
 8108a08:	08108aa9 	.word	0x08108aa9
 8108a0c:	08108aa9 	.word	0x08108aa9
 8108a10:	08108aa9 	.word	0x08108aa9
 8108a14:	08108aa9 	.word	0x08108aa9
 8108a18:	08108aa9 	.word	0x08108aa9
 8108a1c:	08108aa9 	.word	0x08108aa9
 8108a20:	08108aa9 	.word	0x08108aa9
 8108a24:	08108aa9 	.word	0x08108aa9
 8108a28:	08108a9b 	.word	0x08108a9b
 8108a2c:	2b40      	cmp	r3, #64	; 0x40
 8108a2e:	d037      	beq.n	8108aa0 <UART_SetConfig+0x6bc>
 8108a30:	e03a      	b.n	8108aa8 <UART_SetConfig+0x6c4>
    {
      case UART_CLOCKSOURCE_D3PCLK1:
        pclk = HAL_RCCEx_GetD3PCLK1Freq();
 8108a32:	f7fd fe35 	bl	81066a0 <HAL_RCCEx_GetD3PCLK1Freq>
 8108a36:	63f8      	str	r0, [r7, #60]	; 0x3c
        break;
 8108a38:	e03c      	b.n	8108ab4 <UART_SetConfig+0x6d0>
      case UART_CLOCKSOURCE_PLL2:
        HAL_RCCEx_GetPLL2ClockFreq(&pll2_clocks);
 8108a3a:	f107 0324 	add.w	r3, r7, #36	; 0x24
 8108a3e:	4618      	mov	r0, r3
 8108a40:	f7fd fe44 	bl	81066cc <HAL_RCCEx_GetPLL2ClockFreq>
        pclk = pll2_clocks.PLL2_Q_Frequency;
 8108a44:	6abb      	ldr	r3, [r7, #40]	; 0x28
 8108a46:	63fb      	str	r3, [r7, #60]	; 0x3c
        break;
 8108a48:	e034      	b.n	8108ab4 <UART_SetConfig+0x6d0>
      case UART_CLOCKSOURCE_PLL3:
        HAL_RCCEx_GetPLL3ClockFreq(&pll3_clocks);
 8108a4a:	f107 0318 	add.w	r3, r7, #24
 8108a4e:	4618      	mov	r0, r3
 8108a50:	f7fd ff90 	bl	8106974 <HAL_RCCEx_GetPLL3ClockFreq>
        pclk = pll3_clocks.PLL3_Q_Frequency;
 8108a54:	69fb      	ldr	r3, [r7, #28]
 8108a56:	63fb      	str	r3, [r7, #60]	; 0x3c
        break;
 8108a58:	e02c      	b.n	8108ab4 <UART_SetConfig+0x6d0>
      case UART_CLOCKSOURCE_HSI:
        if (__HAL_RCC_GET_FLAG(RCC_FLAG_HSIDIV) != 0U)
 8108a5a:	4b09      	ldr	r3, [pc, #36]	; (8108a80 <UART_SetConfig+0x69c>)
 8108a5c:	681b      	ldr	r3, [r3, #0]
 8108a5e:	f003 0320 	and.w	r3, r3, #32
 8108a62:	2b00      	cmp	r3, #0
 8108a64:	d016      	beq.n	8108a94 <UART_SetConfig+0x6b0>
        {
          pclk = (uint32_t)(HSI_VALUE >> (__HAL_RCC_GET_HSI_DIVIDER() >> 3U));
 8108a66:	4b06      	ldr	r3, [pc, #24]	; (8108a80 <UART_SetConfig+0x69c>)
 8108a68:	681b      	ldr	r3, [r3, #0]
 8108a6a:	08db      	lsrs	r3, r3, #3
 8108a6c:	f003 0303 	and.w	r3, r3, #3
 8108a70:	4a07      	ldr	r2, [pc, #28]	; (8108a90 <UART_SetConfig+0x6ac>)
 8108a72:	fa22 f303 	lsr.w	r3, r2, r3
 8108a76:	63fb      	str	r3, [r7, #60]	; 0x3c
        }
        else
        {
          pclk = (uint32_t) HSI_VALUE;
        }
        break;
 8108a78:	e01c      	b.n	8108ab4 <UART_SetConfig+0x6d0>
 8108a7a:	bf00      	nop
 8108a7c:	40011400 	.word	0x40011400
 8108a80:	58024400 	.word	0x58024400
 8108a84:	40007800 	.word	0x40007800
 8108a88:	40007c00 	.word	0x40007c00
 8108a8c:	58000c00 	.word	0x58000c00
 8108a90:	03d09000 	.word	0x03d09000
          pclk = (uint32_t) HSI_VALUE;
 8108a94:	4b9d      	ldr	r3, [pc, #628]	; (8108d0c <UART_SetConfig+0x928>)
 8108a96:	63fb      	str	r3, [r7, #60]	; 0x3c
        break;
 8108a98:	e00c      	b.n	8108ab4 <UART_SetConfig+0x6d0>
      case UART_CLOCKSOURCE_CSI:
        pclk = (uint32_t) CSI_VALUE;
 8108a9a:	4b9d      	ldr	r3, [pc, #628]	; (8108d10 <UART_SetConfig+0x92c>)
 8108a9c:	63fb      	str	r3, [r7, #60]	; 0x3c
        break;
 8108a9e:	e009      	b.n	8108ab4 <UART_SetConfig+0x6d0>
      case UART_CLOCKSOURCE_LSE:
        pclk = (uint32_t) LSE_VALUE;
 8108aa0:	f44f 4300 	mov.w	r3, #32768	; 0x8000
 8108aa4:	63fb      	str	r3, [r7, #60]	; 0x3c
        break;
 8108aa6:	e005      	b.n	8108ab4 <UART_SetConfig+0x6d0>
      default:
        pclk = 0U;
 8108aa8:	2300      	movs	r3, #0
 8108aaa:	63fb      	str	r3, [r7, #60]	; 0x3c
        ret = HAL_ERROR;
 8108aac:	2301      	movs	r3, #1
 8108aae:	f887 3042 	strb.w	r3, [r7, #66]	; 0x42
        break;
 8108ab2:	bf00      	nop
    }

    /* If proper clock source reported */
    if (pclk != 0U)
 8108ab4:	6bfb      	ldr	r3, [r7, #60]	; 0x3c
 8108ab6:	2b00      	cmp	r3, #0
 8108ab8:	f000 81de 	beq.w	8108e78 <UART_SetConfig+0xa94>
    {
      /* Compute clock after Prescaler */
      lpuart_ker_ck_pres = (pclk / UARTPrescTable[huart->Init.ClockPrescaler]);
 8108abc:	697b      	ldr	r3, [r7, #20]
 8108abe:	6a5b      	ldr	r3, [r3, #36]	; 0x24
 8108ac0:	4a94      	ldr	r2, [pc, #592]	; (8108d14 <UART_SetConfig+0x930>)
 8108ac2:	f832 3013 	ldrh.w	r3, [r2, r3, lsl #1]
 8108ac6:	461a      	mov	r2, r3
 8108ac8:	6bfb      	ldr	r3, [r7, #60]	; 0x3c
 8108aca:	fbb3 f3f2 	udiv	r3, r3, r2
 8108ace:	633b      	str	r3, [r7, #48]	; 0x30

      /* Ensure that Frequency clock is in the range [3 * baudrate, 4096 * baudrate] */
      if ((lpuart_ker_ck_pres < (3U * huart->Init.BaudRate)) ||
 8108ad0:	697b      	ldr	r3, [r7, #20]
 8108ad2:	685a      	ldr	r2, [r3, #4]
 8108ad4:	4613      	mov	r3, r2
 8108ad6:	005b      	lsls	r3, r3, #1
 8108ad8:	4413      	add	r3, r2
 8108ada:	6b3a      	ldr	r2, [r7, #48]	; 0x30
 8108adc:	429a      	cmp	r2, r3
 8108ade:	d305      	bcc.n	8108aec <UART_SetConfig+0x708>
          (lpuart_ker_ck_pres > (4096U * huart->Init.BaudRate)))
 8108ae0:	697b      	ldr	r3, [r7, #20]
 8108ae2:	685b      	ldr	r3, [r3, #4]
 8108ae4:	031b      	lsls	r3, r3, #12
      if ((lpuart_ker_ck_pres < (3U * huart->Init.BaudRate)) ||
 8108ae6:	6b3a      	ldr	r2, [r7, #48]	; 0x30
 8108ae8:	429a      	cmp	r2, r3
 8108aea:	d903      	bls.n	8108af4 <UART_SetConfig+0x710>
      {
        ret = HAL_ERROR;
 8108aec:	2301      	movs	r3, #1
 8108aee:	f887 3042 	strb.w	r3, [r7, #66]	; 0x42
 8108af2:	e1c1      	b.n	8108e78 <UART_SetConfig+0xa94>
      }
      else
      {
        /* Check computed UsartDiv value is in allocated range
           (it is forbidden to write values lower than 0x300 in the LPUART_BRR register) */
        usartdiv = (uint32_t)(UART_DIV_LPUART(pclk, huart->Init.BaudRate, huart->Init.ClockPrescaler));
 8108af4:	6bfb      	ldr	r3, [r7, #60]	; 0x3c
 8108af6:	2200      	movs	r2, #0
 8108af8:	60bb      	str	r3, [r7, #8]
 8108afa:	60fa      	str	r2, [r7, #12]
 8108afc:	697b      	ldr	r3, [r7, #20]
 8108afe:	6a5b      	ldr	r3, [r3, #36]	; 0x24
 8108b00:	4a84      	ldr	r2, [pc, #528]	; (8108d14 <UART_SetConfig+0x930>)
 8108b02:	f832 3013 	ldrh.w	r3, [r2, r3, lsl #1]
 8108b06:	b29b      	uxth	r3, r3
 8108b08:	2200      	movs	r2, #0
 8108b0a:	603b      	str	r3, [r7, #0]
 8108b0c:	607a      	str	r2, [r7, #4]
 8108b0e:	e9d7 2300 	ldrd	r2, r3, [r7]
 8108b12:	e9d7 0102 	ldrd	r0, r1, [r7, #8]
 8108b16:	f7f7 feef 	bl	81008f8 <__aeabi_uldivmod>
 8108b1a:	4602      	mov	r2, r0
 8108b1c:	460b      	mov	r3, r1
 8108b1e:	4610      	mov	r0, r2
 8108b20:	4619      	mov	r1, r3
 8108b22:	f04f 0200 	mov.w	r2, #0
 8108b26:	f04f 0300 	mov.w	r3, #0
 8108b2a:	020b      	lsls	r3, r1, #8
 8108b2c:	ea43 6310 	orr.w	r3, r3, r0, lsr #24
 8108b30:	0202      	lsls	r2, r0, #8
 8108b32:	6979      	ldr	r1, [r7, #20]
 8108b34:	6849      	ldr	r1, [r1, #4]
 8108b36:	0849      	lsrs	r1, r1, #1
 8108b38:	2000      	movs	r0, #0
 8108b3a:	460c      	mov	r4, r1
 8108b3c:	4605      	mov	r5, r0
 8108b3e:	eb12 0804 	adds.w	r8, r2, r4
 8108b42:	eb43 0905 	adc.w	r9, r3, r5
 8108b46:	697b      	ldr	r3, [r7, #20]
 8108b48:	685b      	ldr	r3, [r3, #4]
 8108b4a:	2200      	movs	r2, #0
 8108b4c:	469a      	mov	sl, r3
 8108b4e:	4693      	mov	fp, r2
 8108b50:	4652      	mov	r2, sl
 8108b52:	465b      	mov	r3, fp
 8108b54:	4640      	mov	r0, r8
 8108b56:	4649      	mov	r1, r9
 8108b58:	f7f7 fece 	bl	81008f8 <__aeabi_uldivmod>
 8108b5c:	4602      	mov	r2, r0
 8108b5e:	460b      	mov	r3, r1
 8108b60:	4613      	mov	r3, r2
 8108b62:	63bb      	str	r3, [r7, #56]	; 0x38
        if ((usartdiv >= LPUART_BRR_MIN) && (usartdiv <= LPUART_BRR_MAX))
 8108b64:	6bbb      	ldr	r3, [r7, #56]	; 0x38
 8108b66:	f5b3 7f40 	cmp.w	r3, #768	; 0x300
 8108b6a:	d308      	bcc.n	8108b7e <UART_SetConfig+0x79a>
 8108b6c:	6bbb      	ldr	r3, [r7, #56]	; 0x38
 8108b6e:	f5b3 1f80 	cmp.w	r3, #1048576	; 0x100000
 8108b72:	d204      	bcs.n	8108b7e <UART_SetConfig+0x79a>
        {
          huart->Instance->BRR = usartdiv;
 8108b74:	697b      	ldr	r3, [r7, #20]
 8108b76:	681b      	ldr	r3, [r3, #0]
 8108b78:	6bba      	ldr	r2, [r7, #56]	; 0x38
 8108b7a:	60da      	str	r2, [r3, #12]
 8108b7c:	e17c      	b.n	8108e78 <UART_SetConfig+0xa94>
        }
        else
        {
          ret = HAL_ERROR;
 8108b7e:	2301      	movs	r3, #1
 8108b80:	f887 3042 	strb.w	r3, [r7, #66]	; 0x42
 8108b84:	e178      	b.n	8108e78 <UART_SetConfig+0xa94>
      } /* if ( (lpuart_ker_ck_pres < (3 * huart->Init.BaudRate) ) ||
                (lpuart_ker_ck_pres > (4096 * huart->Init.BaudRate) )) */
    } /* if (pclk != 0) */
  }
  /* Check UART Over Sampling to set Baud Rate Register */
  else if (huart->Init.OverSampling == UART_OVERSAMPLING_8)
 8108b86:	697b      	ldr	r3, [r7, #20]
 8108b88:	69db      	ldr	r3, [r3, #28]
 8108b8a:	f5b3 4f00 	cmp.w	r3, #32768	; 0x8000
 8108b8e:	f040 80c5 	bne.w	8108d1c <UART_SetConfig+0x938>
  {
    switch (clocksource)
 8108b92:	f897 3043 	ldrb.w	r3, [r7, #67]	; 0x43
 8108b96:	2b20      	cmp	r3, #32
 8108b98:	dc48      	bgt.n	8108c2c <UART_SetConfig+0x848>
 8108b9a:	2b00      	cmp	r3, #0
 8108b9c:	db7b      	blt.n	8108c96 <UART_SetConfig+0x8b2>
 8108b9e:	2b20      	cmp	r3, #32
 8108ba0:	d879      	bhi.n	8108c96 <UART_SetConfig+0x8b2>
 8108ba2:	a201      	add	r2, pc, #4	; (adr r2, 8108ba8 <UART_SetConfig+0x7c4>)
 8108ba4:	f852 f023 	ldr.w	pc, [r2, r3, lsl #2]
 8108ba8:	08108c33 	.word	0x08108c33
 8108bac:	08108c3b 	.word	0x08108c3b
 8108bb0:	08108c97 	.word	0x08108c97
 8108bb4:	08108c97 	.word	0x08108c97
 8108bb8:	08108c43 	.word	0x08108c43
 8108bbc:	08108c97 	.word	0x08108c97
 8108bc0:	08108c97 	.word	0x08108c97
 8108bc4:	08108c97 	.word	0x08108c97
 8108bc8:	08108c53 	.word	0x08108c53
 8108bcc:	08108c97 	.word	0x08108c97
 8108bd0:	08108c97 	.word	0x08108c97
 8108bd4:	08108c97 	.word	0x08108c97
 8108bd8:	08108c97 	.word	0x08108c97
 8108bdc:	08108c97 	.word	0x08108c97
 8108be0:	08108c97 	.word	0x08108c97
 8108be4:	08108c97 	.word	0x08108c97
 8108be8:	08108c63 	.word	0x08108c63
 8108bec:	08108c97 	.word	0x08108c97
 8108bf0:	08108c97 	.word	0x08108c97
 8108bf4:	08108c97 	.word	0x08108c97
 8108bf8:	08108c97 	.word	0x08108c97
 8108bfc:	08108c97 	.word	0x08108c97
 8108c00:	08108c97 	.word	0x08108c97
 8108c04:	08108c97 	.word	0x08108c97
 8108c08:	08108c97 	.word	0x08108c97
 8108c0c:	08108c97 	.word	0x08108c97
 8108c10:	08108c97 	.word	0x08108c97
 8108c14:	08108c97 	.word	0x08108c97
 8108c18:	08108c97 	.word	0x08108c97
 8108c1c:	08108c97 	.word	0x08108c97
 8108c20:	08108c97 	.word	0x08108c97
 8108c24:	08108c97 	.word	0x08108c97
 8108c28:	08108c89 	.word	0x08108c89
 8108c2c:	2b40      	cmp	r3, #64	; 0x40
 8108c2e:	d02e      	beq.n	8108c8e <UART_SetConfig+0x8aa>
 8108c30:	e031      	b.n	8108c96 <UART_SetConfig+0x8b2>
    {
      case UART_CLOCKSOURCE_D2PCLK1:
        pclk = HAL_RCC_GetPCLK1Freq();
 8108c32:	f7fc f8f1 	bl	8104e18 <HAL_RCC_GetPCLK1Freq>
 8108c36:	63f8      	str	r0, [r7, #60]	; 0x3c
        break;
 8108c38:	e033      	b.n	8108ca2 <UART_SetConfig+0x8be>
      case UART_CLOCKSOURCE_D2PCLK2:
        pclk = HAL_RCC_GetPCLK2Freq();
 8108c3a:	f7fc f903 	bl	8104e44 <HAL_RCC_GetPCLK2Freq>
 8108c3e:	63f8      	str	r0, [r7, #60]	; 0x3c
        break;
 8108c40:	e02f      	b.n	8108ca2 <UART_SetConfig+0x8be>
      case UART_CLOCKSOURCE_PLL2:
        HAL_RCCEx_GetPLL2ClockFreq(&pll2_clocks);
 8108c42:	f107 0324 	add.w	r3, r7, #36	; 0x24
 8108c46:	4618      	mov	r0, r3
 8108c48:	f7fd fd40 	bl	81066cc <HAL_RCCEx_GetPLL2ClockFreq>
        pclk = pll2_clocks.PLL2_Q_Frequency;
 8108c4c:	6abb      	ldr	r3, [r7, #40]	; 0x28
 8108c4e:	63fb      	str	r3, [r7, #60]	; 0x3c
        break;
 8108c50:	e027      	b.n	8108ca2 <UART_SetConfig+0x8be>
      case UART_CLOCKSOURCE_PLL3:
        HAL_RCCEx_GetPLL3ClockFreq(&pll3_clocks);
 8108c52:	f107 0318 	add.w	r3, r7, #24
 8108c56:	4618      	mov	r0, r3
 8108c58:	f7fd fe8c 	bl	8106974 <HAL_RCCEx_GetPLL3ClockFreq>
        pclk = pll3_clocks.PLL3_Q_Frequency;
 8108c5c:	69fb      	ldr	r3, [r7, #28]
 8108c5e:	63fb      	str	r3, [r7, #60]	; 0x3c
        break;
 8108c60:	e01f      	b.n	8108ca2 <UART_SetConfig+0x8be>
      case UART_CLOCKSOURCE_HSI:
        if (__HAL_RCC_GET_FLAG(RCC_FLAG_HSIDIV) != 0U)
 8108c62:	4b2d      	ldr	r3, [pc, #180]	; (8108d18 <UART_SetConfig+0x934>)
 8108c64:	681b      	ldr	r3, [r3, #0]
 8108c66:	f003 0320 	and.w	r3, r3, #32
 8108c6a:	2b00      	cmp	r3, #0
 8108c6c:	d009      	beq.n	8108c82 <UART_SetConfig+0x89e>
        {
          pclk = (uint32_t)(HSI_VALUE >> (__HAL_RCC_GET_HSI_DIVIDER() >> 3U));
 8108c6e:	4b2a      	ldr	r3, [pc, #168]	; (8108d18 <UART_SetConfig+0x934>)
 8108c70:	681b      	ldr	r3, [r3, #0]
 8108c72:	08db      	lsrs	r3, r3, #3
 8108c74:	f003 0303 	and.w	r3, r3, #3
 8108c78:	4a24      	ldr	r2, [pc, #144]	; (8108d0c <UART_SetConfig+0x928>)
 8108c7a:	fa22 f303 	lsr.w	r3, r2, r3
 8108c7e:	63fb      	str	r3, [r7, #60]	; 0x3c
        }
        else
        {
          pclk = (uint32_t) HSI_VALUE;
        }
        break;
 8108c80:	e00f      	b.n	8108ca2 <UART_SetConfig+0x8be>
          pclk = (uint32_t) HSI_VALUE;
 8108c82:	4b22      	ldr	r3, [pc, #136]	; (8108d0c <UART_SetConfig+0x928>)
 8108c84:	63fb      	str	r3, [r7, #60]	; 0x3c
        break;
 8108c86:	e00c      	b.n	8108ca2 <UART_SetConfig+0x8be>
      case UART_CLOCKSOURCE_CSI:
        pclk = (uint32_t) CSI_VALUE;
 8108c88:	4b21      	ldr	r3, [pc, #132]	; (8108d10 <UART_SetConfig+0x92c>)
 8108c8a:	63fb      	str	r3, [r7, #60]	; 0x3c
        break;
 8108c8c:	e009      	b.n	8108ca2 <UART_SetConfig+0x8be>
      case UART_CLOCKSOURCE_LSE:
        pclk = (uint32_t) LSE_VALUE;
 8108c8e:	f44f 4300 	mov.w	r3, #32768	; 0x8000
 8108c92:	63fb      	str	r3, [r7, #60]	; 0x3c
        break;
 8108c94:	e005      	b.n	8108ca2 <UART_SetConfig+0x8be>
      default:
        pclk = 0U;
 8108c96:	2300      	movs	r3, #0
 8108c98:	63fb      	str	r3, [r7, #60]	; 0x3c
        ret = HAL_ERROR;
 8108c9a:	2301      	movs	r3, #1
 8108c9c:	f887 3042 	strb.w	r3, [r7, #66]	; 0x42
        break;
 8108ca0:	bf00      	nop
    }

    /* USARTDIV must be greater than or equal to 0d16 */
    if (pclk != 0U)
 8108ca2:	6bfb      	ldr	r3, [r7, #60]	; 0x3c
 8108ca4:	2b00      	cmp	r3, #0
 8108ca6:	f000 80e7 	beq.w	8108e78 <UART_SetConfig+0xa94>
    {
      usartdiv = (uint32_t)(UART_DIV_SAMPLING8(pclk, huart->Init.BaudRate, huart->Init.ClockPrescaler));
 8108caa:	697b      	ldr	r3, [r7, #20]
 8108cac:	6a5b      	ldr	r3, [r3, #36]	; 0x24
 8108cae:	4a19      	ldr	r2, [pc, #100]	; (8108d14 <UART_SetConfig+0x930>)
 8108cb0:	f832 3013 	ldrh.w	r3, [r2, r3, lsl #1]
 8108cb4:	461a      	mov	r2, r3
 8108cb6:	6bfb      	ldr	r3, [r7, #60]	; 0x3c
 8108cb8:	fbb3 f3f2 	udiv	r3, r3, r2
 8108cbc:	005a      	lsls	r2, r3, #1
 8108cbe:	697b      	ldr	r3, [r7, #20]
 8108cc0:	685b      	ldr	r3, [r3, #4]
 8108cc2:	085b      	lsrs	r3, r3, #1
 8108cc4:	441a      	add	r2, r3
 8108cc6:	697b      	ldr	r3, [r7, #20]
 8108cc8:	685b      	ldr	r3, [r3, #4]
 8108cca:	fbb2 f3f3 	udiv	r3, r2, r3
 8108cce:	63bb      	str	r3, [r7, #56]	; 0x38
      if ((usartdiv >= UART_BRR_MIN) && (usartdiv <= UART_BRR_MAX))
 8108cd0:	6bbb      	ldr	r3, [r7, #56]	; 0x38
 8108cd2:	2b0f      	cmp	r3, #15
 8108cd4:	d916      	bls.n	8108d04 <UART_SetConfig+0x920>
 8108cd6:	6bbb      	ldr	r3, [r7, #56]	; 0x38
 8108cd8:	f5b3 3f80 	cmp.w	r3, #65536	; 0x10000
 8108cdc:	d212      	bcs.n	8108d04 <UART_SetConfig+0x920>
      {
        brrtemp = (uint16_t)(usartdiv & 0xFFF0U);
 8108cde:	6bbb      	ldr	r3, [r7, #56]	; 0x38
 8108ce0:	b29b      	uxth	r3, r3
 8108ce2:	f023 030f 	bic.w	r3, r3, #15
 8108ce6:	86fb      	strh	r3, [r7, #54]	; 0x36
        brrtemp |= (uint16_t)((usartdiv & (uint16_t)0x000FU) >> 1U);
 8108ce8:	6bbb      	ldr	r3, [r7, #56]	; 0x38
 8108cea:	085b      	lsrs	r3, r3, #1
 8108cec:	b29b      	uxth	r3, r3
 8108cee:	f003 0307 	and.w	r3, r3, #7
 8108cf2:	b29a      	uxth	r2, r3
 8108cf4:	8efb      	ldrh	r3, [r7, #54]	; 0x36
 8108cf6:	4313      	orrs	r3, r2
 8108cf8:	86fb      	strh	r3, [r7, #54]	; 0x36
        huart->Instance->BRR = brrtemp;
 8108cfa:	697b      	ldr	r3, [r7, #20]
 8108cfc:	681b      	ldr	r3, [r3, #0]
 8108cfe:	8efa      	ldrh	r2, [r7, #54]	; 0x36
 8108d00:	60da      	str	r2, [r3, #12]
 8108d02:	e0b9      	b.n	8108e78 <UART_SetConfig+0xa94>
      }
      else
      {
        ret = HAL_ERROR;
 8108d04:	2301      	movs	r3, #1
 8108d06:	f887 3042 	strb.w	r3, [r7, #66]	; 0x42
 8108d0a:	e0b5      	b.n	8108e78 <UART_SetConfig+0xa94>
 8108d0c:	03d09000 	.word	0x03d09000
 8108d10:	003d0900 	.word	0x003d0900
 8108d14:	08109dc8 	.word	0x08109dc8
 8108d18:	58024400 	.word	0x58024400
      }
    }
  }
  else
  {
    switch (clocksource)
 8108d1c:	f897 3043 	ldrb.w	r3, [r7, #67]	; 0x43
 8108d20:	2b20      	cmp	r3, #32
 8108d22:	dc49      	bgt.n	8108db8 <UART_SetConfig+0x9d4>
 8108d24:	2b00      	cmp	r3, #0
 8108d26:	db7c      	blt.n	8108e22 <UART_SetConfig+0xa3e>
 8108d28:	2b20      	cmp	r3, #32
 8108d2a:	d87a      	bhi.n	8108e22 <UART_SetConfig+0xa3e>
 8108d2c:	a201      	add	r2, pc, #4	; (adr r2, 8108d34 <UART_SetConfig+0x950>)
 8108d2e:	f852 f023 	ldr.w	pc, [r2, r3, lsl #2]
 8108d32:	bf00      	nop
 8108d34:	08108dbf 	.word	0x08108dbf
 8108d38:	08108dc7 	.word	0x08108dc7
 8108d3c:	08108e23 	.word	0x08108e23
 8108d40:	08108e23 	.word	0x08108e23
 8108d44:	08108dcf 	.word	0x08108dcf
 8108d48:	08108e23 	.word	0x08108e23
 8108d4c:	08108e23 	.word	0x08108e23
 8108d50:	08108e23 	.word	0x08108e23
 8108d54:	08108ddf 	.word	0x08108ddf
 8108d58:	08108e23 	.word	0x08108e23
 8108d5c:	08108e23 	.word	0x08108e23
 8108d60:	08108e23 	.word	0x08108e23
 8108d64:	08108e23 	.word	0x08108e23
 8108d68:	08108e23 	.word	0x08108e23
 8108d6c:	08108e23 	.word	0x08108e23
 8108d70:	08108e23 	.word	0x08108e23
 8108d74:	08108def 	.word	0x08108def
 8108d78:	08108e23 	.word	0x08108e23
 8108d7c:	08108e23 	.word	0x08108e23
 8108d80:	08108e23 	.word	0x08108e23
 8108d84:	08108e23 	.word	0x08108e23
 8108d88:	08108e23 	.word	0x08108e23
 8108d8c:	08108e23 	.word	0x08108e23
 8108d90:	08108e23 	.word	0x08108e23
 8108d94:	08108e23 	.word	0x08108e23
 8108d98:	08108e23 	.word	0x08108e23
 8108d9c:	08108e23 	.word	0x08108e23
 8108da0:	08108e23 	.word	0x08108e23
 8108da4:	08108e23 	.word	0x08108e23
 8108da8:	08108e23 	.word	0x08108e23
 8108dac:	08108e23 	.word	0x08108e23
 8108db0:	08108e23 	.word	0x08108e23
 8108db4:	08108e15 	.word	0x08108e15
 8108db8:	2b40      	cmp	r3, #64	; 0x40
 8108dba:	d02e      	beq.n	8108e1a <UART_SetConfig+0xa36>
 8108dbc:	e031      	b.n	8108e22 <UART_SetConfig+0xa3e>
    {
      case UART_CLOCKSOURCE_D2PCLK1:
        pclk = HAL_RCC_GetPCLK1Freq();
 8108dbe:	f7fc f82b 	bl	8104e18 <HAL_RCC_GetPCLK1Freq>
 8108dc2:	63f8      	str	r0, [r7, #60]	; 0x3c
        break;
 8108dc4:	e033      	b.n	8108e2e <UART_SetConfig+0xa4a>
      case UART_CLOCKSOURCE_D2PCLK2:
        pclk = HAL_RCC_GetPCLK2Freq();
 8108dc6:	f7fc f83d 	bl	8104e44 <HAL_RCC_GetPCLK2Freq>
 8108dca:	63f8      	str	r0, [r7, #60]	; 0x3c
        break;
 8108dcc:	e02f      	b.n	8108e2e <UART_SetConfig+0xa4a>
      case UART_CLOCKSOURCE_PLL2:
        HAL_RCCEx_GetPLL2ClockFreq(&pll2_clocks);
 8108dce:	f107 0324 	add.w	r3, r7, #36	; 0x24
 8108dd2:	4618      	mov	r0, r3
 8108dd4:	f7fd fc7a 	bl	81066cc <HAL_RCCEx_GetPLL2ClockFreq>
        pclk = pll2_clocks.PLL2_Q_Frequency;
 8108dd8:	6abb      	ldr	r3, [r7, #40]	; 0x28
 8108dda:	63fb      	str	r3, [r7, #60]	; 0x3c
        break;
 8108ddc:	e027      	b.n	8108e2e <UART_SetConfig+0xa4a>
      case UART_CLOCKSOURCE_PLL3:
        HAL_RCCEx_GetPLL3ClockFreq(&pll3_clocks);
 8108dde:	f107 0318 	add.w	r3, r7, #24
 8108de2:	4618      	mov	r0, r3
 8108de4:	f7fd fdc6 	bl	8106974 <HAL_RCCEx_GetPLL3ClockFreq>
        pclk = pll3_clocks.PLL3_Q_Frequency;
 8108de8:	69fb      	ldr	r3, [r7, #28]
 8108dea:	63fb      	str	r3, [r7, #60]	; 0x3c
        break;
 8108dec:	e01f      	b.n	8108e2e <UART_SetConfig+0xa4a>
      case UART_CLOCKSOURCE_HSI:
        if (__HAL_RCC_GET_FLAG(RCC_FLAG_HSIDIV) != 0U)
 8108dee:	4b2d      	ldr	r3, [pc, #180]	; (8108ea4 <UART_SetConfig+0xac0>)
 8108df0:	681b      	ldr	r3, [r3, #0]
 8108df2:	f003 0320 	and.w	r3, r3, #32
 8108df6:	2b00      	cmp	r3, #0
 8108df8:	d009      	beq.n	8108e0e <UART_SetConfig+0xa2a>
        {
          pclk = (uint32_t)(HSI_VALUE >> (__HAL_RCC_GET_HSI_DIVIDER() >> 3U));
 8108dfa:	4b2a      	ldr	r3, [pc, #168]	; (8108ea4 <UART_SetConfig+0xac0>)
 8108dfc:	681b      	ldr	r3, [r3, #0]
 8108dfe:	08db      	lsrs	r3, r3, #3
 8108e00:	f003 0303 	and.w	r3, r3, #3
 8108e04:	4a28      	ldr	r2, [pc, #160]	; (8108ea8 <UART_SetConfig+0xac4>)
 8108e06:	fa22 f303 	lsr.w	r3, r2, r3
 8108e0a:	63fb      	str	r3, [r7, #60]	; 0x3c
        }
        else
        {
          pclk = (uint32_t) HSI_VALUE;
        }
        break;
 8108e0c:	e00f      	b.n	8108e2e <UART_SetConfig+0xa4a>
          pclk = (uint32_t) HSI_VALUE;
 8108e0e:	4b26      	ldr	r3, [pc, #152]	; (8108ea8 <UART_SetConfig+0xac4>)
 8108e10:	63fb      	str	r3, [r7, #60]	; 0x3c
        break;
 8108e12:	e00c      	b.n	8108e2e <UART_SetConfig+0xa4a>
      case UART_CLOCKSOURCE_CSI:
        pclk = (uint32_t) CSI_VALUE;
 8108e14:	4b25      	ldr	r3, [pc, #148]	; (8108eac <UART_SetConfig+0xac8>)
 8108e16:	63fb      	str	r3, [r7, #60]	; 0x3c
        break;
 8108e18:	e009      	b.n	8108e2e <UART_SetConfig+0xa4a>
      case UART_CLOCKSOURCE_LSE:
        pclk = (uint32_t) LSE_VALUE;
 8108e1a:	f44f 4300 	mov.w	r3, #32768	; 0x8000
 8108e1e:	63fb      	str	r3, [r7, #60]	; 0x3c
        break;
 8108e20:	e005      	b.n	8108e2e <UART_SetConfig+0xa4a>
      default:
        pclk = 0U;
 8108e22:	2300      	movs	r3, #0
 8108e24:	63fb      	str	r3, [r7, #60]	; 0x3c
        ret = HAL_ERROR;
 8108e26:	2301      	movs	r3, #1
 8108e28:	f887 3042 	strb.w	r3, [r7, #66]	; 0x42
        break;
 8108e2c:	bf00      	nop
    }

    if (pclk != 0U)
 8108e2e:	6bfb      	ldr	r3, [r7, #60]	; 0x3c
 8108e30:	2b00      	cmp	r3, #0
 8108e32:	d021      	beq.n	8108e78 <UART_SetConfig+0xa94>
    {
      /* USARTDIV must be greater than or equal to 0d16 */
      usartdiv = (uint32_t)(UART_DIV_SAMPLING16(pclk, huart->Init.BaudRate, huart->Init.ClockPrescaler));
 8108e34:	697b      	ldr	r3, [r7, #20]
 8108e36:	6a5b      	ldr	r3, [r3, #36]	; 0x24
 8108e38:	4a1d      	ldr	r2, [pc, #116]	; (8108eb0 <UART_SetConfig+0xacc>)
 8108e3a:	f832 3013 	ldrh.w	r3, [r2, r3, lsl #1]
 8108e3e:	461a      	mov	r2, r3
 8108e40:	6bfb      	ldr	r3, [r7, #60]	; 0x3c
 8108e42:	fbb3 f2f2 	udiv	r2, r3, r2
 8108e46:	697b      	ldr	r3, [r7, #20]
 8108e48:	685b      	ldr	r3, [r3, #4]
 8108e4a:	085b      	lsrs	r3, r3, #1
 8108e4c:	441a      	add	r2, r3
 8108e4e:	697b      	ldr	r3, [r7, #20]
 8108e50:	685b      	ldr	r3, [r3, #4]
 8108e52:	fbb2 f3f3 	udiv	r3, r2, r3
 8108e56:	63bb      	str	r3, [r7, #56]	; 0x38
      if ((usartdiv >= UART_BRR_MIN) && (usartdiv <= UART_BRR_MAX))
 8108e58:	6bbb      	ldr	r3, [r7, #56]	; 0x38
 8108e5a:	2b0f      	cmp	r3, #15
 8108e5c:	d909      	bls.n	8108e72 <UART_SetConfig+0xa8e>
 8108e5e:	6bbb      	ldr	r3, [r7, #56]	; 0x38
 8108e60:	f5b3 3f80 	cmp.w	r3, #65536	; 0x10000
 8108e64:	d205      	bcs.n	8108e72 <UART_SetConfig+0xa8e>
      {
        huart->Instance->BRR = (uint16_t)usartdiv;
 8108e66:	6bbb      	ldr	r3, [r7, #56]	; 0x38
 8108e68:	b29a      	uxth	r2, r3
 8108e6a:	697b      	ldr	r3, [r7, #20]
 8108e6c:	681b      	ldr	r3, [r3, #0]
 8108e6e:	60da      	str	r2, [r3, #12]
 8108e70:	e002      	b.n	8108e78 <UART_SetConfig+0xa94>
      }
      else
      {
        ret = HAL_ERROR;
 8108e72:	2301      	movs	r3, #1
 8108e74:	f887 3042 	strb.w	r3, [r7, #66]	; 0x42
      }
    }
  }

  /* Initialize the number of data to process during RX/TX ISR execution */
  huart->NbTxDataToProcess = 1;
 8108e78:	697b      	ldr	r3, [r7, #20]
 8108e7a:	2201      	movs	r2, #1
 8108e7c:	f8a3 206a 	strh.w	r2, [r3, #106]	; 0x6a
  huart->NbRxDataToProcess = 1;
 8108e80:	697b      	ldr	r3, [r7, #20]
 8108e82:	2201      	movs	r2, #1
 8108e84:	f8a3 2068 	strh.w	r2, [r3, #104]	; 0x68

  /* Clear ISR function pointers */
  huart->RxISR = NULL;
 8108e88:	697b      	ldr	r3, [r7, #20]
 8108e8a:	2200      	movs	r2, #0
 8108e8c:	671a      	str	r2, [r3, #112]	; 0x70
  huart->TxISR = NULL;
 8108e8e:	697b      	ldr	r3, [r7, #20]
 8108e90:	2200      	movs	r2, #0
 8108e92:	675a      	str	r2, [r3, #116]	; 0x74

  return ret;
 8108e94:	f897 3042 	ldrb.w	r3, [r7, #66]	; 0x42
}
 8108e98:	4618      	mov	r0, r3
 8108e9a:	3748      	adds	r7, #72	; 0x48
 8108e9c:	46bd      	mov	sp, r7
 8108e9e:	e8bd 8fb0 	ldmia.w	sp!, {r4, r5, r7, r8, r9, sl, fp, pc}
 8108ea2:	bf00      	nop
 8108ea4:	58024400 	.word	0x58024400
 8108ea8:	03d09000 	.word	0x03d09000
 8108eac:	003d0900 	.word	0x003d0900
 8108eb0:	08109dc8 	.word	0x08109dc8

08108eb4 <UART_AdvFeatureConfig>:
  * @brief Configure the UART peripheral advanced features.
  * @param huart UART handle.
  * @retval None
  */
void UART_AdvFeatureConfig(UART_HandleTypeDef *huart)
{
 8108eb4:	b480      	push	{r7}
 8108eb6:	b083      	sub	sp, #12
 8108eb8:	af00      	add	r7, sp, #0
 8108eba:	6078      	str	r0, [r7, #4]
  /* Check whether the set of advanced features to configure is properly set */
  assert_param(IS_UART_ADVFEATURE_INIT(huart->AdvancedInit.AdvFeatureInit));

  /* if required, configure TX pin active level inversion */
  if (HAL_IS_BIT_SET(huart->AdvancedInit.AdvFeatureInit, UART_ADVFEATURE_TXINVERT_INIT))
 8108ebc:	687b      	ldr	r3, [r7, #4]
 8108ebe:	6a9b      	ldr	r3, [r3, #40]	; 0x28
 8108ec0:	f003 0301 	and.w	r3, r3, #1
 8108ec4:	2b00      	cmp	r3, #0
 8108ec6:	d00a      	beq.n	8108ede <UART_AdvFeatureConfig+0x2a>
  {
    assert_param(IS_UART_ADVFEATURE_TXINV(huart->AdvancedInit.TxPinLevelInvert));
    MODIFY_REG(huart->Instance->CR2, USART_CR2_TXINV, huart->AdvancedInit.TxPinLevelInvert);
 8108ec8:	687b      	ldr	r3, [r7, #4]
 8108eca:	681b      	ldr	r3, [r3, #0]
 8108ecc:	685b      	ldr	r3, [r3, #4]
 8108ece:	f423 3100 	bic.w	r1, r3, #131072	; 0x20000
 8108ed2:	687b      	ldr	r3, [r7, #4]
 8108ed4:	6ada      	ldr	r2, [r3, #44]	; 0x2c
 8108ed6:	687b      	ldr	r3, [r7, #4]
 8108ed8:	681b      	ldr	r3, [r3, #0]
 8108eda:	430a      	orrs	r2, r1
 8108edc:	605a      	str	r2, [r3, #4]
  }

  /* if required, configure RX pin active level inversion */
  if (HAL_IS_BIT_SET(huart->AdvancedInit.AdvFeatureInit, UART_ADVFEATURE_RXINVERT_INIT))
 8108ede:	687b      	ldr	r3, [r7, #4]
 8108ee0:	6a9b      	ldr	r3, [r3, #40]	; 0x28
 8108ee2:	f003 0302 	and.w	r3, r3, #2
 8108ee6:	2b00      	cmp	r3, #0
 8108ee8:	d00a      	beq.n	8108f00 <UART_AdvFeatureConfig+0x4c>
  {
    assert_param(IS_UART_ADVFEATURE_RXINV(huart->AdvancedInit.RxPinLevelInvert));
    MODIFY_REG(huart->Instance->CR2, USART_CR2_RXINV, huart->AdvancedInit.RxPinLevelInvert);
 8108eea:	687b      	ldr	r3, [r7, #4]
 8108eec:	681b      	ldr	r3, [r3, #0]
 8108eee:	685b      	ldr	r3, [r3, #4]
 8108ef0:	f423 3180 	bic.w	r1, r3, #65536	; 0x10000
 8108ef4:	687b      	ldr	r3, [r7, #4]
 8108ef6:	6b1a      	ldr	r2, [r3, #48]	; 0x30
 8108ef8:	687b      	ldr	r3, [r7, #4]
 8108efa:	681b      	ldr	r3, [r3, #0]
 8108efc:	430a      	orrs	r2, r1
 8108efe:	605a      	str	r2, [r3, #4]
  }

  /* if required, configure data inversion */
  if (HAL_IS_BIT_SET(huart->AdvancedInit.AdvFeatureInit, UART_ADVFEATURE_DATAINVERT_INIT))
 8108f00:	687b      	ldr	r3, [r7, #4]
 8108f02:	6a9b      	ldr	r3, [r3, #40]	; 0x28
 8108f04:	f003 0304 	and.w	r3, r3, #4
 8108f08:	2b00      	cmp	r3, #0
 8108f0a:	d00a      	beq.n	8108f22 <UART_AdvFeatureConfig+0x6e>
  {
    assert_param(IS_UART_ADVFEATURE_DATAINV(huart->AdvancedInit.DataInvert));
    MODIFY_REG(huart->Instance->CR2, USART_CR2_DATAINV, huart->AdvancedInit.DataInvert);
 8108f0c:	687b      	ldr	r3, [r7, #4]
 8108f0e:	681b      	ldr	r3, [r3, #0]
 8108f10:	685b      	ldr	r3, [r3, #4]
 8108f12:	f423 2180 	bic.w	r1, r3, #262144	; 0x40000
 8108f16:	687b      	ldr	r3, [r7, #4]
 8108f18:	6b5a      	ldr	r2, [r3, #52]	; 0x34
 8108f1a:	687b      	ldr	r3, [r7, #4]
 8108f1c:	681b      	ldr	r3, [r3, #0]
 8108f1e:	430a      	orrs	r2, r1
 8108f20:	605a      	str	r2, [r3, #4]
  }

  /* if required, configure RX/TX pins swap */
  if (HAL_IS_BIT_SET(huart->AdvancedInit.AdvFeatureInit, UART_ADVFEATURE_SWAP_INIT))
 8108f22:	687b      	ldr	r3, [r7, #4]
 8108f24:	6a9b      	ldr	r3, [r3, #40]	; 0x28
 8108f26:	f003 0308 	and.w	r3, r3, #8
 8108f2a:	2b00      	cmp	r3, #0
 8108f2c:	d00a      	beq.n	8108f44 <UART_AdvFeatureConfig+0x90>
  {
    assert_param(IS_UART_ADVFEATURE_SWAP(huart->AdvancedInit.Swap));
    MODIFY_REG(huart->Instance->CR2, USART_CR2_SWAP, huart->AdvancedInit.Swap);
 8108f2e:	687b      	ldr	r3, [r7, #4]
 8108f30:	681b      	ldr	r3, [r3, #0]
 8108f32:	685b      	ldr	r3, [r3, #4]
 8108f34:	f423 4100 	bic.w	r1, r3, #32768	; 0x8000
 8108f38:	687b      	ldr	r3, [r7, #4]
 8108f3a:	6b9a      	ldr	r2, [r3, #56]	; 0x38
 8108f3c:	687b      	ldr	r3, [r7, #4]
 8108f3e:	681b      	ldr	r3, [r3, #0]
 8108f40:	430a      	orrs	r2, r1
 8108f42:	605a      	str	r2, [r3, #4]
  }

  /* if required, configure RX overrun detection disabling */
  if (HAL_IS_BIT_SET(huart->AdvancedInit.AdvFeatureInit, UART_ADVFEATURE_RXOVERRUNDISABLE_INIT))
 8108f44:	687b      	ldr	r3, [r7, #4]
 8108f46:	6a9b      	ldr	r3, [r3, #40]	; 0x28
 8108f48:	f003 0310 	and.w	r3, r3, #16
 8108f4c:	2b00      	cmp	r3, #0
 8108f4e:	d00a      	beq.n	8108f66 <UART_AdvFeatureConfig+0xb2>
  {
    assert_param(IS_UART_OVERRUN(huart->AdvancedInit.OverrunDisable));
    MODIFY_REG(huart->Instance->CR3, USART_CR3_OVRDIS, huart->AdvancedInit.OverrunDisable);
 8108f50:	687b      	ldr	r3, [r7, #4]
 8108f52:	681b      	ldr	r3, [r3, #0]
 8108f54:	689b      	ldr	r3, [r3, #8]
 8108f56:	f423 5180 	bic.w	r1, r3, #4096	; 0x1000
 8108f5a:	687b      	ldr	r3, [r7, #4]
 8108f5c:	6bda      	ldr	r2, [r3, #60]	; 0x3c
 8108f5e:	687b      	ldr	r3, [r7, #4]
 8108f60:	681b      	ldr	r3, [r3, #0]
 8108f62:	430a      	orrs	r2, r1
 8108f64:	609a      	str	r2, [r3, #8]
  }

  /* if required, configure DMA disabling on reception error */
  if (HAL_IS_BIT_SET(huart->AdvancedInit.AdvFeatureInit, UART_ADVFEATURE_DMADISABLEONERROR_INIT))
 8108f66:	687b      	ldr	r3, [r7, #4]
 8108f68:	6a9b      	ldr	r3, [r3, #40]	; 0x28
 8108f6a:	f003 0320 	and.w	r3, r3, #32
 8108f6e:	2b00      	cmp	r3, #0
 8108f70:	d00a      	beq.n	8108f88 <UART_AdvFeatureConfig+0xd4>
  {
    assert_param(IS_UART_ADVFEATURE_DMAONRXERROR(huart->AdvancedInit.DMADisableonRxError));
    MODIFY_REG(huart->Instance->CR3, USART_CR3_DDRE, huart->AdvancedInit.DMADisableonRxError);
 8108f72:	687b      	ldr	r3, [r7, #4]
 8108f74:	681b      	ldr	r3, [r3, #0]
 8108f76:	689b      	ldr	r3, [r3, #8]
 8108f78:	f423 5100 	bic.w	r1, r3, #8192	; 0x2000
 8108f7c:	687b      	ldr	r3, [r7, #4]
 8108f7e:	6c1a      	ldr	r2, [r3, #64]	; 0x40
 8108f80:	687b      	ldr	r3, [r7, #4]
 8108f82:	681b      	ldr	r3, [r3, #0]
 8108f84:	430a      	orrs	r2, r1
 8108f86:	609a      	str	r2, [r3, #8]
  }

  /* if required, configure auto Baud rate detection scheme */
  if (HAL_IS_BIT_SET(huart->AdvancedInit.AdvFeatureInit, UART_ADVFEATURE_AUTOBAUDRATE_INIT))
 8108f88:	687b      	ldr	r3, [r7, #4]
 8108f8a:	6a9b      	ldr	r3, [r3, #40]	; 0x28
 8108f8c:	f003 0340 	and.w	r3, r3, #64	; 0x40
 8108f90:	2b00      	cmp	r3, #0
 8108f92:	d01a      	beq.n	8108fca <UART_AdvFeatureConfig+0x116>
  {
    assert_param(IS_USART_AUTOBAUDRATE_DETECTION_INSTANCE(huart->Instance));
    assert_param(IS_UART_ADVFEATURE_AUTOBAUDRATE(huart->AdvancedInit.AutoBaudRateEnable));
    MODIFY_REG(huart->Instance->CR2, USART_CR2_ABREN, huart->AdvancedInit.AutoBaudRateEnable);
 8108f94:	687b      	ldr	r3, [r7, #4]
 8108f96:	681b      	ldr	r3, [r3, #0]
 8108f98:	685b      	ldr	r3, [r3, #4]
 8108f9a:	f423 1180 	bic.w	r1, r3, #1048576	; 0x100000
 8108f9e:	687b      	ldr	r3, [r7, #4]
 8108fa0:	6c5a      	ldr	r2, [r3, #68]	; 0x44
 8108fa2:	687b      	ldr	r3, [r7, #4]
 8108fa4:	681b      	ldr	r3, [r3, #0]
 8108fa6:	430a      	orrs	r2, r1
 8108fa8:	605a      	str	r2, [r3, #4]
    /* set auto Baudrate detection parameters if detection is enabled */
    if (huart->AdvancedInit.AutoBaudRateEnable == UART_ADVFEATURE_AUTOBAUDRATE_ENABLE)
 8108faa:	687b      	ldr	r3, [r7, #4]
 8108fac:	6c5b      	ldr	r3, [r3, #68]	; 0x44
 8108fae:	f5b3 1f80 	cmp.w	r3, #1048576	; 0x100000
 8108fb2:	d10a      	bne.n	8108fca <UART_AdvFeatureConfig+0x116>
    {
      assert_param(IS_UART_ADVFEATURE_AUTOBAUDRATEMODE(huart->AdvancedInit.AutoBaudRateMode));
      MODIFY_REG(huart->Instance->CR2, USART_CR2_ABRMODE, huart->AdvancedInit.AutoBaudRateMode);
 8108fb4:	687b      	ldr	r3, [r7, #4]
 8108fb6:	681b      	ldr	r3, [r3, #0]
 8108fb8:	685b      	ldr	r3, [r3, #4]
 8108fba:	f423 01c0 	bic.w	r1, r3, #6291456	; 0x600000
 8108fbe:	687b      	ldr	r3, [r7, #4]
 8108fc0:	6c9a      	ldr	r2, [r3, #72]	; 0x48
 8108fc2:	687b      	ldr	r3, [r7, #4]
 8108fc4:	681b      	ldr	r3, [r3, #0]
 8108fc6:	430a      	orrs	r2, r1
 8108fc8:	605a      	str	r2, [r3, #4]
    }
  }

  /* if required, configure MSB first on communication line */
  if (HAL_IS_BIT_SET(huart->AdvancedInit.AdvFeatureInit, UART_ADVFEATURE_MSBFIRST_INIT))
 8108fca:	687b      	ldr	r3, [r7, #4]
 8108fcc:	6a9b      	ldr	r3, [r3, #40]	; 0x28
 8108fce:	f003 0380 	and.w	r3, r3, #128	; 0x80
 8108fd2:	2b00      	cmp	r3, #0
 8108fd4:	d00a      	beq.n	8108fec <UART_AdvFeatureConfig+0x138>
  {
    assert_param(IS_UART_ADVFEATURE_MSBFIRST(huart->AdvancedInit.MSBFirst));
    MODIFY_REG(huart->Instance->CR2, USART_CR2_MSBFIRST, huart->AdvancedInit.MSBFirst);
 8108fd6:	687b      	ldr	r3, [r7, #4]
 8108fd8:	681b      	ldr	r3, [r3, #0]
 8108fda:	685b      	ldr	r3, [r3, #4]
 8108fdc:	f423 2100 	bic.w	r1, r3, #524288	; 0x80000
 8108fe0:	687b      	ldr	r3, [r7, #4]
 8108fe2:	6cda      	ldr	r2, [r3, #76]	; 0x4c
 8108fe4:	687b      	ldr	r3, [r7, #4]
 8108fe6:	681b      	ldr	r3, [r3, #0]
 8108fe8:	430a      	orrs	r2, r1
 8108fea:	605a      	str	r2, [r3, #4]
  }
}
 8108fec:	bf00      	nop
 8108fee:	370c      	adds	r7, #12
 8108ff0:	46bd      	mov	sp, r7
 8108ff2:	f85d 7b04 	ldr.w	r7, [sp], #4
 8108ff6:	4770      	bx	lr

08108ff8 <UART_CheckIdleState>:
  * @brief Check the UART Idle State.
  * @param huart UART handle.
  * @retval HAL status
  */
HAL_StatusTypeDef UART_CheckIdleState(UART_HandleTypeDef *huart)
{
 8108ff8:	b580      	push	{r7, lr}
 8108ffa:	b086      	sub	sp, #24
 8108ffc:	af02      	add	r7, sp, #8
 8108ffe:	6078      	str	r0, [r7, #4]
  uint32_t tickstart;

  /* Initialize the UART ErrorCode */
  huart->ErrorCode = HAL_UART_ERROR_NONE;
 8109000:	687b      	ldr	r3, [r7, #4]
 8109002:	2200      	movs	r2, #0
 8109004:	f8c3 208c 	str.w	r2, [r3, #140]	; 0x8c

  /* Init tickstart for timeout management */
  tickstart = HAL_GetTick();
 8109008:	f7f9 fc80 	bl	810290c <HAL_GetTick>
 810900c:	60f8      	str	r0, [r7, #12]

  /* Check if the Transmitter is enabled */
  if ((huart->Instance->CR1 & USART_CR1_TE) == USART_CR1_TE)
 810900e:	687b      	ldr	r3, [r7, #4]
 8109010:	681b      	ldr	r3, [r3, #0]
 8109012:	681b      	ldr	r3, [r3, #0]
 8109014:	f003 0308 	and.w	r3, r3, #8
 8109018:	2b08      	cmp	r3, #8
 810901a:	d10e      	bne.n	810903a <UART_CheckIdleState+0x42>
  {
    /* Wait until TEACK flag is set */
    if (UART_WaitOnFlagUntilTimeout(huart, USART_ISR_TEACK, RESET, tickstart, HAL_UART_TIMEOUT_VALUE) != HAL_OK)
 810901c:	f06f 437e 	mvn.w	r3, #4261412864	; 0xfe000000
 8109020:	9300      	str	r3, [sp, #0]
 8109022:	68fb      	ldr	r3, [r7, #12]
 8109024:	2200      	movs	r2, #0
 8109026:	f44f 1100 	mov.w	r1, #2097152	; 0x200000
 810902a:	6878      	ldr	r0, [r7, #4]
 810902c:	f000 f82f 	bl	810908e <UART_WaitOnFlagUntilTimeout>
 8109030:	4603      	mov	r3, r0
 8109032:	2b00      	cmp	r3, #0
 8109034:	d001      	beq.n	810903a <UART_CheckIdleState+0x42>
    {
      /* Timeout occurred */
      return HAL_TIMEOUT;
 8109036:	2303      	movs	r3, #3
 8109038:	e025      	b.n	8109086 <UART_CheckIdleState+0x8e>
    }
  }

  /* Check if the Receiver is enabled */
  if ((huart->Instance->CR1 & USART_CR1_RE) == USART_CR1_RE)
 810903a:	687b      	ldr	r3, [r7, #4]
 810903c:	681b      	ldr	r3, [r3, #0]
 810903e:	681b      	ldr	r3, [r3, #0]
 8109040:	f003 0304 	and.w	r3, r3, #4
 8109044:	2b04      	cmp	r3, #4
 8109046:	d10e      	bne.n	8109066 <UART_CheckIdleState+0x6e>
  {
    /* Wait until REACK flag is set */
    if (UART_WaitOnFlagUntilTimeout(huart, USART_ISR_REACK, RESET, tickstart, HAL_UART_TIMEOUT_VALUE) != HAL_OK)
 8109048:	f06f 437e 	mvn.w	r3, #4261412864	; 0xfe000000
 810904c:	9300      	str	r3, [sp, #0]
 810904e:	68fb      	ldr	r3, [r7, #12]
 8109050:	2200      	movs	r2, #0
 8109052:	f44f 0180 	mov.w	r1, #4194304	; 0x400000
 8109056:	6878      	ldr	r0, [r7, #4]
 8109058:	f000 f819 	bl	810908e <UART_WaitOnFlagUntilTimeout>
 810905c:	4603      	mov	r3, r0
 810905e:	2b00      	cmp	r3, #0
 8109060:	d001      	beq.n	8109066 <UART_CheckIdleState+0x6e>
    {
      /* Timeout occurred */
      return HAL_TIMEOUT;
 8109062:	2303      	movs	r3, #3
 8109064:	e00f      	b.n	8109086 <UART_CheckIdleState+0x8e>
    }
  }

  /* Initialize the UART State */
  huart->gState = HAL_UART_STATE_READY;
 8109066:	687b      	ldr	r3, [r7, #4]
 8109068:	2220      	movs	r2, #32
 810906a:	f8c3 2084 	str.w	r2, [r3, #132]	; 0x84
  huart->RxState = HAL_UART_STATE_READY;
 810906e:	687b      	ldr	r3, [r7, #4]
 8109070:	2220      	movs	r2, #32
 8109072:	f8c3 2088 	str.w	r2, [r3, #136]	; 0x88
  huart->ReceptionType = HAL_UART_RECEPTION_STANDARD;
 8109076:	687b      	ldr	r3, [r7, #4]
 8109078:	2200      	movs	r2, #0
 810907a:	66da      	str	r2, [r3, #108]	; 0x6c

  __HAL_UNLOCK(huart);
 810907c:	687b      	ldr	r3, [r7, #4]
 810907e:	2200      	movs	r2, #0
 8109080:	f883 2080 	strb.w	r2, [r3, #128]	; 0x80

  return HAL_OK;
 8109084:	2300      	movs	r3, #0
}
 8109086:	4618      	mov	r0, r3
 8109088:	3710      	adds	r7, #16
 810908a:	46bd      	mov	sp, r7
 810908c:	bd80      	pop	{r7, pc}

0810908e <UART_WaitOnFlagUntilTimeout>:
  * @param Timeout   Timeout duration
  * @retval HAL status
  */
HAL_StatusTypeDef UART_WaitOnFlagUntilTimeout(UART_HandleTypeDef *huart, uint32_t Flag, FlagStatus Status,
                                              uint32_t Tickstart, uint32_t Timeout)
{
 810908e:	b580      	push	{r7, lr}
 8109090:	b09c      	sub	sp, #112	; 0x70
 8109092:	af00      	add	r7, sp, #0
 8109094:	60f8      	str	r0, [r7, #12]
 8109096:	60b9      	str	r1, [r7, #8]
 8109098:	603b      	str	r3, [r7, #0]
 810909a:	4613      	mov	r3, r2
 810909c:	71fb      	strb	r3, [r7, #7]
  /* Wait until flag is set */
  while ((__HAL_UART_GET_FLAG(huart, Flag) ? SET : RESET) == Status)
 810909e:	e0a9      	b.n	81091f4 <UART_WaitOnFlagUntilTimeout+0x166>
  {
    /* Check for the Timeout */
    if (Timeout != HAL_MAX_DELAY)
 81090a0:	6fbb      	ldr	r3, [r7, #120]	; 0x78
 81090a2:	f1b3 3fff 	cmp.w	r3, #4294967295
 81090a6:	f000 80a5 	beq.w	81091f4 <UART_WaitOnFlagUntilTimeout+0x166>
    {
      if (((HAL_GetTick() - Tickstart) > Timeout) || (Timeout == 0U))
 81090aa:	f7f9 fc2f 	bl	810290c <HAL_GetTick>
 81090ae:	4602      	mov	r2, r0
 81090b0:	683b      	ldr	r3, [r7, #0]
 81090b2:	1ad3      	subs	r3, r2, r3
 81090b4:	6fba      	ldr	r2, [r7, #120]	; 0x78
 81090b6:	429a      	cmp	r2, r3
 81090b8:	d302      	bcc.n	81090c0 <UART_WaitOnFlagUntilTimeout+0x32>
 81090ba:	6fbb      	ldr	r3, [r7, #120]	; 0x78
 81090bc:	2b00      	cmp	r3, #0
 81090be:	d140      	bne.n	8109142 <UART_WaitOnFlagUntilTimeout+0xb4>
      {
        /* Disable TXE, RXNE, PE and ERR (Frame error, noise error, overrun error)
           interrupts for the interrupt process */
        ATOMIC_CLEAR_BIT(huart->Instance->CR1, (USART_CR1_RXNEIE_RXFNEIE | USART_CR1_PEIE |
 81090c0:	68fb      	ldr	r3, [r7, #12]
 81090c2:	681b      	ldr	r3, [r3, #0]
 81090c4:	653b      	str	r3, [r7, #80]	; 0x50
 */
__STATIC_FORCEINLINE uint32_t __LDREXW(volatile uint32_t *addr)
{
    uint32_t result;

   __ASM volatile ("ldrex %0, %1" : "=r" (result) : "Q" (*addr) );
 81090c6:	6d3b      	ldr	r3, [r7, #80]	; 0x50
 81090c8:	e853 3f00 	ldrex	r3, [r3]
 81090cc:	64fb      	str	r3, [r7, #76]	; 0x4c
   return(result);
 81090ce:	6cfb      	ldr	r3, [r7, #76]	; 0x4c
 81090d0:	f423 73d0 	bic.w	r3, r3, #416	; 0x1a0
 81090d4:	667b      	str	r3, [r7, #100]	; 0x64
 81090d6:	68fb      	ldr	r3, [r7, #12]
 81090d8:	681b      	ldr	r3, [r3, #0]
 81090da:	461a      	mov	r2, r3
 81090dc:	6e7b      	ldr	r3, [r7, #100]	; 0x64
 81090de:	65fb      	str	r3, [r7, #92]	; 0x5c
 81090e0:	65ba      	str	r2, [r7, #88]	; 0x58
 */
__STATIC_FORCEINLINE uint32_t __STREXW(uint32_t value, volatile uint32_t *addr)
{
   uint32_t result;

   __ASM volatile ("strex %0, %2, %1" : "=&r" (result), "=Q" (*addr) : "r" (value) );
 81090e2:	6db9      	ldr	r1, [r7, #88]	; 0x58
 81090e4:	6dfa      	ldr	r2, [r7, #92]	; 0x5c
 81090e6:	e841 2300 	strex	r3, r2, [r1]
 81090ea:	657b      	str	r3, [r7, #84]	; 0x54
   return(result);
 81090ec:	6d7b      	ldr	r3, [r7, #84]	; 0x54
 81090ee:	2b00      	cmp	r3, #0
 81090f0:	d1e6      	bne.n	81090c0 <UART_WaitOnFlagUntilTimeout+0x32>
                                                USART_CR1_TXEIE_TXFNFIE));
        ATOMIC_CLEAR_BIT(huart->Instance->CR3, USART_CR3_EIE);
 81090f2:	68fb      	ldr	r3, [r7, #12]
 81090f4:	681b      	ldr	r3, [r3, #0]
 81090f6:	3308      	adds	r3, #8
 81090f8:	63fb      	str	r3, [r7, #60]	; 0x3c
   __ASM volatile ("ldrex %0, %1" : "=r" (result) : "Q" (*addr) );
 81090fa:	6bfb      	ldr	r3, [r7, #60]	; 0x3c
 81090fc:	e853 3f00 	ldrex	r3, [r3]
 8109100:	63bb      	str	r3, [r7, #56]	; 0x38
   return(result);
 8109102:	6bbb      	ldr	r3, [r7, #56]	; 0x38
 8109104:	f023 0301 	bic.w	r3, r3, #1
 8109108:	663b      	str	r3, [r7, #96]	; 0x60
 810910a:	68fb      	ldr	r3, [r7, #12]
 810910c:	681b      	ldr	r3, [r3, #0]
 810910e:	3308      	adds	r3, #8
 8109110:	6e3a      	ldr	r2, [r7, #96]	; 0x60
 8109112:	64ba      	str	r2, [r7, #72]	; 0x48
 8109114:	647b      	str	r3, [r7, #68]	; 0x44
   __ASM volatile ("strex %0, %2, %1" : "=&r" (result), "=Q" (*addr) : "r" (value) );
 8109116:	6c79      	ldr	r1, [r7, #68]	; 0x44
 8109118:	6cba      	ldr	r2, [r7, #72]	; 0x48
 810911a:	e841 2300 	strex	r3, r2, [r1]
 810911e:	643b      	str	r3, [r7, #64]	; 0x40
   return(result);
 8109120:	6c3b      	ldr	r3, [r7, #64]	; 0x40
 8109122:	2b00      	cmp	r3, #0
 8109124:	d1e5      	bne.n	81090f2 <UART_WaitOnFlagUntilTimeout+0x64>

        huart->gState = HAL_UART_STATE_READY;
 8109126:	68fb      	ldr	r3, [r7, #12]
 8109128:	2220      	movs	r2, #32
 810912a:	f8c3 2084 	str.w	r2, [r3, #132]	; 0x84
        huart->RxState = HAL_UART_STATE_READY;
 810912e:	68fb      	ldr	r3, [r7, #12]
 8109130:	2220      	movs	r2, #32
 8109132:	f8c3 2088 	str.w	r2, [r3, #136]	; 0x88

        __HAL_UNLOCK(huart);
 8109136:	68fb      	ldr	r3, [r7, #12]
 8109138:	2200      	movs	r2, #0
 810913a:	f883 2080 	strb.w	r2, [r3, #128]	; 0x80

        return HAL_TIMEOUT;
 810913e:	2303      	movs	r3, #3
 8109140:	e069      	b.n	8109216 <UART_WaitOnFlagUntilTimeout+0x188>
      }

      if (READ_BIT(huart->Instance->CR1, USART_CR1_RE) != 0U)
 8109142:	68fb      	ldr	r3, [r7, #12]
 8109144:	681b      	ldr	r3, [r3, #0]
 8109146:	681b      	ldr	r3, [r3, #0]
 8109148:	f003 0304 	and.w	r3, r3, #4
 810914c:	2b00      	cmp	r3, #0
 810914e:	d051      	beq.n	81091f4 <UART_WaitOnFlagUntilTimeout+0x166>
      {
        if (__HAL_UART_GET_FLAG(huart, UART_FLAG_RTOF) == SET)
 8109150:	68fb      	ldr	r3, [r7, #12]
 8109152:	681b      	ldr	r3, [r3, #0]
 8109154:	69db      	ldr	r3, [r3, #28]
 8109156:	f403 6300 	and.w	r3, r3, #2048	; 0x800
 810915a:	f5b3 6f00 	cmp.w	r3, #2048	; 0x800
 810915e:	d149      	bne.n	81091f4 <UART_WaitOnFlagUntilTimeout+0x166>
        {
          /* Clear Receiver Timeout flag*/
          __HAL_UART_CLEAR_FLAG(huart, UART_CLEAR_RTOF);
 8109160:	68fb      	ldr	r3, [r7, #12]
 8109162:	681b      	ldr	r3, [r3, #0]
 8109164:	f44f 6200 	mov.w	r2, #2048	; 0x800
 8109168:	621a      	str	r2, [r3, #32]

          /* Disable TXE, RXNE, PE and ERR (Frame error, noise error, overrun error)
             interrupts for the interrupt process */
          ATOMIC_CLEAR_BIT(huart->Instance->CR1, (USART_CR1_RXNEIE_RXFNEIE | USART_CR1_PEIE |
 810916a:	68fb      	ldr	r3, [r7, #12]
 810916c:	681b      	ldr	r3, [r3, #0]
 810916e:	62bb      	str	r3, [r7, #40]	; 0x28
   __ASM volatile ("ldrex %0, %1" : "=r" (result) : "Q" (*addr) );
 8109170:	6abb      	ldr	r3, [r7, #40]	; 0x28
 8109172:	e853 3f00 	ldrex	r3, [r3]
 8109176:	627b      	str	r3, [r7, #36]	; 0x24
   return(result);
 8109178:	6a7b      	ldr	r3, [r7, #36]	; 0x24
 810917a:	f423 73d0 	bic.w	r3, r3, #416	; 0x1a0
 810917e:	66fb      	str	r3, [r7, #108]	; 0x6c
 8109180:	68fb      	ldr	r3, [r7, #12]
 8109182:	681b      	ldr	r3, [r3, #0]
 8109184:	461a      	mov	r2, r3
 8109186:	6efb      	ldr	r3, [r7, #108]	; 0x6c
 8109188:	637b      	str	r3, [r7, #52]	; 0x34
 810918a:	633a      	str	r2, [r7, #48]	; 0x30
   __ASM volatile ("strex %0, %2, %1" : "=&r" (result), "=Q" (*addr) : "r" (value) );
 810918c:	6b39      	ldr	r1, [r7, #48]	; 0x30
 810918e:	6b7a      	ldr	r2, [r7, #52]	; 0x34
 8109190:	e841 2300 	strex	r3, r2, [r1]
 8109194:	62fb      	str	r3, [r7, #44]	; 0x2c
   return(result);
 8109196:	6afb      	ldr	r3, [r7, #44]	; 0x2c
 8109198:	2b00      	cmp	r3, #0
 810919a:	d1e6      	bne.n	810916a <UART_WaitOnFlagUntilTimeout+0xdc>
                                                  USART_CR1_TXEIE_TXFNFIE));
          ATOMIC_CLEAR_BIT(huart->Instance->CR3, USART_CR3_EIE);
 810919c:	68fb      	ldr	r3, [r7, #12]
 810919e:	681b      	ldr	r3, [r3, #0]
 81091a0:	3308      	adds	r3, #8
 81091a2:	617b      	str	r3, [r7, #20]
   __ASM volatile ("ldrex %0, %1" : "=r" (result) : "Q" (*addr) );
 81091a4:	697b      	ldr	r3, [r7, #20]
 81091a6:	e853 3f00 	ldrex	r3, [r3]
 81091aa:	613b      	str	r3, [r7, #16]
   return(result);
 81091ac:	693b      	ldr	r3, [r7, #16]
 81091ae:	f023 0301 	bic.w	r3, r3, #1
 81091b2:	66bb      	str	r3, [r7, #104]	; 0x68
 81091b4:	68fb      	ldr	r3, [r7, #12]
 81091b6:	681b      	ldr	r3, [r3, #0]
 81091b8:	3308      	adds	r3, #8
 81091ba:	6eba      	ldr	r2, [r7, #104]	; 0x68
 81091bc:	623a      	str	r2, [r7, #32]
 81091be:	61fb      	str	r3, [r7, #28]
   __ASM volatile ("strex %0, %2, %1" : "=&r" (result), "=Q" (*addr) : "r" (value) );
 81091c0:	69f9      	ldr	r1, [r7, #28]
 81091c2:	6a3a      	ldr	r2, [r7, #32]
 81091c4:	e841 2300 	strex	r3, r2, [r1]
 81091c8:	61bb      	str	r3, [r7, #24]
   return(result);
 81091ca:	69bb      	ldr	r3, [r7, #24]
 81091cc:	2b00      	cmp	r3, #0
 81091ce:	d1e5      	bne.n	810919c <UART_WaitOnFlagUntilTimeout+0x10e>

          huart->gState = HAL_UART_STATE_READY;
 81091d0:	68fb      	ldr	r3, [r7, #12]
 81091d2:	2220      	movs	r2, #32
 81091d4:	f8c3 2084 	str.w	r2, [r3, #132]	; 0x84
          huart->RxState = HAL_UART_STATE_READY;
 81091d8:	68fb      	ldr	r3, [r7, #12]
 81091da:	2220      	movs	r2, #32
 81091dc:	f8c3 2088 	str.w	r2, [r3, #136]	; 0x88
          huart->ErrorCode = HAL_UART_ERROR_RTO;
 81091e0:	68fb      	ldr	r3, [r7, #12]
 81091e2:	2220      	movs	r2, #32
 81091e4:	f8c3 208c 	str.w	r2, [r3, #140]	; 0x8c

          /* Process Unlocked */
          __HAL_UNLOCK(huart);
 81091e8:	68fb      	ldr	r3, [r7, #12]
 81091ea:	2200      	movs	r2, #0
 81091ec:	f883 2080 	strb.w	r2, [r3, #128]	; 0x80

          return HAL_TIMEOUT;
 81091f0:	2303      	movs	r3, #3
 81091f2:	e010      	b.n	8109216 <UART_WaitOnFlagUntilTimeout+0x188>
  while ((__HAL_UART_GET_FLAG(huart, Flag) ? SET : RESET) == Status)
 81091f4:	68fb      	ldr	r3, [r7, #12]
 81091f6:	681b      	ldr	r3, [r3, #0]
 81091f8:	69da      	ldr	r2, [r3, #28]
 81091fa:	68bb      	ldr	r3, [r7, #8]
 81091fc:	4013      	ands	r3, r2
 81091fe:	68ba      	ldr	r2, [r7, #8]
 8109200:	429a      	cmp	r2, r3
 8109202:	bf0c      	ite	eq
 8109204:	2301      	moveq	r3, #1
 8109206:	2300      	movne	r3, #0
 8109208:	b2db      	uxtb	r3, r3
 810920a:	461a      	mov	r2, r3
 810920c:	79fb      	ldrb	r3, [r7, #7]
 810920e:	429a      	cmp	r2, r3
 8109210:	f43f af46 	beq.w	81090a0 <UART_WaitOnFlagUntilTimeout+0x12>
        }
      }
    }
  }
  return HAL_OK;
 8109214:	2300      	movs	r3, #0
}
 8109216:	4618      	mov	r0, r3
 8109218:	3770      	adds	r7, #112	; 0x70
 810921a:	46bd      	mov	sp, r7
 810921c:	bd80      	pop	{r7, pc}

0810921e <HAL_UARTEx_DisableFifoMode>:
  * @brief  Disable the FIFO mode.
  * @param huart      UART handle.
  * @retval HAL status
  */
HAL_StatusTypeDef HAL_UARTEx_DisableFifoMode(UART_HandleTypeDef *huart)
{
 810921e:	b480      	push	{r7}
 8109220:	b085      	sub	sp, #20
 8109222:	af00      	add	r7, sp, #0
 8109224:	6078      	str	r0, [r7, #4]

  /* Check parameters */
  assert_param(IS_UART_FIFO_INSTANCE(huart->Instance));

  /* Process Locked */
  __HAL_LOCK(huart);
 8109226:	687b      	ldr	r3, [r7, #4]
 8109228:	f893 3080 	ldrb.w	r3, [r3, #128]	; 0x80
 810922c:	2b01      	cmp	r3, #1
 810922e:	d101      	bne.n	8109234 <HAL_UARTEx_DisableFifoMode+0x16>
 8109230:	2302      	movs	r3, #2
 8109232:	e027      	b.n	8109284 <HAL_UARTEx_DisableFifoMode+0x66>
 8109234:	687b      	ldr	r3, [r7, #4]
 8109236:	2201      	movs	r2, #1
 8109238:	f883 2080 	strb.w	r2, [r3, #128]	; 0x80

  huart->gState = HAL_UART_STATE_BUSY;
 810923c:	687b      	ldr	r3, [r7, #4]
 810923e:	2224      	movs	r2, #36	; 0x24
 8109240:	f8c3 2084 	str.w	r2, [r3, #132]	; 0x84

  /* Save actual UART configuration */
  tmpcr1 = READ_REG(huart->Instance->CR1);
 8109244:	687b      	ldr	r3, [r7, #4]
 8109246:	681b      	ldr	r3, [r3, #0]
 8109248:	681b      	ldr	r3, [r3, #0]
 810924a:	60fb      	str	r3, [r7, #12]

  /* Disable UART */
  __HAL_UART_DISABLE(huart);
 810924c:	687b      	ldr	r3, [r7, #4]
 810924e:	681b      	ldr	r3, [r3, #0]
 8109250:	681a      	ldr	r2, [r3, #0]
 8109252:	687b      	ldr	r3, [r7, #4]
 8109254:	681b      	ldr	r3, [r3, #0]
 8109256:	f022 0201 	bic.w	r2, r2, #1
 810925a:	601a      	str	r2, [r3, #0]

  /* Enable FIFO mode */
  CLEAR_BIT(tmpcr1, USART_CR1_FIFOEN);
 810925c:	68fb      	ldr	r3, [r7, #12]
 810925e:	f023 5300 	bic.w	r3, r3, #536870912	; 0x20000000
 8109262:	60fb      	str	r3, [r7, #12]
  huart->FifoMode = UART_FIFOMODE_DISABLE;
 8109264:	687b      	ldr	r3, [r7, #4]
 8109266:	2200      	movs	r2, #0
 8109268:	665a      	str	r2, [r3, #100]	; 0x64

  /* Restore UART configuration */
  WRITE_REG(huart->Instance->CR1, tmpcr1);
 810926a:	687b      	ldr	r3, [r7, #4]
 810926c:	681b      	ldr	r3, [r3, #0]
 810926e:	68fa      	ldr	r2, [r7, #12]
 8109270:	601a      	str	r2, [r3, #0]

  huart->gState = HAL_UART_STATE_READY;
 8109272:	687b      	ldr	r3, [r7, #4]
 8109274:	2220      	movs	r2, #32
 8109276:	f8c3 2084 	str.w	r2, [r3, #132]	; 0x84

  /* Process Unlocked */
  __HAL_UNLOCK(huart);
 810927a:	687b      	ldr	r3, [r7, #4]
 810927c:	2200      	movs	r2, #0
 810927e:	f883 2080 	strb.w	r2, [r3, #128]	; 0x80

  return HAL_OK;
 8109282:	2300      	movs	r3, #0
}
 8109284:	4618      	mov	r0, r3
 8109286:	3714      	adds	r7, #20
 8109288:	46bd      	mov	sp, r7
 810928a:	f85d 7b04 	ldr.w	r7, [sp], #4
 810928e:	4770      	bx	lr

08109290 <HAL_UARTEx_SetTxFifoThreshold>:
  *            @arg @ref UART_TXFIFO_THRESHOLD_7_8
  *            @arg @ref UART_TXFIFO_THRESHOLD_8_8
  * @retval HAL status
  */
HAL_StatusTypeDef HAL_UARTEx_SetTxFifoThreshold(UART_HandleTypeDef *huart, uint32_t Threshold)
{
 8109290:	b580      	push	{r7, lr}
 8109292:	b084      	sub	sp, #16
 8109294:	af00      	add	r7, sp, #0
 8109296:	6078      	str	r0, [r7, #4]
 8109298:	6039      	str	r1, [r7, #0]
  /* Check parameters */
  assert_param(IS_UART_FIFO_INSTANCE(huart->Instance));
  assert_param(IS_UART_TXFIFO_THRESHOLD(Threshold));

  /* Process Locked */
  __HAL_LOCK(huart);
 810929a:	687b      	ldr	r3, [r7, #4]
 810929c:	f893 3080 	ldrb.w	r3, [r3, #128]	; 0x80
 81092a0:	2b01      	cmp	r3, #1
 81092a2:	d101      	bne.n	81092a8 <HAL_UARTEx_SetTxFifoThreshold+0x18>
 81092a4:	2302      	movs	r3, #2
 81092a6:	e02d      	b.n	8109304 <HAL_UARTEx_SetTxFifoThreshold+0x74>
 81092a8:	687b      	ldr	r3, [r7, #4]
 81092aa:	2201      	movs	r2, #1
 81092ac:	f883 2080 	strb.w	r2, [r3, #128]	; 0x80

  huart->gState = HAL_UART_STATE_BUSY;
 81092b0:	687b      	ldr	r3, [r7, #4]
 81092b2:	2224      	movs	r2, #36	; 0x24
 81092b4:	f8c3 2084 	str.w	r2, [r3, #132]	; 0x84

  /* Save actual UART configuration */
  tmpcr1 = READ_REG(huart->Instance->CR1);
 81092b8:	687b      	ldr	r3, [r7, #4]
 81092ba:	681b      	ldr	r3, [r3, #0]
 81092bc:	681b      	ldr	r3, [r3, #0]
 81092be:	60fb      	str	r3, [r7, #12]

  /* Disable UART */
  __HAL_UART_DISABLE(huart);
 81092c0:	687b      	ldr	r3, [r7, #4]
 81092c2:	681b      	ldr	r3, [r3, #0]
 81092c4:	681a      	ldr	r2, [r3, #0]
 81092c6:	687b      	ldr	r3, [r7, #4]
 81092c8:	681b      	ldr	r3, [r3, #0]
 81092ca:	f022 0201 	bic.w	r2, r2, #1
 81092ce:	601a      	str	r2, [r3, #0]

  /* Update TX threshold configuration */
  MODIFY_REG(huart->Instance->CR3, USART_CR3_TXFTCFG, Threshold);
 81092d0:	687b      	ldr	r3, [r7, #4]
 81092d2:	681b      	ldr	r3, [r3, #0]
 81092d4:	689b      	ldr	r3, [r3, #8]
 81092d6:	f023 4160 	bic.w	r1, r3, #3758096384	; 0xe0000000
 81092da:	687b      	ldr	r3, [r7, #4]
 81092dc:	681b      	ldr	r3, [r3, #0]
 81092de:	683a      	ldr	r2, [r7, #0]
 81092e0:	430a      	orrs	r2, r1
 81092e2:	609a      	str	r2, [r3, #8]

  /* Determine the number of data to process during RX/TX ISR execution */
  UARTEx_SetNbDataToProcess(huart);
 81092e4:	6878      	ldr	r0, [r7, #4]
 81092e6:	f000 f84f 	bl	8109388 <UARTEx_SetNbDataToProcess>

  /* Restore UART configuration */
  WRITE_REG(huart->Instance->CR1, tmpcr1);
 81092ea:	687b      	ldr	r3, [r7, #4]
 81092ec:	681b      	ldr	r3, [r3, #0]
 81092ee:	68fa      	ldr	r2, [r7, #12]
 81092f0:	601a      	str	r2, [r3, #0]

  huart->gState = HAL_UART_STATE_READY;
 81092f2:	687b      	ldr	r3, [r7, #4]
 81092f4:	2220      	movs	r2, #32
 81092f6:	f8c3 2084 	str.w	r2, [r3, #132]	; 0x84

  /* Process Unlocked */
  __HAL_UNLOCK(huart);
 81092fa:	687b      	ldr	r3, [r7, #4]
 81092fc:	2200      	movs	r2, #0
 81092fe:	f883 2080 	strb.w	r2, [r3, #128]	; 0x80

  return HAL_OK;
 8109302:	2300      	movs	r3, #0
}
 8109304:	4618      	mov	r0, r3
 8109306:	3710      	adds	r7, #16
 8109308:	46bd      	mov	sp, r7
 810930a:	bd80      	pop	{r7, pc}

0810930c <HAL_UARTEx_SetRxFifoThreshold>:
  *            @arg @ref UART_RXFIFO_THRESHOLD_7_8
  *            @arg @ref UART_RXFIFO_THRESHOLD_8_8
  * @retval HAL status
  */
HAL_StatusTypeDef HAL_UARTEx_SetRxFifoThreshold(UART_HandleTypeDef *huart, uint32_t Threshold)
{
 810930c:	b580      	push	{r7, lr}
 810930e:	b084      	sub	sp, #16
 8109310:	af00      	add	r7, sp, #0
 8109312:	6078      	str	r0, [r7, #4]
 8109314:	6039      	str	r1, [r7, #0]
  /* Check the parameters */
  assert_param(IS_UART_FIFO_INSTANCE(huart->Instance));
  assert_param(IS_UART_RXFIFO_THRESHOLD(Threshold));

  /* Process Locked */
  __HAL_LOCK(huart);
 8109316:	687b      	ldr	r3, [r7, #4]
 8109318:	f893 3080 	ldrb.w	r3, [r3, #128]	; 0x80
 810931c:	2b01      	cmp	r3, #1
 810931e:	d101      	bne.n	8109324 <HAL_UARTEx_SetRxFifoThreshold+0x18>
 8109320:	2302      	movs	r3, #2
 8109322:	e02d      	b.n	8109380 <HAL_UARTEx_SetRxFifoThreshold+0x74>
 8109324:	687b      	ldr	r3, [r7, #4]
 8109326:	2201      	movs	r2, #1
 8109328:	f883 2080 	strb.w	r2, [r3, #128]	; 0x80

  huart->gState = HAL_UART_STATE_BUSY;
 810932c:	687b      	ldr	r3, [r7, #4]
 810932e:	2224      	movs	r2, #36	; 0x24
 8109330:	f8c3 2084 	str.w	r2, [r3, #132]	; 0x84

  /* Save actual UART configuration */
  tmpcr1 = READ_REG(huart->Instance->CR1);
 8109334:	687b      	ldr	r3, [r7, #4]
 8109336:	681b      	ldr	r3, [r3, #0]
 8109338:	681b      	ldr	r3, [r3, #0]
 810933a:	60fb      	str	r3, [r7, #12]

  /* Disable UART */
  __HAL_UART_DISABLE(huart);
 810933c:	687b      	ldr	r3, [r7, #4]
 810933e:	681b      	ldr	r3, [r3, #0]
 8109340:	681a      	ldr	r2, [r3, #0]
 8109342:	687b      	ldr	r3, [r7, #4]
 8109344:	681b      	ldr	r3, [r3, #0]
 8109346:	f022 0201 	bic.w	r2, r2, #1
 810934a:	601a      	str	r2, [r3, #0]

  /* Update RX threshold configuration */
  MODIFY_REG(huart->Instance->CR3, USART_CR3_RXFTCFG, Threshold);
 810934c:	687b      	ldr	r3, [r7, #4]
 810934e:	681b      	ldr	r3, [r3, #0]
 8109350:	689b      	ldr	r3, [r3, #8]
 8109352:	f023 6160 	bic.w	r1, r3, #234881024	; 0xe000000
 8109356:	687b      	ldr	r3, [r7, #4]
 8109358:	681b      	ldr	r3, [r3, #0]
 810935a:	683a      	ldr	r2, [r7, #0]
 810935c:	430a      	orrs	r2, r1
 810935e:	609a      	str	r2, [r3, #8]

  /* Determine the number of data to process during RX/TX ISR execution */
  UARTEx_SetNbDataToProcess(huart);
 8109360:	6878      	ldr	r0, [r7, #4]
 8109362:	f000 f811 	bl	8109388 <UARTEx_SetNbDataToProcess>

  /* Restore UART configuration */
  WRITE_REG(huart->Instance->CR1, tmpcr1);
 8109366:	687b      	ldr	r3, [r7, #4]
 8109368:	681b      	ldr	r3, [r3, #0]
 810936a:	68fa      	ldr	r2, [r7, #12]
 810936c:	601a      	str	r2, [r3, #0]

  huart->gState = HAL_UART_STATE_READY;
 810936e:	687b      	ldr	r3, [r7, #4]
 8109370:	2220      	movs	r2, #32
 8109372:	f8c3 2084 	str.w	r2, [r3, #132]	; 0x84

  /* Process Unlocked */
  __HAL_UNLOCK(huart);
 8109376:	687b      	ldr	r3, [r7, #4]
 8109378:	2200      	movs	r2, #0
 810937a:	f883 2080 	strb.w	r2, [r3, #128]	; 0x80

  return HAL_OK;
 810937e:	2300      	movs	r3, #0
}
 8109380:	4618      	mov	r0, r3
 8109382:	3710      	adds	r7, #16
 8109384:	46bd      	mov	sp, r7
 8109386:	bd80      	pop	{r7, pc}

08109388 <UARTEx_SetNbDataToProcess>:
  *       the UART configuration registers.
  * @param huart UART handle.
  * @retval None
  */
static void UARTEx_SetNbDataToProcess(UART_HandleTypeDef *huart)
{
 8109388:	b480      	push	{r7}
 810938a:	b085      	sub	sp, #20
 810938c:	af00      	add	r7, sp, #0
 810938e:	6078      	str	r0, [r7, #4]
  uint8_t rx_fifo_threshold;
  uint8_t tx_fifo_threshold;
  static const uint8_t numerator[] = {1U, 1U, 1U, 3U, 7U, 1U, 0U, 0U};
  static const uint8_t denominator[] = {8U, 4U, 2U, 4U, 8U, 1U, 1U, 1U};

  if (huart->FifoMode == UART_FIFOMODE_DISABLE)
 8109390:	687b      	ldr	r3, [r7, #4]
 8109392:	6e5b      	ldr	r3, [r3, #100]	; 0x64
 8109394:	2b00      	cmp	r3, #0
 8109396:	d108      	bne.n	81093aa <UARTEx_SetNbDataToProcess+0x22>
  {
    huart->NbTxDataToProcess = 1U;
 8109398:	687b      	ldr	r3, [r7, #4]
 810939a:	2201      	movs	r2, #1
 810939c:	f8a3 206a 	strh.w	r2, [r3, #106]	; 0x6a
    huart->NbRxDataToProcess = 1U;
 81093a0:	687b      	ldr	r3, [r7, #4]
 81093a2:	2201      	movs	r2, #1
 81093a4:	f8a3 2068 	strh.w	r2, [r3, #104]	; 0x68
    huart->NbTxDataToProcess = ((uint16_t)tx_fifo_depth * numerator[tx_fifo_threshold]) /
                               (uint16_t)denominator[tx_fifo_threshold];
    huart->NbRxDataToProcess = ((uint16_t)rx_fifo_depth * numerator[rx_fifo_threshold]) /
                               (uint16_t)denominator[rx_fifo_threshold];
  }
}
 81093a8:	e031      	b.n	810940e <UARTEx_SetNbDataToProcess+0x86>
    rx_fifo_depth = RX_FIFO_DEPTH;
 81093aa:	2310      	movs	r3, #16
 81093ac:	73fb      	strb	r3, [r7, #15]
    tx_fifo_depth = TX_FIFO_DEPTH;
 81093ae:	2310      	movs	r3, #16
 81093b0:	73bb      	strb	r3, [r7, #14]
    rx_fifo_threshold = (uint8_t)(READ_BIT(huart->Instance->CR3, USART_CR3_RXFTCFG) >> USART_CR3_RXFTCFG_Pos);
 81093b2:	687b      	ldr	r3, [r7, #4]
 81093b4:	681b      	ldr	r3, [r3, #0]
 81093b6:	689b      	ldr	r3, [r3, #8]
 81093b8:	0e5b      	lsrs	r3, r3, #25
 81093ba:	b2db      	uxtb	r3, r3
 81093bc:	f003 0307 	and.w	r3, r3, #7
 81093c0:	737b      	strb	r3, [r7, #13]
    tx_fifo_threshold = (uint8_t)(READ_BIT(huart->Instance->CR3, USART_CR3_TXFTCFG) >> USART_CR3_TXFTCFG_Pos);
 81093c2:	687b      	ldr	r3, [r7, #4]
 81093c4:	681b      	ldr	r3, [r3, #0]
 81093c6:	689b      	ldr	r3, [r3, #8]
 81093c8:	0f5b      	lsrs	r3, r3, #29
 81093ca:	b2db      	uxtb	r3, r3
 81093cc:	f003 0307 	and.w	r3, r3, #7
 81093d0:	733b      	strb	r3, [r7, #12]
    huart->NbTxDataToProcess = ((uint16_t)tx_fifo_depth * numerator[tx_fifo_threshold]) /
 81093d2:	7bbb      	ldrb	r3, [r7, #14]
 81093d4:	7b3a      	ldrb	r2, [r7, #12]
 81093d6:	4911      	ldr	r1, [pc, #68]	; (810941c <UARTEx_SetNbDataToProcess+0x94>)
 81093d8:	5c8a      	ldrb	r2, [r1, r2]
 81093da:	fb02 f303 	mul.w	r3, r2, r3
                               (uint16_t)denominator[tx_fifo_threshold];
 81093de:	7b3a      	ldrb	r2, [r7, #12]
 81093e0:	490f      	ldr	r1, [pc, #60]	; (8109420 <UARTEx_SetNbDataToProcess+0x98>)
 81093e2:	5c8a      	ldrb	r2, [r1, r2]
    huart->NbTxDataToProcess = ((uint16_t)tx_fifo_depth * numerator[tx_fifo_threshold]) /
 81093e4:	fb93 f3f2 	sdiv	r3, r3, r2
 81093e8:	b29a      	uxth	r2, r3
 81093ea:	687b      	ldr	r3, [r7, #4]
 81093ec:	f8a3 206a 	strh.w	r2, [r3, #106]	; 0x6a
    huart->NbRxDataToProcess = ((uint16_t)rx_fifo_depth * numerator[rx_fifo_threshold]) /
 81093f0:	7bfb      	ldrb	r3, [r7, #15]
 81093f2:	7b7a      	ldrb	r2, [r7, #13]
 81093f4:	4909      	ldr	r1, [pc, #36]	; (810941c <UARTEx_SetNbDataToProcess+0x94>)
 81093f6:	5c8a      	ldrb	r2, [r1, r2]
 81093f8:	fb02 f303 	mul.w	r3, r2, r3
                               (uint16_t)denominator[rx_fifo_threshold];
 81093fc:	7b7a      	ldrb	r2, [r7, #13]
 81093fe:	4908      	ldr	r1, [pc, #32]	; (8109420 <UARTEx_SetNbDataToProcess+0x98>)
 8109400:	5c8a      	ldrb	r2, [r1, r2]
    huart->NbRxDataToProcess = ((uint16_t)rx_fifo_depth * numerator[rx_fifo_threshold]) /
 8109402:	fb93 f3f2 	sdiv	r3, r3, r2
 8109406:	b29a      	uxth	r2, r3
 8109408:	687b      	ldr	r3, [r7, #4]
 810940a:	f8a3 2068 	strh.w	r2, [r3, #104]	; 0x68
}
 810940e:	bf00      	nop
 8109410:	3714      	adds	r7, #20
 8109412:	46bd      	mov	sp, r7
 8109414:	f85d 7b04 	ldr.w	r7, [sp], #4
 8109418:	4770      	bx	lr
 810941a:	bf00      	nop
 810941c:	08109de0 	.word	0x08109de0
 8109420:	08109de8 	.word	0x08109de8

08109424 <__libc_init_array>:
 8109424:	b570      	push	{r4, r5, r6, lr}
 8109426:	4d0d      	ldr	r5, [pc, #52]	; (810945c <__libc_init_array+0x38>)
 8109428:	4c0d      	ldr	r4, [pc, #52]	; (8109460 <__libc_init_array+0x3c>)
 810942a:	1b64      	subs	r4, r4, r5
 810942c:	10a4      	asrs	r4, r4, #2
 810942e:	2600      	movs	r6, #0
 8109430:	42a6      	cmp	r6, r4
 8109432:	d109      	bne.n	8109448 <__libc_init_array+0x24>
 8109434:	4d0b      	ldr	r5, [pc, #44]	; (8109464 <__libc_init_array+0x40>)
 8109436:	4c0c      	ldr	r4, [pc, #48]	; (8109468 <__libc_init_array+0x44>)
 8109438:	f000 fc9c 	bl	8109d74 <_init>
 810943c:	1b64      	subs	r4, r4, r5
 810943e:	10a4      	asrs	r4, r4, #2
 8109440:	2600      	movs	r6, #0
 8109442:	42a6      	cmp	r6, r4
 8109444:	d105      	bne.n	8109452 <__libc_init_array+0x2e>
 8109446:	bd70      	pop	{r4, r5, r6, pc}
 8109448:	f855 3b04 	ldr.w	r3, [r5], #4
 810944c:	4798      	blx	r3
 810944e:	3601      	adds	r6, #1
 8109450:	e7ee      	b.n	8109430 <__libc_init_array+0xc>
 8109452:	f855 3b04 	ldr.w	r3, [r5], #4
 8109456:	4798      	blx	r3
 8109458:	3601      	adds	r6, #1
 810945a:	e7f2      	b.n	8109442 <__libc_init_array+0x1e>
 810945c:	08109e2c 	.word	0x08109e2c
 8109460:	08109e2c 	.word	0x08109e2c
 8109464:	08109e2c 	.word	0x08109e2c
 8109468:	08109e30 	.word	0x08109e30

0810946c <memset>:
 810946c:	4402      	add	r2, r0
 810946e:	4603      	mov	r3, r0
 8109470:	4293      	cmp	r3, r2
 8109472:	d100      	bne.n	8109476 <memset+0xa>
 8109474:	4770      	bx	lr
 8109476:	f803 1b01 	strb.w	r1, [r3], #1
 810947a:	e7f9      	b.n	8109470 <memset+0x4>

0810947c <siprintf>:
 810947c:	b40e      	push	{r1, r2, r3}
 810947e:	b500      	push	{lr}
 8109480:	b09c      	sub	sp, #112	; 0x70
 8109482:	ab1d      	add	r3, sp, #116	; 0x74
 8109484:	9002      	str	r0, [sp, #8]
 8109486:	9006      	str	r0, [sp, #24]
 8109488:	f06f 4100 	mvn.w	r1, #2147483648	; 0x80000000
 810948c:	4809      	ldr	r0, [pc, #36]	; (81094b4 <siprintf+0x38>)
 810948e:	9107      	str	r1, [sp, #28]
 8109490:	9104      	str	r1, [sp, #16]
 8109492:	4909      	ldr	r1, [pc, #36]	; (81094b8 <siprintf+0x3c>)
 8109494:	f853 2b04 	ldr.w	r2, [r3], #4
 8109498:	9105      	str	r1, [sp, #20]
 810949a:	6800      	ldr	r0, [r0, #0]
 810949c:	9301      	str	r3, [sp, #4]
 810949e:	a902      	add	r1, sp, #8
 81094a0:	f000 f868 	bl	8109574 <_svfiprintf_r>
 81094a4:	9b02      	ldr	r3, [sp, #8]
 81094a6:	2200      	movs	r2, #0
 81094a8:	701a      	strb	r2, [r3, #0]
 81094aa:	b01c      	add	sp, #112	; 0x70
 81094ac:	f85d eb04 	ldr.w	lr, [sp], #4
 81094b0:	b003      	add	sp, #12
 81094b2:	4770      	bx	lr
 81094b4:	10000014 	.word	0x10000014
 81094b8:	ffff0208 	.word	0xffff0208

081094bc <__ssputs_r>:
 81094bc:	e92d 47f0 	stmdb	sp!, {r4, r5, r6, r7, r8, r9, sl, lr}
 81094c0:	688e      	ldr	r6, [r1, #8]
 81094c2:	429e      	cmp	r6, r3
 81094c4:	4682      	mov	sl, r0
 81094c6:	460c      	mov	r4, r1
 81094c8:	4690      	mov	r8, r2
 81094ca:	461f      	mov	r7, r3
 81094cc:	d838      	bhi.n	8109540 <__ssputs_r+0x84>
 81094ce:	898a      	ldrh	r2, [r1, #12]
 81094d0:	f412 6f90 	tst.w	r2, #1152	; 0x480
 81094d4:	d032      	beq.n	810953c <__ssputs_r+0x80>
 81094d6:	6825      	ldr	r5, [r4, #0]
 81094d8:	6909      	ldr	r1, [r1, #16]
 81094da:	eba5 0901 	sub.w	r9, r5, r1
 81094de:	6965      	ldr	r5, [r4, #20]
 81094e0:	eb05 0545 	add.w	r5, r5, r5, lsl #1
 81094e4:	eb05 75d5 	add.w	r5, r5, r5, lsr #31
 81094e8:	3301      	adds	r3, #1
 81094ea:	444b      	add	r3, r9
 81094ec:	106d      	asrs	r5, r5, #1
 81094ee:	429d      	cmp	r5, r3
 81094f0:	bf38      	it	cc
 81094f2:	461d      	movcc	r5, r3
 81094f4:	0553      	lsls	r3, r2, #21
 81094f6:	d531      	bpl.n	810955c <__ssputs_r+0xa0>
 81094f8:	4629      	mov	r1, r5
 81094fa:	f000 fb63 	bl	8109bc4 <_malloc_r>
 81094fe:	4606      	mov	r6, r0
 8109500:	b950      	cbnz	r0, 8109518 <__ssputs_r+0x5c>
 8109502:	230c      	movs	r3, #12
 8109504:	f8ca 3000 	str.w	r3, [sl]
 8109508:	89a3      	ldrh	r3, [r4, #12]
 810950a:	f043 0340 	orr.w	r3, r3, #64	; 0x40
 810950e:	81a3      	strh	r3, [r4, #12]
 8109510:	f04f 30ff 	mov.w	r0, #4294967295
 8109514:	e8bd 87f0 	ldmia.w	sp!, {r4, r5, r6, r7, r8, r9, sl, pc}
 8109518:	6921      	ldr	r1, [r4, #16]
 810951a:	464a      	mov	r2, r9
 810951c:	f000 fabe 	bl	8109a9c <memcpy>
 8109520:	89a3      	ldrh	r3, [r4, #12]
 8109522:	f423 6390 	bic.w	r3, r3, #1152	; 0x480
 8109526:	f043 0380 	orr.w	r3, r3, #128	; 0x80
 810952a:	81a3      	strh	r3, [r4, #12]
 810952c:	6126      	str	r6, [r4, #16]
 810952e:	6165      	str	r5, [r4, #20]
 8109530:	444e      	add	r6, r9
 8109532:	eba5 0509 	sub.w	r5, r5, r9
 8109536:	6026      	str	r6, [r4, #0]
 8109538:	60a5      	str	r5, [r4, #8]
 810953a:	463e      	mov	r6, r7
 810953c:	42be      	cmp	r6, r7
 810953e:	d900      	bls.n	8109542 <__ssputs_r+0x86>
 8109540:	463e      	mov	r6, r7
 8109542:	6820      	ldr	r0, [r4, #0]
 8109544:	4632      	mov	r2, r6
 8109546:	4641      	mov	r1, r8
 8109548:	f000 fab6 	bl	8109ab8 <memmove>
 810954c:	68a3      	ldr	r3, [r4, #8]
 810954e:	1b9b      	subs	r3, r3, r6
 8109550:	60a3      	str	r3, [r4, #8]
 8109552:	6823      	ldr	r3, [r4, #0]
 8109554:	4433      	add	r3, r6
 8109556:	6023      	str	r3, [r4, #0]
 8109558:	2000      	movs	r0, #0
 810955a:	e7db      	b.n	8109514 <__ssputs_r+0x58>
 810955c:	462a      	mov	r2, r5
 810955e:	f000 fba5 	bl	8109cac <_realloc_r>
 8109562:	4606      	mov	r6, r0
 8109564:	2800      	cmp	r0, #0
 8109566:	d1e1      	bne.n	810952c <__ssputs_r+0x70>
 8109568:	6921      	ldr	r1, [r4, #16]
 810956a:	4650      	mov	r0, sl
 810956c:	f000 fabe 	bl	8109aec <_free_r>
 8109570:	e7c7      	b.n	8109502 <__ssputs_r+0x46>
	...

08109574 <_svfiprintf_r>:
 8109574:	e92d 4ff0 	stmdb	sp!, {r4, r5, r6, r7, r8, r9, sl, fp, lr}
 8109578:	4698      	mov	r8, r3
 810957a:	898b      	ldrh	r3, [r1, #12]
 810957c:	061b      	lsls	r3, r3, #24
 810957e:	b09d      	sub	sp, #116	; 0x74
 8109580:	4607      	mov	r7, r0
 8109582:	460d      	mov	r5, r1
 8109584:	4614      	mov	r4, r2
 8109586:	d50e      	bpl.n	81095a6 <_svfiprintf_r+0x32>
 8109588:	690b      	ldr	r3, [r1, #16]
 810958a:	b963      	cbnz	r3, 81095a6 <_svfiprintf_r+0x32>
 810958c:	2140      	movs	r1, #64	; 0x40
 810958e:	f000 fb19 	bl	8109bc4 <_malloc_r>
 8109592:	6028      	str	r0, [r5, #0]
 8109594:	6128      	str	r0, [r5, #16]
 8109596:	b920      	cbnz	r0, 81095a2 <_svfiprintf_r+0x2e>
 8109598:	230c      	movs	r3, #12
 810959a:	603b      	str	r3, [r7, #0]
 810959c:	f04f 30ff 	mov.w	r0, #4294967295
 81095a0:	e0d1      	b.n	8109746 <_svfiprintf_r+0x1d2>
 81095a2:	2340      	movs	r3, #64	; 0x40
 81095a4:	616b      	str	r3, [r5, #20]
 81095a6:	2300      	movs	r3, #0
 81095a8:	9309      	str	r3, [sp, #36]	; 0x24
 81095aa:	2320      	movs	r3, #32
 81095ac:	f88d 3029 	strb.w	r3, [sp, #41]	; 0x29
 81095b0:	f8cd 800c 	str.w	r8, [sp, #12]
 81095b4:	2330      	movs	r3, #48	; 0x30
 81095b6:	f8df 81a8 	ldr.w	r8, [pc, #424]	; 8109760 <_svfiprintf_r+0x1ec>
 81095ba:	f88d 302a 	strb.w	r3, [sp, #42]	; 0x2a
 81095be:	f04f 0901 	mov.w	r9, #1
 81095c2:	4623      	mov	r3, r4
 81095c4:	469a      	mov	sl, r3
 81095c6:	f813 2b01 	ldrb.w	r2, [r3], #1
 81095ca:	b10a      	cbz	r2, 81095d0 <_svfiprintf_r+0x5c>
 81095cc:	2a25      	cmp	r2, #37	; 0x25
 81095ce:	d1f9      	bne.n	81095c4 <_svfiprintf_r+0x50>
 81095d0:	ebba 0b04 	subs.w	fp, sl, r4
 81095d4:	d00b      	beq.n	81095ee <_svfiprintf_r+0x7a>
 81095d6:	465b      	mov	r3, fp
 81095d8:	4622      	mov	r2, r4
 81095da:	4629      	mov	r1, r5
 81095dc:	4638      	mov	r0, r7
 81095de:	f7ff ff6d 	bl	81094bc <__ssputs_r>
 81095e2:	3001      	adds	r0, #1
 81095e4:	f000 80aa 	beq.w	810973c <_svfiprintf_r+0x1c8>
 81095e8:	9a09      	ldr	r2, [sp, #36]	; 0x24
 81095ea:	445a      	add	r2, fp
 81095ec:	9209      	str	r2, [sp, #36]	; 0x24
 81095ee:	f89a 3000 	ldrb.w	r3, [sl]
 81095f2:	2b00      	cmp	r3, #0
 81095f4:	f000 80a2 	beq.w	810973c <_svfiprintf_r+0x1c8>
 81095f8:	2300      	movs	r3, #0
 81095fa:	f04f 32ff 	mov.w	r2, #4294967295
 81095fe:	e9cd 2305 	strd	r2, r3, [sp, #20]
 8109602:	f10a 0a01 	add.w	sl, sl, #1
 8109606:	9304      	str	r3, [sp, #16]
 8109608:	9307      	str	r3, [sp, #28]
 810960a:	f88d 3053 	strb.w	r3, [sp, #83]	; 0x53
 810960e:	931a      	str	r3, [sp, #104]	; 0x68
 8109610:	4654      	mov	r4, sl
 8109612:	2205      	movs	r2, #5
 8109614:	f814 1b01 	ldrb.w	r1, [r4], #1
 8109618:	4851      	ldr	r0, [pc, #324]	; (8109760 <_svfiprintf_r+0x1ec>)
 810961a:	f7f6 fe61 	bl	81002e0 <memchr>
 810961e:	9a04      	ldr	r2, [sp, #16]
 8109620:	b9d8      	cbnz	r0, 810965a <_svfiprintf_r+0xe6>
 8109622:	06d0      	lsls	r0, r2, #27
 8109624:	bf44      	itt	mi
 8109626:	2320      	movmi	r3, #32
 8109628:	f88d 3053 	strbmi.w	r3, [sp, #83]	; 0x53
 810962c:	0711      	lsls	r1, r2, #28
 810962e:	bf44      	itt	mi
 8109630:	232b      	movmi	r3, #43	; 0x2b
 8109632:	f88d 3053 	strbmi.w	r3, [sp, #83]	; 0x53
 8109636:	f89a 3000 	ldrb.w	r3, [sl]
 810963a:	2b2a      	cmp	r3, #42	; 0x2a
 810963c:	d015      	beq.n	810966a <_svfiprintf_r+0xf6>
 810963e:	9a07      	ldr	r2, [sp, #28]
 8109640:	4654      	mov	r4, sl
 8109642:	2000      	movs	r0, #0
 8109644:	f04f 0c0a 	mov.w	ip, #10
 8109648:	4621      	mov	r1, r4
 810964a:	f811 3b01 	ldrb.w	r3, [r1], #1
 810964e:	3b30      	subs	r3, #48	; 0x30
 8109650:	2b09      	cmp	r3, #9
 8109652:	d94e      	bls.n	81096f2 <_svfiprintf_r+0x17e>
 8109654:	b1b0      	cbz	r0, 8109684 <_svfiprintf_r+0x110>
 8109656:	9207      	str	r2, [sp, #28]
 8109658:	e014      	b.n	8109684 <_svfiprintf_r+0x110>
 810965a:	eba0 0308 	sub.w	r3, r0, r8
 810965e:	fa09 f303 	lsl.w	r3, r9, r3
 8109662:	4313      	orrs	r3, r2
 8109664:	9304      	str	r3, [sp, #16]
 8109666:	46a2      	mov	sl, r4
 8109668:	e7d2      	b.n	8109610 <_svfiprintf_r+0x9c>
 810966a:	9b03      	ldr	r3, [sp, #12]
 810966c:	1d19      	adds	r1, r3, #4
 810966e:	681b      	ldr	r3, [r3, #0]
 8109670:	9103      	str	r1, [sp, #12]
 8109672:	2b00      	cmp	r3, #0
 8109674:	bfbb      	ittet	lt
 8109676:	425b      	neglt	r3, r3
 8109678:	f042 0202 	orrlt.w	r2, r2, #2
 810967c:	9307      	strge	r3, [sp, #28]
 810967e:	9307      	strlt	r3, [sp, #28]
 8109680:	bfb8      	it	lt
 8109682:	9204      	strlt	r2, [sp, #16]
 8109684:	7823      	ldrb	r3, [r4, #0]
 8109686:	2b2e      	cmp	r3, #46	; 0x2e
 8109688:	d10c      	bne.n	81096a4 <_svfiprintf_r+0x130>
 810968a:	7863      	ldrb	r3, [r4, #1]
 810968c:	2b2a      	cmp	r3, #42	; 0x2a
 810968e:	d135      	bne.n	81096fc <_svfiprintf_r+0x188>
 8109690:	9b03      	ldr	r3, [sp, #12]
 8109692:	1d1a      	adds	r2, r3, #4
 8109694:	681b      	ldr	r3, [r3, #0]
 8109696:	9203      	str	r2, [sp, #12]
 8109698:	2b00      	cmp	r3, #0
 810969a:	bfb8      	it	lt
 810969c:	f04f 33ff 	movlt.w	r3, #4294967295
 81096a0:	3402      	adds	r4, #2
 81096a2:	9305      	str	r3, [sp, #20]
 81096a4:	f8df a0c8 	ldr.w	sl, [pc, #200]	; 8109770 <_svfiprintf_r+0x1fc>
 81096a8:	7821      	ldrb	r1, [r4, #0]
 81096aa:	2203      	movs	r2, #3
 81096ac:	4650      	mov	r0, sl
 81096ae:	f7f6 fe17 	bl	81002e0 <memchr>
 81096b2:	b140      	cbz	r0, 81096c6 <_svfiprintf_r+0x152>
 81096b4:	2340      	movs	r3, #64	; 0x40
 81096b6:	eba0 000a 	sub.w	r0, r0, sl
 81096ba:	fa03 f000 	lsl.w	r0, r3, r0
 81096be:	9b04      	ldr	r3, [sp, #16]
 81096c0:	4303      	orrs	r3, r0
 81096c2:	3401      	adds	r4, #1
 81096c4:	9304      	str	r3, [sp, #16]
 81096c6:	f814 1b01 	ldrb.w	r1, [r4], #1
 81096ca:	4826      	ldr	r0, [pc, #152]	; (8109764 <_svfiprintf_r+0x1f0>)
 81096cc:	f88d 1028 	strb.w	r1, [sp, #40]	; 0x28
 81096d0:	2206      	movs	r2, #6
 81096d2:	f7f6 fe05 	bl	81002e0 <memchr>
 81096d6:	2800      	cmp	r0, #0
 81096d8:	d038      	beq.n	810974c <_svfiprintf_r+0x1d8>
 81096da:	4b23      	ldr	r3, [pc, #140]	; (8109768 <_svfiprintf_r+0x1f4>)
 81096dc:	bb1b      	cbnz	r3, 8109726 <_svfiprintf_r+0x1b2>
 81096de:	9b03      	ldr	r3, [sp, #12]
 81096e0:	3307      	adds	r3, #7
 81096e2:	f023 0307 	bic.w	r3, r3, #7
 81096e6:	3308      	adds	r3, #8
 81096e8:	9303      	str	r3, [sp, #12]
 81096ea:	9b09      	ldr	r3, [sp, #36]	; 0x24
 81096ec:	4433      	add	r3, r6
 81096ee:	9309      	str	r3, [sp, #36]	; 0x24
 81096f0:	e767      	b.n	81095c2 <_svfiprintf_r+0x4e>
 81096f2:	fb0c 3202 	mla	r2, ip, r2, r3
 81096f6:	460c      	mov	r4, r1
 81096f8:	2001      	movs	r0, #1
 81096fa:	e7a5      	b.n	8109648 <_svfiprintf_r+0xd4>
 81096fc:	2300      	movs	r3, #0
 81096fe:	3401      	adds	r4, #1
 8109700:	9305      	str	r3, [sp, #20]
 8109702:	4619      	mov	r1, r3
 8109704:	f04f 0c0a 	mov.w	ip, #10
 8109708:	4620      	mov	r0, r4
 810970a:	f810 2b01 	ldrb.w	r2, [r0], #1
 810970e:	3a30      	subs	r2, #48	; 0x30
 8109710:	2a09      	cmp	r2, #9
 8109712:	d903      	bls.n	810971c <_svfiprintf_r+0x1a8>
 8109714:	2b00      	cmp	r3, #0
 8109716:	d0c5      	beq.n	81096a4 <_svfiprintf_r+0x130>
 8109718:	9105      	str	r1, [sp, #20]
 810971a:	e7c3      	b.n	81096a4 <_svfiprintf_r+0x130>
 810971c:	fb0c 2101 	mla	r1, ip, r1, r2
 8109720:	4604      	mov	r4, r0
 8109722:	2301      	movs	r3, #1
 8109724:	e7f0      	b.n	8109708 <_svfiprintf_r+0x194>
 8109726:	ab03      	add	r3, sp, #12
 8109728:	9300      	str	r3, [sp, #0]
 810972a:	462a      	mov	r2, r5
 810972c:	4b0f      	ldr	r3, [pc, #60]	; (810976c <_svfiprintf_r+0x1f8>)
 810972e:	a904      	add	r1, sp, #16
 8109730:	4638      	mov	r0, r7
 8109732:	f3af 8000 	nop.w
 8109736:	1c42      	adds	r2, r0, #1
 8109738:	4606      	mov	r6, r0
 810973a:	d1d6      	bne.n	81096ea <_svfiprintf_r+0x176>
 810973c:	89ab      	ldrh	r3, [r5, #12]
 810973e:	065b      	lsls	r3, r3, #25
 8109740:	f53f af2c 	bmi.w	810959c <_svfiprintf_r+0x28>
 8109744:	9809      	ldr	r0, [sp, #36]	; 0x24
 8109746:	b01d      	add	sp, #116	; 0x74
 8109748:	e8bd 8ff0 	ldmia.w	sp!, {r4, r5, r6, r7, r8, r9, sl, fp, pc}
 810974c:	ab03      	add	r3, sp, #12
 810974e:	9300      	str	r3, [sp, #0]
 8109750:	462a      	mov	r2, r5
 8109752:	4b06      	ldr	r3, [pc, #24]	; (810976c <_svfiprintf_r+0x1f8>)
 8109754:	a904      	add	r1, sp, #16
 8109756:	4638      	mov	r0, r7
 8109758:	f000 f87a 	bl	8109850 <_printf_i>
 810975c:	e7eb      	b.n	8109736 <_svfiprintf_r+0x1c2>
 810975e:	bf00      	nop
 8109760:	08109df0 	.word	0x08109df0
 8109764:	08109dfa 	.word	0x08109dfa
 8109768:	00000000 	.word	0x00000000
 810976c:	081094bd 	.word	0x081094bd
 8109770:	08109df6 	.word	0x08109df6

08109774 <_printf_common>:
 8109774:	e92d 47f0 	stmdb	sp!, {r4, r5, r6, r7, r8, r9, sl, lr}
 8109778:	4616      	mov	r6, r2
 810977a:	4699      	mov	r9, r3
 810977c:	688a      	ldr	r2, [r1, #8]
 810977e:	690b      	ldr	r3, [r1, #16]
 8109780:	f8dd 8020 	ldr.w	r8, [sp, #32]
 8109784:	4293      	cmp	r3, r2
 8109786:	bfb8      	it	lt
 8109788:	4613      	movlt	r3, r2
 810978a:	6033      	str	r3, [r6, #0]
 810978c:	f891 2043 	ldrb.w	r2, [r1, #67]	; 0x43
 8109790:	4607      	mov	r7, r0
 8109792:	460c      	mov	r4, r1
 8109794:	b10a      	cbz	r2, 810979a <_printf_common+0x26>
 8109796:	3301      	adds	r3, #1
 8109798:	6033      	str	r3, [r6, #0]
 810979a:	6823      	ldr	r3, [r4, #0]
 810979c:	0699      	lsls	r1, r3, #26
 810979e:	bf42      	ittt	mi
 81097a0:	6833      	ldrmi	r3, [r6, #0]
 81097a2:	3302      	addmi	r3, #2
 81097a4:	6033      	strmi	r3, [r6, #0]
 81097a6:	6825      	ldr	r5, [r4, #0]
 81097a8:	f015 0506 	ands.w	r5, r5, #6
 81097ac:	d106      	bne.n	81097bc <_printf_common+0x48>
 81097ae:	f104 0a19 	add.w	sl, r4, #25
 81097b2:	68e3      	ldr	r3, [r4, #12]
 81097b4:	6832      	ldr	r2, [r6, #0]
 81097b6:	1a9b      	subs	r3, r3, r2
 81097b8:	42ab      	cmp	r3, r5
 81097ba:	dc26      	bgt.n	810980a <_printf_common+0x96>
 81097bc:	f894 2043 	ldrb.w	r2, [r4, #67]	; 0x43
 81097c0:	1e13      	subs	r3, r2, #0
 81097c2:	6822      	ldr	r2, [r4, #0]
 81097c4:	bf18      	it	ne
 81097c6:	2301      	movne	r3, #1
 81097c8:	0692      	lsls	r2, r2, #26
 81097ca:	d42b      	bmi.n	8109824 <_printf_common+0xb0>
 81097cc:	f104 0243 	add.w	r2, r4, #67	; 0x43
 81097d0:	4649      	mov	r1, r9
 81097d2:	4638      	mov	r0, r7
 81097d4:	47c0      	blx	r8
 81097d6:	3001      	adds	r0, #1
 81097d8:	d01e      	beq.n	8109818 <_printf_common+0xa4>
 81097da:	6823      	ldr	r3, [r4, #0]
 81097dc:	68e5      	ldr	r5, [r4, #12]
 81097de:	6832      	ldr	r2, [r6, #0]
 81097e0:	f003 0306 	and.w	r3, r3, #6
 81097e4:	2b04      	cmp	r3, #4
 81097e6:	bf08      	it	eq
 81097e8:	1aad      	subeq	r5, r5, r2
 81097ea:	68a3      	ldr	r3, [r4, #8]
 81097ec:	6922      	ldr	r2, [r4, #16]
 81097ee:	bf0c      	ite	eq
 81097f0:	ea25 75e5 	biceq.w	r5, r5, r5, asr #31
 81097f4:	2500      	movne	r5, #0
 81097f6:	4293      	cmp	r3, r2
 81097f8:	bfc4      	itt	gt
 81097fa:	1a9b      	subgt	r3, r3, r2
 81097fc:	18ed      	addgt	r5, r5, r3
 81097fe:	2600      	movs	r6, #0
 8109800:	341a      	adds	r4, #26
 8109802:	42b5      	cmp	r5, r6
 8109804:	d11a      	bne.n	810983c <_printf_common+0xc8>
 8109806:	2000      	movs	r0, #0
 8109808:	e008      	b.n	810981c <_printf_common+0xa8>
 810980a:	2301      	movs	r3, #1
 810980c:	4652      	mov	r2, sl
 810980e:	4649      	mov	r1, r9
 8109810:	4638      	mov	r0, r7
 8109812:	47c0      	blx	r8
 8109814:	3001      	adds	r0, #1
 8109816:	d103      	bne.n	8109820 <_printf_common+0xac>
 8109818:	f04f 30ff 	mov.w	r0, #4294967295
 810981c:	e8bd 87f0 	ldmia.w	sp!, {r4, r5, r6, r7, r8, r9, sl, pc}
 8109820:	3501      	adds	r5, #1
 8109822:	e7c6      	b.n	81097b2 <_printf_common+0x3e>
 8109824:	18e1      	adds	r1, r4, r3
 8109826:	1c5a      	adds	r2, r3, #1
 8109828:	2030      	movs	r0, #48	; 0x30
 810982a:	f881 0043 	strb.w	r0, [r1, #67]	; 0x43
 810982e:	4422      	add	r2, r4
 8109830:	f894 1045 	ldrb.w	r1, [r4, #69]	; 0x45
 8109834:	f882 1043 	strb.w	r1, [r2, #67]	; 0x43
 8109838:	3302      	adds	r3, #2
 810983a:	e7c7      	b.n	81097cc <_printf_common+0x58>
 810983c:	2301      	movs	r3, #1
 810983e:	4622      	mov	r2, r4
 8109840:	4649      	mov	r1, r9
 8109842:	4638      	mov	r0, r7
 8109844:	47c0      	blx	r8
 8109846:	3001      	adds	r0, #1
 8109848:	d0e6      	beq.n	8109818 <_printf_common+0xa4>
 810984a:	3601      	adds	r6, #1
 810984c:	e7d9      	b.n	8109802 <_printf_common+0x8e>
	...

08109850 <_printf_i>:
 8109850:	e92d 47ff 	stmdb	sp!, {r0, r1, r2, r3, r4, r5, r6, r7, r8, r9, sl, lr}
 8109854:	7e0f      	ldrb	r7, [r1, #24]
 8109856:	9d0c      	ldr	r5, [sp, #48]	; 0x30
 8109858:	2f78      	cmp	r7, #120	; 0x78
 810985a:	4691      	mov	r9, r2
 810985c:	4680      	mov	r8, r0
 810985e:	460c      	mov	r4, r1
 8109860:	469a      	mov	sl, r3
 8109862:	f101 0243 	add.w	r2, r1, #67	; 0x43
 8109866:	d807      	bhi.n	8109878 <_printf_i+0x28>
 8109868:	2f62      	cmp	r7, #98	; 0x62
 810986a:	d80a      	bhi.n	8109882 <_printf_i+0x32>
 810986c:	2f00      	cmp	r7, #0
 810986e:	f000 80d8 	beq.w	8109a22 <_printf_i+0x1d2>
 8109872:	2f58      	cmp	r7, #88	; 0x58
 8109874:	f000 80a3 	beq.w	81099be <_printf_i+0x16e>
 8109878:	f104 0542 	add.w	r5, r4, #66	; 0x42
 810987c:	f884 7042 	strb.w	r7, [r4, #66]	; 0x42
 8109880:	e03a      	b.n	81098f8 <_printf_i+0xa8>
 8109882:	f1a7 0363 	sub.w	r3, r7, #99	; 0x63
 8109886:	2b15      	cmp	r3, #21
 8109888:	d8f6      	bhi.n	8109878 <_printf_i+0x28>
 810988a:	a101      	add	r1, pc, #4	; (adr r1, 8109890 <_printf_i+0x40>)
 810988c:	f851 f023 	ldr.w	pc, [r1, r3, lsl #2]
 8109890:	081098e9 	.word	0x081098e9
 8109894:	081098fd 	.word	0x081098fd
 8109898:	08109879 	.word	0x08109879
 810989c:	08109879 	.word	0x08109879
 81098a0:	08109879 	.word	0x08109879
 81098a4:	08109879 	.word	0x08109879
 81098a8:	081098fd 	.word	0x081098fd
 81098ac:	08109879 	.word	0x08109879
 81098b0:	08109879 	.word	0x08109879
 81098b4:	08109879 	.word	0x08109879
 81098b8:	08109879 	.word	0x08109879
 81098bc:	08109a09 	.word	0x08109a09
 81098c0:	0810992d 	.word	0x0810992d
 81098c4:	081099eb 	.word	0x081099eb
 81098c8:	08109879 	.word	0x08109879
 81098cc:	08109879 	.word	0x08109879
 81098d0:	08109a2b 	.word	0x08109a2b
 81098d4:	08109879 	.word	0x08109879
 81098d8:	0810992d 	.word	0x0810992d
 81098dc:	08109879 	.word	0x08109879
 81098e0:	08109879 	.word	0x08109879
 81098e4:	081099f3 	.word	0x081099f3
 81098e8:	682b      	ldr	r3, [r5, #0]
 81098ea:	1d1a      	adds	r2, r3, #4
 81098ec:	681b      	ldr	r3, [r3, #0]
 81098ee:	602a      	str	r2, [r5, #0]
 81098f0:	f104 0542 	add.w	r5, r4, #66	; 0x42
 81098f4:	f884 3042 	strb.w	r3, [r4, #66]	; 0x42
 81098f8:	2301      	movs	r3, #1
 81098fa:	e0a3      	b.n	8109a44 <_printf_i+0x1f4>
 81098fc:	6820      	ldr	r0, [r4, #0]
 81098fe:	6829      	ldr	r1, [r5, #0]
 8109900:	0606      	lsls	r6, r0, #24
 8109902:	f101 0304 	add.w	r3, r1, #4
 8109906:	d50a      	bpl.n	810991e <_printf_i+0xce>
 8109908:	680e      	ldr	r6, [r1, #0]
 810990a:	602b      	str	r3, [r5, #0]
 810990c:	2e00      	cmp	r6, #0
 810990e:	da03      	bge.n	8109918 <_printf_i+0xc8>
 8109910:	232d      	movs	r3, #45	; 0x2d
 8109912:	4276      	negs	r6, r6
 8109914:	f884 3043 	strb.w	r3, [r4, #67]	; 0x43
 8109918:	485e      	ldr	r0, [pc, #376]	; (8109a94 <_printf_i+0x244>)
 810991a:	230a      	movs	r3, #10
 810991c:	e019      	b.n	8109952 <_printf_i+0x102>
 810991e:	680e      	ldr	r6, [r1, #0]
 8109920:	602b      	str	r3, [r5, #0]
 8109922:	f010 0f40 	tst.w	r0, #64	; 0x40
 8109926:	bf18      	it	ne
 8109928:	b236      	sxthne	r6, r6
 810992a:	e7ef      	b.n	810990c <_printf_i+0xbc>
 810992c:	682b      	ldr	r3, [r5, #0]
 810992e:	6820      	ldr	r0, [r4, #0]
 8109930:	1d19      	adds	r1, r3, #4
 8109932:	6029      	str	r1, [r5, #0]
 8109934:	0601      	lsls	r1, r0, #24
 8109936:	d501      	bpl.n	810993c <_printf_i+0xec>
 8109938:	681e      	ldr	r6, [r3, #0]
 810993a:	e002      	b.n	8109942 <_printf_i+0xf2>
 810993c:	0646      	lsls	r6, r0, #25
 810993e:	d5fb      	bpl.n	8109938 <_printf_i+0xe8>
 8109940:	881e      	ldrh	r6, [r3, #0]
 8109942:	4854      	ldr	r0, [pc, #336]	; (8109a94 <_printf_i+0x244>)
 8109944:	2f6f      	cmp	r7, #111	; 0x6f
 8109946:	bf0c      	ite	eq
 8109948:	2308      	moveq	r3, #8
 810994a:	230a      	movne	r3, #10
 810994c:	2100      	movs	r1, #0
 810994e:	f884 1043 	strb.w	r1, [r4, #67]	; 0x43
 8109952:	6865      	ldr	r5, [r4, #4]
 8109954:	60a5      	str	r5, [r4, #8]
 8109956:	2d00      	cmp	r5, #0
 8109958:	bfa2      	ittt	ge
 810995a:	6821      	ldrge	r1, [r4, #0]
 810995c:	f021 0104 	bicge.w	r1, r1, #4
 8109960:	6021      	strge	r1, [r4, #0]
 8109962:	b90e      	cbnz	r6, 8109968 <_printf_i+0x118>
 8109964:	2d00      	cmp	r5, #0
 8109966:	d04d      	beq.n	8109a04 <_printf_i+0x1b4>
 8109968:	4615      	mov	r5, r2
 810996a:	fbb6 f1f3 	udiv	r1, r6, r3
 810996e:	fb03 6711 	mls	r7, r3, r1, r6
 8109972:	5dc7      	ldrb	r7, [r0, r7]
 8109974:	f805 7d01 	strb.w	r7, [r5, #-1]!
 8109978:	4637      	mov	r7, r6
 810997a:	42bb      	cmp	r3, r7
 810997c:	460e      	mov	r6, r1
 810997e:	d9f4      	bls.n	810996a <_printf_i+0x11a>
 8109980:	2b08      	cmp	r3, #8
 8109982:	d10b      	bne.n	810999c <_printf_i+0x14c>
 8109984:	6823      	ldr	r3, [r4, #0]
 8109986:	07de      	lsls	r6, r3, #31
 8109988:	d508      	bpl.n	810999c <_printf_i+0x14c>
 810998a:	6923      	ldr	r3, [r4, #16]
 810998c:	6861      	ldr	r1, [r4, #4]
 810998e:	4299      	cmp	r1, r3
 8109990:	bfde      	ittt	le
 8109992:	2330      	movle	r3, #48	; 0x30
 8109994:	f805 3c01 	strble.w	r3, [r5, #-1]
 8109998:	f105 35ff 	addle.w	r5, r5, #4294967295
 810999c:	1b52      	subs	r2, r2, r5
 810999e:	6122      	str	r2, [r4, #16]
 81099a0:	f8cd a000 	str.w	sl, [sp]
 81099a4:	464b      	mov	r3, r9
 81099a6:	aa03      	add	r2, sp, #12
 81099a8:	4621      	mov	r1, r4
 81099aa:	4640      	mov	r0, r8
 81099ac:	f7ff fee2 	bl	8109774 <_printf_common>
 81099b0:	3001      	adds	r0, #1
 81099b2:	d14c      	bne.n	8109a4e <_printf_i+0x1fe>
 81099b4:	f04f 30ff 	mov.w	r0, #4294967295
 81099b8:	b004      	add	sp, #16
 81099ba:	e8bd 87f0 	ldmia.w	sp!, {r4, r5, r6, r7, r8, r9, sl, pc}
 81099be:	4835      	ldr	r0, [pc, #212]	; (8109a94 <_printf_i+0x244>)
 81099c0:	f881 7045 	strb.w	r7, [r1, #69]	; 0x45
 81099c4:	6829      	ldr	r1, [r5, #0]
 81099c6:	6823      	ldr	r3, [r4, #0]
 81099c8:	f851 6b04 	ldr.w	r6, [r1], #4
 81099cc:	6029      	str	r1, [r5, #0]
 81099ce:	061d      	lsls	r5, r3, #24
 81099d0:	d514      	bpl.n	81099fc <_printf_i+0x1ac>
 81099d2:	07df      	lsls	r7, r3, #31
 81099d4:	bf44      	itt	mi
 81099d6:	f043 0320 	orrmi.w	r3, r3, #32
 81099da:	6023      	strmi	r3, [r4, #0]
 81099dc:	b91e      	cbnz	r6, 81099e6 <_printf_i+0x196>
 81099de:	6823      	ldr	r3, [r4, #0]
 81099e0:	f023 0320 	bic.w	r3, r3, #32
 81099e4:	6023      	str	r3, [r4, #0]
 81099e6:	2310      	movs	r3, #16
 81099e8:	e7b0      	b.n	810994c <_printf_i+0xfc>
 81099ea:	6823      	ldr	r3, [r4, #0]
 81099ec:	f043 0320 	orr.w	r3, r3, #32
 81099f0:	6023      	str	r3, [r4, #0]
 81099f2:	2378      	movs	r3, #120	; 0x78
 81099f4:	4828      	ldr	r0, [pc, #160]	; (8109a98 <_printf_i+0x248>)
 81099f6:	f884 3045 	strb.w	r3, [r4, #69]	; 0x45
 81099fa:	e7e3      	b.n	81099c4 <_printf_i+0x174>
 81099fc:	0659      	lsls	r1, r3, #25
 81099fe:	bf48      	it	mi
 8109a00:	b2b6      	uxthmi	r6, r6
 8109a02:	e7e6      	b.n	81099d2 <_printf_i+0x182>
 8109a04:	4615      	mov	r5, r2
 8109a06:	e7bb      	b.n	8109980 <_printf_i+0x130>
 8109a08:	682b      	ldr	r3, [r5, #0]
 8109a0a:	6826      	ldr	r6, [r4, #0]
 8109a0c:	6961      	ldr	r1, [r4, #20]
 8109a0e:	1d18      	adds	r0, r3, #4
 8109a10:	6028      	str	r0, [r5, #0]
 8109a12:	0635      	lsls	r5, r6, #24
 8109a14:	681b      	ldr	r3, [r3, #0]
 8109a16:	d501      	bpl.n	8109a1c <_printf_i+0x1cc>
 8109a18:	6019      	str	r1, [r3, #0]
 8109a1a:	e002      	b.n	8109a22 <_printf_i+0x1d2>
 8109a1c:	0670      	lsls	r0, r6, #25
 8109a1e:	d5fb      	bpl.n	8109a18 <_printf_i+0x1c8>
 8109a20:	8019      	strh	r1, [r3, #0]
 8109a22:	2300      	movs	r3, #0
 8109a24:	6123      	str	r3, [r4, #16]
 8109a26:	4615      	mov	r5, r2
 8109a28:	e7ba      	b.n	81099a0 <_printf_i+0x150>
 8109a2a:	682b      	ldr	r3, [r5, #0]
 8109a2c:	1d1a      	adds	r2, r3, #4
 8109a2e:	602a      	str	r2, [r5, #0]
 8109a30:	681d      	ldr	r5, [r3, #0]
 8109a32:	6862      	ldr	r2, [r4, #4]
 8109a34:	2100      	movs	r1, #0
 8109a36:	4628      	mov	r0, r5
 8109a38:	f7f6 fc52 	bl	81002e0 <memchr>
 8109a3c:	b108      	cbz	r0, 8109a42 <_printf_i+0x1f2>
 8109a3e:	1b40      	subs	r0, r0, r5
 8109a40:	6060      	str	r0, [r4, #4]
 8109a42:	6863      	ldr	r3, [r4, #4]
 8109a44:	6123      	str	r3, [r4, #16]
 8109a46:	2300      	movs	r3, #0
 8109a48:	f884 3043 	strb.w	r3, [r4, #67]	; 0x43
 8109a4c:	e7a8      	b.n	81099a0 <_printf_i+0x150>
 8109a4e:	6923      	ldr	r3, [r4, #16]
 8109a50:	462a      	mov	r2, r5
 8109a52:	4649      	mov	r1, r9
 8109a54:	4640      	mov	r0, r8
 8109a56:	47d0      	blx	sl
 8109a58:	3001      	adds	r0, #1
 8109a5a:	d0ab      	beq.n	81099b4 <_printf_i+0x164>
 8109a5c:	6823      	ldr	r3, [r4, #0]
 8109a5e:	079b      	lsls	r3, r3, #30
 8109a60:	d413      	bmi.n	8109a8a <_printf_i+0x23a>
 8109a62:	68e0      	ldr	r0, [r4, #12]
 8109a64:	9b03      	ldr	r3, [sp, #12]
 8109a66:	4298      	cmp	r0, r3
 8109a68:	bfb8      	it	lt
 8109a6a:	4618      	movlt	r0, r3
 8109a6c:	e7a4      	b.n	81099b8 <_printf_i+0x168>
 8109a6e:	2301      	movs	r3, #1
 8109a70:	4632      	mov	r2, r6
 8109a72:	4649      	mov	r1, r9
 8109a74:	4640      	mov	r0, r8
 8109a76:	47d0      	blx	sl
 8109a78:	3001      	adds	r0, #1
 8109a7a:	d09b      	beq.n	81099b4 <_printf_i+0x164>
 8109a7c:	3501      	adds	r5, #1
 8109a7e:	68e3      	ldr	r3, [r4, #12]
 8109a80:	9903      	ldr	r1, [sp, #12]
 8109a82:	1a5b      	subs	r3, r3, r1
 8109a84:	42ab      	cmp	r3, r5
 8109a86:	dcf2      	bgt.n	8109a6e <_printf_i+0x21e>
 8109a88:	e7eb      	b.n	8109a62 <_printf_i+0x212>
 8109a8a:	2500      	movs	r5, #0
 8109a8c:	f104 0619 	add.w	r6, r4, #25
 8109a90:	e7f5      	b.n	8109a7e <_printf_i+0x22e>
 8109a92:	bf00      	nop
 8109a94:	08109e01 	.word	0x08109e01
 8109a98:	08109e12 	.word	0x08109e12

08109a9c <memcpy>:
 8109a9c:	440a      	add	r2, r1
 8109a9e:	4291      	cmp	r1, r2
 8109aa0:	f100 33ff 	add.w	r3, r0, #4294967295
 8109aa4:	d100      	bne.n	8109aa8 <memcpy+0xc>
 8109aa6:	4770      	bx	lr
 8109aa8:	b510      	push	{r4, lr}
 8109aaa:	f811 4b01 	ldrb.w	r4, [r1], #1
 8109aae:	f803 4f01 	strb.w	r4, [r3, #1]!
 8109ab2:	4291      	cmp	r1, r2
 8109ab4:	d1f9      	bne.n	8109aaa <memcpy+0xe>
 8109ab6:	bd10      	pop	{r4, pc}

08109ab8 <memmove>:
 8109ab8:	4288      	cmp	r0, r1
 8109aba:	b510      	push	{r4, lr}
 8109abc:	eb01 0402 	add.w	r4, r1, r2
 8109ac0:	d902      	bls.n	8109ac8 <memmove+0x10>
 8109ac2:	4284      	cmp	r4, r0
 8109ac4:	4623      	mov	r3, r4
 8109ac6:	d807      	bhi.n	8109ad8 <memmove+0x20>
 8109ac8:	1e43      	subs	r3, r0, #1
 8109aca:	42a1      	cmp	r1, r4
 8109acc:	d008      	beq.n	8109ae0 <memmove+0x28>
 8109ace:	f811 2b01 	ldrb.w	r2, [r1], #1
 8109ad2:	f803 2f01 	strb.w	r2, [r3, #1]!
 8109ad6:	e7f8      	b.n	8109aca <memmove+0x12>
 8109ad8:	4402      	add	r2, r0
 8109ada:	4601      	mov	r1, r0
 8109adc:	428a      	cmp	r2, r1
 8109ade:	d100      	bne.n	8109ae2 <memmove+0x2a>
 8109ae0:	bd10      	pop	{r4, pc}
 8109ae2:	f813 4d01 	ldrb.w	r4, [r3, #-1]!
 8109ae6:	f802 4d01 	strb.w	r4, [r2, #-1]!
 8109aea:	e7f7      	b.n	8109adc <memmove+0x24>

08109aec <_free_r>:
 8109aec:	b537      	push	{r0, r1, r2, r4, r5, lr}
 8109aee:	2900      	cmp	r1, #0
 8109af0:	d044      	beq.n	8109b7c <_free_r+0x90>
 8109af2:	f851 3c04 	ldr.w	r3, [r1, #-4]
 8109af6:	9001      	str	r0, [sp, #4]
 8109af8:	2b00      	cmp	r3, #0
 8109afa:	f1a1 0404 	sub.w	r4, r1, #4
 8109afe:	bfb8      	it	lt
 8109b00:	18e4      	addlt	r4, r4, r3
 8109b02:	f000 f913 	bl	8109d2c <__malloc_lock>
 8109b06:	4a1e      	ldr	r2, [pc, #120]	; (8109b80 <_free_r+0x94>)
 8109b08:	9801      	ldr	r0, [sp, #4]
 8109b0a:	6813      	ldr	r3, [r2, #0]
 8109b0c:	b933      	cbnz	r3, 8109b1c <_free_r+0x30>
 8109b0e:	6063      	str	r3, [r4, #4]
 8109b10:	6014      	str	r4, [r2, #0]
 8109b12:	b003      	add	sp, #12
 8109b14:	e8bd 4030 	ldmia.w	sp!, {r4, r5, lr}
 8109b18:	f000 b90e 	b.w	8109d38 <__malloc_unlock>
 8109b1c:	42a3      	cmp	r3, r4
 8109b1e:	d908      	bls.n	8109b32 <_free_r+0x46>
 8109b20:	6825      	ldr	r5, [r4, #0]
 8109b22:	1961      	adds	r1, r4, r5
 8109b24:	428b      	cmp	r3, r1
 8109b26:	bf01      	itttt	eq
 8109b28:	6819      	ldreq	r1, [r3, #0]
 8109b2a:	685b      	ldreq	r3, [r3, #4]
 8109b2c:	1949      	addeq	r1, r1, r5
 8109b2e:	6021      	streq	r1, [r4, #0]
 8109b30:	e7ed      	b.n	8109b0e <_free_r+0x22>
 8109b32:	461a      	mov	r2, r3
 8109b34:	685b      	ldr	r3, [r3, #4]
 8109b36:	b10b      	cbz	r3, 8109b3c <_free_r+0x50>
 8109b38:	42a3      	cmp	r3, r4
 8109b3a:	d9fa      	bls.n	8109b32 <_free_r+0x46>
 8109b3c:	6811      	ldr	r1, [r2, #0]
 8109b3e:	1855      	adds	r5, r2, r1
 8109b40:	42a5      	cmp	r5, r4
 8109b42:	d10b      	bne.n	8109b5c <_free_r+0x70>
 8109b44:	6824      	ldr	r4, [r4, #0]
 8109b46:	4421      	add	r1, r4
 8109b48:	1854      	adds	r4, r2, r1
 8109b4a:	42a3      	cmp	r3, r4
 8109b4c:	6011      	str	r1, [r2, #0]
 8109b4e:	d1e0      	bne.n	8109b12 <_free_r+0x26>
 8109b50:	681c      	ldr	r4, [r3, #0]
 8109b52:	685b      	ldr	r3, [r3, #4]
 8109b54:	6053      	str	r3, [r2, #4]
 8109b56:	4421      	add	r1, r4
 8109b58:	6011      	str	r1, [r2, #0]
 8109b5a:	e7da      	b.n	8109b12 <_free_r+0x26>
 8109b5c:	d902      	bls.n	8109b64 <_free_r+0x78>
 8109b5e:	230c      	movs	r3, #12
 8109b60:	6003      	str	r3, [r0, #0]
 8109b62:	e7d6      	b.n	8109b12 <_free_r+0x26>
 8109b64:	6825      	ldr	r5, [r4, #0]
 8109b66:	1961      	adds	r1, r4, r5
 8109b68:	428b      	cmp	r3, r1
 8109b6a:	bf04      	itt	eq
 8109b6c:	6819      	ldreq	r1, [r3, #0]
 8109b6e:	685b      	ldreq	r3, [r3, #4]
 8109b70:	6063      	str	r3, [r4, #4]
 8109b72:	bf04      	itt	eq
 8109b74:	1949      	addeq	r1, r1, r5
 8109b76:	6021      	streq	r1, [r4, #0]
 8109b78:	6054      	str	r4, [r2, #4]
 8109b7a:	e7ca      	b.n	8109b12 <_free_r+0x26>
 8109b7c:	b003      	add	sp, #12
 8109b7e:	bd30      	pop	{r4, r5, pc}
 8109b80:	1000033c 	.word	0x1000033c

08109b84 <sbrk_aligned>:
 8109b84:	b570      	push	{r4, r5, r6, lr}
 8109b86:	4e0e      	ldr	r6, [pc, #56]	; (8109bc0 <sbrk_aligned+0x3c>)
 8109b88:	460c      	mov	r4, r1
 8109b8a:	6831      	ldr	r1, [r6, #0]
 8109b8c:	4605      	mov	r5, r0
 8109b8e:	b911      	cbnz	r1, 8109b96 <sbrk_aligned+0x12>
 8109b90:	f000 f8bc 	bl	8109d0c <_sbrk_r>
 8109b94:	6030      	str	r0, [r6, #0]
 8109b96:	4621      	mov	r1, r4
 8109b98:	4628      	mov	r0, r5
 8109b9a:	f000 f8b7 	bl	8109d0c <_sbrk_r>
 8109b9e:	1c43      	adds	r3, r0, #1
 8109ba0:	d00a      	beq.n	8109bb8 <sbrk_aligned+0x34>
 8109ba2:	1cc4      	adds	r4, r0, #3
 8109ba4:	f024 0403 	bic.w	r4, r4, #3
 8109ba8:	42a0      	cmp	r0, r4
 8109baa:	d007      	beq.n	8109bbc <sbrk_aligned+0x38>
 8109bac:	1a21      	subs	r1, r4, r0
 8109bae:	4628      	mov	r0, r5
 8109bb0:	f000 f8ac 	bl	8109d0c <_sbrk_r>
 8109bb4:	3001      	adds	r0, #1
 8109bb6:	d101      	bne.n	8109bbc <sbrk_aligned+0x38>
 8109bb8:	f04f 34ff 	mov.w	r4, #4294967295
 8109bbc:	4620      	mov	r0, r4
 8109bbe:	bd70      	pop	{r4, r5, r6, pc}
 8109bc0:	10000340 	.word	0x10000340

08109bc4 <_malloc_r>:
 8109bc4:	e92d 41f0 	stmdb	sp!, {r4, r5, r6, r7, r8, lr}
 8109bc8:	1ccd      	adds	r5, r1, #3
 8109bca:	f025 0503 	bic.w	r5, r5, #3
 8109bce:	3508      	adds	r5, #8
 8109bd0:	2d0c      	cmp	r5, #12
 8109bd2:	bf38      	it	cc
 8109bd4:	250c      	movcc	r5, #12
 8109bd6:	2d00      	cmp	r5, #0
 8109bd8:	4607      	mov	r7, r0
 8109bda:	db01      	blt.n	8109be0 <_malloc_r+0x1c>
 8109bdc:	42a9      	cmp	r1, r5
 8109bde:	d905      	bls.n	8109bec <_malloc_r+0x28>
 8109be0:	230c      	movs	r3, #12
 8109be2:	603b      	str	r3, [r7, #0]
 8109be4:	2600      	movs	r6, #0
 8109be6:	4630      	mov	r0, r6
 8109be8:	e8bd 81f0 	ldmia.w	sp!, {r4, r5, r6, r7, r8, pc}
 8109bec:	4e2e      	ldr	r6, [pc, #184]	; (8109ca8 <_malloc_r+0xe4>)
 8109bee:	f000 f89d 	bl	8109d2c <__malloc_lock>
 8109bf2:	6833      	ldr	r3, [r6, #0]
 8109bf4:	461c      	mov	r4, r3
 8109bf6:	bb34      	cbnz	r4, 8109c46 <_malloc_r+0x82>
 8109bf8:	4629      	mov	r1, r5
 8109bfa:	4638      	mov	r0, r7
 8109bfc:	f7ff ffc2 	bl	8109b84 <sbrk_aligned>
 8109c00:	1c43      	adds	r3, r0, #1
 8109c02:	4604      	mov	r4, r0
 8109c04:	d14d      	bne.n	8109ca2 <_malloc_r+0xde>
 8109c06:	6834      	ldr	r4, [r6, #0]
 8109c08:	4626      	mov	r6, r4
 8109c0a:	2e00      	cmp	r6, #0
 8109c0c:	d140      	bne.n	8109c90 <_malloc_r+0xcc>
 8109c0e:	6823      	ldr	r3, [r4, #0]
 8109c10:	4631      	mov	r1, r6
 8109c12:	4638      	mov	r0, r7
 8109c14:	eb04 0803 	add.w	r8, r4, r3
 8109c18:	f000 f878 	bl	8109d0c <_sbrk_r>
 8109c1c:	4580      	cmp	r8, r0
 8109c1e:	d13a      	bne.n	8109c96 <_malloc_r+0xd2>
 8109c20:	6821      	ldr	r1, [r4, #0]
 8109c22:	3503      	adds	r5, #3
 8109c24:	1a6d      	subs	r5, r5, r1
 8109c26:	f025 0503 	bic.w	r5, r5, #3
 8109c2a:	3508      	adds	r5, #8
 8109c2c:	2d0c      	cmp	r5, #12
 8109c2e:	bf38      	it	cc
 8109c30:	250c      	movcc	r5, #12
 8109c32:	4629      	mov	r1, r5
 8109c34:	4638      	mov	r0, r7
 8109c36:	f7ff ffa5 	bl	8109b84 <sbrk_aligned>
 8109c3a:	3001      	adds	r0, #1
 8109c3c:	d02b      	beq.n	8109c96 <_malloc_r+0xd2>
 8109c3e:	6823      	ldr	r3, [r4, #0]
 8109c40:	442b      	add	r3, r5
 8109c42:	6023      	str	r3, [r4, #0]
 8109c44:	e00e      	b.n	8109c64 <_malloc_r+0xa0>
 8109c46:	6822      	ldr	r2, [r4, #0]
 8109c48:	1b52      	subs	r2, r2, r5
 8109c4a:	d41e      	bmi.n	8109c8a <_malloc_r+0xc6>
 8109c4c:	2a0b      	cmp	r2, #11
 8109c4e:	d916      	bls.n	8109c7e <_malloc_r+0xba>
 8109c50:	1961      	adds	r1, r4, r5
 8109c52:	42a3      	cmp	r3, r4
 8109c54:	6025      	str	r5, [r4, #0]
 8109c56:	bf18      	it	ne
 8109c58:	6059      	strne	r1, [r3, #4]
 8109c5a:	6863      	ldr	r3, [r4, #4]
 8109c5c:	bf08      	it	eq
 8109c5e:	6031      	streq	r1, [r6, #0]
 8109c60:	5162      	str	r2, [r4, r5]
 8109c62:	604b      	str	r3, [r1, #4]
 8109c64:	4638      	mov	r0, r7
 8109c66:	f104 060b 	add.w	r6, r4, #11
 8109c6a:	f000 f865 	bl	8109d38 <__malloc_unlock>
 8109c6e:	f026 0607 	bic.w	r6, r6, #7
 8109c72:	1d23      	adds	r3, r4, #4
 8109c74:	1af2      	subs	r2, r6, r3
 8109c76:	d0b6      	beq.n	8109be6 <_malloc_r+0x22>
 8109c78:	1b9b      	subs	r3, r3, r6
 8109c7a:	50a3      	str	r3, [r4, r2]
 8109c7c:	e7b3      	b.n	8109be6 <_malloc_r+0x22>
 8109c7e:	6862      	ldr	r2, [r4, #4]
 8109c80:	42a3      	cmp	r3, r4
 8109c82:	bf0c      	ite	eq
 8109c84:	6032      	streq	r2, [r6, #0]
 8109c86:	605a      	strne	r2, [r3, #4]
 8109c88:	e7ec      	b.n	8109c64 <_malloc_r+0xa0>
 8109c8a:	4623      	mov	r3, r4
 8109c8c:	6864      	ldr	r4, [r4, #4]
 8109c8e:	e7b2      	b.n	8109bf6 <_malloc_r+0x32>
 8109c90:	4634      	mov	r4, r6
 8109c92:	6876      	ldr	r6, [r6, #4]
 8109c94:	e7b9      	b.n	8109c0a <_malloc_r+0x46>
 8109c96:	230c      	movs	r3, #12
 8109c98:	603b      	str	r3, [r7, #0]
 8109c9a:	4638      	mov	r0, r7
 8109c9c:	f000 f84c 	bl	8109d38 <__malloc_unlock>
 8109ca0:	e7a1      	b.n	8109be6 <_malloc_r+0x22>
 8109ca2:	6025      	str	r5, [r4, #0]
 8109ca4:	e7de      	b.n	8109c64 <_malloc_r+0xa0>
 8109ca6:	bf00      	nop
 8109ca8:	1000033c 	.word	0x1000033c

08109cac <_realloc_r>:
 8109cac:	e92d 41f0 	stmdb	sp!, {r4, r5, r6, r7, r8, lr}
 8109cb0:	4680      	mov	r8, r0
 8109cb2:	4614      	mov	r4, r2
 8109cb4:	460e      	mov	r6, r1
 8109cb6:	b921      	cbnz	r1, 8109cc2 <_realloc_r+0x16>
 8109cb8:	e8bd 41f0 	ldmia.w	sp!, {r4, r5, r6, r7, r8, lr}
 8109cbc:	4611      	mov	r1, r2
 8109cbe:	f7ff bf81 	b.w	8109bc4 <_malloc_r>
 8109cc2:	b92a      	cbnz	r2, 8109cd0 <_realloc_r+0x24>
 8109cc4:	f7ff ff12 	bl	8109aec <_free_r>
 8109cc8:	4625      	mov	r5, r4
 8109cca:	4628      	mov	r0, r5
 8109ccc:	e8bd 81f0 	ldmia.w	sp!, {r4, r5, r6, r7, r8, pc}
 8109cd0:	f000 f838 	bl	8109d44 <_malloc_usable_size_r>
 8109cd4:	4284      	cmp	r4, r0
 8109cd6:	4607      	mov	r7, r0
 8109cd8:	d802      	bhi.n	8109ce0 <_realloc_r+0x34>
 8109cda:	ebb4 0f50 	cmp.w	r4, r0, lsr #1
 8109cde:	d812      	bhi.n	8109d06 <_realloc_r+0x5a>
 8109ce0:	4621      	mov	r1, r4
 8109ce2:	4640      	mov	r0, r8
 8109ce4:	f7ff ff6e 	bl	8109bc4 <_malloc_r>
 8109ce8:	4605      	mov	r5, r0
 8109cea:	2800      	cmp	r0, #0
 8109cec:	d0ed      	beq.n	8109cca <_realloc_r+0x1e>
 8109cee:	42bc      	cmp	r4, r7
 8109cf0:	4622      	mov	r2, r4
 8109cf2:	4631      	mov	r1, r6
 8109cf4:	bf28      	it	cs
 8109cf6:	463a      	movcs	r2, r7
 8109cf8:	f7ff fed0 	bl	8109a9c <memcpy>
 8109cfc:	4631      	mov	r1, r6
 8109cfe:	4640      	mov	r0, r8
 8109d00:	f7ff fef4 	bl	8109aec <_free_r>
 8109d04:	e7e1      	b.n	8109cca <_realloc_r+0x1e>
 8109d06:	4635      	mov	r5, r6
 8109d08:	e7df      	b.n	8109cca <_realloc_r+0x1e>
	...

08109d0c <_sbrk_r>:
 8109d0c:	b538      	push	{r3, r4, r5, lr}
 8109d0e:	4d06      	ldr	r5, [pc, #24]	; (8109d28 <_sbrk_r+0x1c>)
 8109d10:	2300      	movs	r3, #0
 8109d12:	4604      	mov	r4, r0
 8109d14:	4608      	mov	r0, r1
 8109d16:	602b      	str	r3, [r5, #0]
 8109d18:	f000 f81e 	bl	8109d58 <_sbrk>
 8109d1c:	1c43      	adds	r3, r0, #1
 8109d1e:	d102      	bne.n	8109d26 <_sbrk_r+0x1a>
 8109d20:	682b      	ldr	r3, [r5, #0]
 8109d22:	b103      	cbz	r3, 8109d26 <_sbrk_r+0x1a>
 8109d24:	6023      	str	r3, [r4, #0]
 8109d26:	bd38      	pop	{r3, r4, r5, pc}
 8109d28:	10000344 	.word	0x10000344

08109d2c <__malloc_lock>:
 8109d2c:	4801      	ldr	r0, [pc, #4]	; (8109d34 <__malloc_lock+0x8>)
 8109d2e:	f000 b811 	b.w	8109d54 <__retarget_lock_acquire_recursive>
 8109d32:	bf00      	nop
 8109d34:	10000348 	.word	0x10000348

08109d38 <__malloc_unlock>:
 8109d38:	4801      	ldr	r0, [pc, #4]	; (8109d40 <__malloc_unlock+0x8>)
 8109d3a:	f000 b80c 	b.w	8109d56 <__retarget_lock_release_recursive>
 8109d3e:	bf00      	nop
 8109d40:	10000348 	.word	0x10000348

08109d44 <_malloc_usable_size_r>:
 8109d44:	f851 3c04 	ldr.w	r3, [r1, #-4]
 8109d48:	1f18      	subs	r0, r3, #4
 8109d4a:	2b00      	cmp	r3, #0
 8109d4c:	bfbc      	itt	lt
 8109d4e:	580b      	ldrlt	r3, [r1, r0]
 8109d50:	18c0      	addlt	r0, r0, r3
 8109d52:	4770      	bx	lr

08109d54 <__retarget_lock_acquire_recursive>:
 8109d54:	4770      	bx	lr

08109d56 <__retarget_lock_release_recursive>:
 8109d56:	4770      	bx	lr

08109d58 <_sbrk>:
 8109d58:	4a04      	ldr	r2, [pc, #16]	; (8109d6c <_sbrk+0x14>)
 8109d5a:	6811      	ldr	r1, [r2, #0]
 8109d5c:	4603      	mov	r3, r0
 8109d5e:	b909      	cbnz	r1, 8109d64 <_sbrk+0xc>
 8109d60:	4903      	ldr	r1, [pc, #12]	; (8109d70 <_sbrk+0x18>)
 8109d62:	6011      	str	r1, [r2, #0]
 8109d64:	6810      	ldr	r0, [r2, #0]
 8109d66:	4403      	add	r3, r0
 8109d68:	6013      	str	r3, [r2, #0]
 8109d6a:	4770      	bx	lr
 8109d6c:	1000034c 	.word	0x1000034c
 8109d70:	10000350 	.word	0x10000350

08109d74 <_init>:
 8109d74:	b5f8      	push	{r3, r4, r5, r6, r7, lr}
 8109d76:	bf00      	nop
 8109d78:	bcf8      	pop	{r3, r4, r5, r6, r7}
 8109d7a:	bc08      	pop	{r3}
 8109d7c:	469e      	mov	lr, r3
 8109d7e:	4770      	bx	lr

08109d80 <_fini>:
 8109d80:	b5f8      	push	{r3, r4, r5, r6, r7, lr}
 8109d82:	bf00      	nop
 8109d84:	bcf8      	pop	{r3, r4, r5, r6, r7}
 8109d86:	bc08      	pop	{r3}
 8109d88:	469e      	mov	lr, r3
 8109d8a:	4770      	bx	lr
